GAS LISTING /tmp/ccZKkPJb.s 			page 1


   1              		.file	"buffer.cpp"
   2              		.option pic
   3              		.option norelax
   4              		.text
   5              	.Ltext0:
   6              		.align	2
   7              		.globl	_ZN6BufferC2Ei
   9              	_ZN6BufferC2Ei:
  10              	.LFB47:
  11              		.file 1 "src/buffer.cpp"
   1:src/buffer.cpp **** #include "../h/buffer.hpp"
   2:src/buffer.cpp **** 
   3:src/buffer.cpp **** Buffer::Buffer(int cap)
  12              		.loc 1 3 1
  13              		.cfi_startproc
  14              	.LVL0:
  15 0000 130101FE 		addi	sp,sp,-32
  16              		.cfi_def_cfa_offset 32
  17 0004 233C1100 		sd	ra,24(sp)
  18 0008 23388100 		sd	s0,16(sp)
  19 000c 23349100 		sd	s1,8(sp)
  20 0010 23302101 		sd	s2,0(sp)
  21              		.cfi_offset 1, -8
  22              		.cfi_offset 8, -16
  23              		.cfi_offset 9, -24
  24              		.cfi_offset 18, -32
  25 0014 13040102 		addi	s0,sp,32
  26              		.cfi_def_cfa 8, 0
  27 0018 93040500 		mv	s1,a0
  28 001c 13890500 		mv	s2,a1
  29              	.LBB28:
   4:src/buffer.cpp **** {
   5:src/buffer.cpp ****     this->cap = cap;
  30              		.loc 1 5 5
  31              		.loc 1 5 15 is_stmt 0
  32 0020 2320B500 		sw	a1,0(a0)
   6:src/buffer.cpp ****     head=tail=0;
  33              		.loc 1 6 5 is_stmt 1
  34              		.loc 1 6 14 is_stmt 0
  35 0024 232E0500 		sw	zero,28(a0)
  36              		.loc 1 6 9
  37 0028 232C0500 		sw	zero,24(a0)
   7:src/buffer.cpp ****     cnt=0;
  38              		.loc 1 7 5 is_stmt 1
  39              		.loc 1 7 8 is_stmt 0
  40 002c 23240502 		sw	zero,40(a0)
   8:src/buffer.cpp ****     buff = (char*) MemoryAllocator::instance().kmem_alloc(cap*sizeof(char));
  41              		.loc 1 8 5 is_stmt 1
  42              		.loc 1 8 46 is_stmt 0
  43 0030 97000000 		call	_ZN15MemoryAllocator8instanceEv@plt
  43      E7800000 
  44              	.LVL1:
  45              		.loc 1 8 58
  46 0038 93050900 		mv	a1,s2
  47 003c 97000000 		call	_ZN15MemoryAllocator10kmem_allocEm@plt
  47      E7800000 
  48              	.LVL2:
GAS LISTING /tmp/ccZKkPJb.s 			page 2


  49              		.loc 1 8 10
  50 0044 23B0A402 		sd	a0,32(s1)
   9:src/buffer.cpp ****     itemAvailable = new Semaphore(0);
  51              		.loc 1 9 5 is_stmt 1
  52              	.LVL3:
  53              	.LBB29:
  54              	.LBB30:
  55              		.file 2 "src/../h/semaphore.hpp"
   1:src/../h/semaphore.hpp **** #ifndef SemaphoreDef
   2:src/../h/semaphore.hpp **** #define SemaphoreDef
   3:src/../h/semaphore.hpp **** 
   4:src/../h/semaphore.hpp **** #include "list.hpp"
   5:src/../h/semaphore.hpp **** #include "tcb.hpp"
   6:src/../h/semaphore.hpp **** #include "memory_allocator.hpp"
   7:src/../h/semaphore.hpp **** 
   8:src/../h/semaphore.hpp **** class Semaphore {
   9:src/../h/semaphore.hpp **** public:
  10:src/../h/semaphore.hpp ****     explicit Semaphore(unsigned init = 1) {
  11:src/../h/semaphore.hpp ****         this->value = init;
  12:src/../h/semaphore.hpp ****         this->closed = false;
  13:src/../h/semaphore.hpp ****     }
  14:src/../h/semaphore.hpp **** 
  15:src/../h/semaphore.hpp ****     int kwait_n(unsigned n);
  16:src/../h/semaphore.hpp ****     int ksignal_n(unsigned n);
  17:src/../h/semaphore.hpp ****     static Semaphore* createSemaphore(unsigned init = 1);
  18:src/../h/semaphore.hpp ****     unsigned getValue() const { return value; }
  19:src/../h/semaphore.hpp ****     int close();
  20:src/../h/semaphore.hpp **** 
  21:src/../h/semaphore.hpp ****     void* operator new(size_t size) {
  22:src/../h/semaphore.hpp ****         return MemoryAllocator::instance().kmem_alloc(size);
  56              		.loc 2 22 9
  57              		.loc 2 22 42 is_stmt 0
  58 0048 97000000 		call	_ZN15MemoryAllocator8instanceEv@plt
  58      E7800000 
  59              	.LVL4:
  60              		.loc 2 22 54
  61 0050 93050002 		li	a1,32
  62 0054 97000000 		call	_ZN15MemoryAllocator10kmem_allocEm@plt
  62      E7800000 
  63              	.LVL5:
  64              	.LBE30:
  65              	.LBE29:
  66              	.LBB31:
  67              	.LBB32:
  68              	.LBB33:
  69              	.LBB34:
  70              		.file 3 "src/../h/list.hpp"
   1:src/../h/list.hpp **** #ifndef OS1_VEZBE07_RISCV_CONTEXT_SWITCH_2_INTERRUPT_LIST_HPP
   2:src/../h/list.hpp **** #define OS1_VEZBE07_RISCV_CONTEXT_SWITCH_2_INTERRUPT_LIST_HPP
   3:src/../h/list.hpp **** 
   4:src/../h/list.hpp **** #include "memory_allocator.hpp"
   5:src/../h/list.hpp **** template<typename T>
   6:src/../h/list.hpp **** class List
   7:src/../h/list.hpp **** {
   8:src/../h/list.hpp **** private:
   9:src/../h/list.hpp ****     struct Elem
  10:src/../h/list.hpp ****     {
GAS LISTING /tmp/ccZKkPJb.s 			page 3


  11:src/../h/list.hpp ****         T *data;
  12:src/../h/list.hpp ****         Elem *next;
  13:src/../h/list.hpp **** 
  14:src/../h/list.hpp ****         Elem(T *data, Elem *next) : data(data), next(next) {}
  15:src/../h/list.hpp **** 
  16:src/../h/list.hpp ****         void* operator new(size_t size) {
  17:src/../h/list.hpp ****             return MemoryAllocator::instance().kmem_alloc(size);
  18:src/../h/list.hpp ****         }
  19:src/../h/list.hpp ****         void* operator new[](size_t size) {
  20:src/../h/list.hpp ****             return MemoryAllocator::instance().kmem_alloc(size);
  21:src/../h/list.hpp ****         }
  22:src/../h/list.hpp ****         
  23:src/../h/list.hpp ****         void operator delete(void *ptr) {
  24:src/../h/list.hpp ****             MemoryAllocator::instance().kmem_free(ptr);
  25:src/../h/list.hpp ****         }
  26:src/../h/list.hpp ****         void operator delete[](void *ptr) {
  27:src/../h/list.hpp ****             MemoryAllocator::instance().kmem_free(ptr);
  28:src/../h/list.hpp ****         }
  29:src/../h/list.hpp ****     };
  30:src/../h/list.hpp **** 
  31:src/../h/list.hpp ****     Elem *head, *tail;
  32:src/../h/list.hpp ****     size_t size;
  33:src/../h/list.hpp **** 
  34:src/../h/list.hpp **** public:
  35:src/../h/list.hpp ****     List() : head(0), tail(0), size(0) {}
  71              		.loc 3 35 38
  72 005c 23340500 		sd	zero,8(a0)
  73 0060 23380500 		sd	zero,16(a0)
  74 0064 233C0500 		sd	zero,24(a0)
  75              	.LVL6:
  76              	.LBE34:
  77              	.LBE33:
  11:src/../h/semaphore.hpp ****         this->closed = false;
  78              		.loc 2 11 9 is_stmt 1
  11:src/../h/semaphore.hpp ****         this->closed = false;
  79              		.loc 2 11 21 is_stmt 0
  80 0068 23220500 		sw	zero,4(a0)
  12:src/../h/semaphore.hpp ****     }
  81              		.loc 2 12 9 is_stmt 1
  12:src/../h/semaphore.hpp ****     }
  82              		.loc 2 12 22 is_stmt 0
  83 006c 23000500 		sb	zero,0(a0)
  84              	.LVL7:
  85              	.LBE32:
  86              	.LBE31:
  87              		.loc 1 9 19
  88 0070 23B4A400 		sd	a0,8(s1)
  10:src/buffer.cpp ****     spaceAvailable = new Semaphore(cap);
  89              		.loc 1 10 5 is_stmt 1
  90              	.LVL8:
  91              	.LBB35:
  92              	.LBB36:
  93              		.loc 2 22 9
  94              		.loc 2 22 42 is_stmt 0
  95 0074 97000000 		call	_ZN15MemoryAllocator8instanceEv@plt
  95      E7800000 
  96              	.LVL9:
GAS LISTING /tmp/ccZKkPJb.s 			page 4


  97              		.loc 2 22 54
  98 007c 93050002 		li	a1,32
  99 0080 97000000 		call	_ZN15MemoryAllocator10kmem_allocEm@plt
  99      E7800000 
 100              	.LVL10:
 101              	.LBE36:
 102              	.LBE35:
 103              	.LBB37:
 104              	.LBB38:
 105              	.LBB39:
 106              	.LBB40:
 107              		.loc 3 35 38
 108 0088 23340500 		sd	zero,8(a0)
 109 008c 23380500 		sd	zero,16(a0)
 110 0090 233C0500 		sd	zero,24(a0)
 111              	.LVL11:
 112              	.LBE40:
 113              	.LBE39:
  11:src/../h/semaphore.hpp ****         this->closed = false;
 114              		.loc 2 11 9 is_stmt 1
  11:src/../h/semaphore.hpp ****         this->closed = false;
 115              		.loc 2 11 21 is_stmt 0
 116 0094 23222501 		sw	s2,4(a0)
  12:src/../h/semaphore.hpp ****     }
 117              		.loc 2 12 9 is_stmt 1
  12:src/../h/semaphore.hpp ****     }
 118              		.loc 2 12 22 is_stmt 0
 119 0098 23000500 		sb	zero,0(a0)
 120              	.LVL12:
 121              	.LBE38:
 122              	.LBE37:
 123              		.loc 1 10 20
 124 009c 23B8A400 		sd	a0,16(s1)
 125              	.LBE28:
  11:src/buffer.cpp **** }
 126              		.loc 1 11 1
 127 00a0 83308101 		ld	ra,24(sp)
 128              		.cfi_restore 1
 129 00a4 03340101 		ld	s0,16(sp)
 130              		.cfi_restore 8
 131              		.cfi_def_cfa 2, 32
 132 00a8 83348100 		ld	s1,8(sp)
 133              		.cfi_restore 9
 134              	.LVL13:
 135 00ac 03390100 		ld	s2,0(sp)
 136              		.cfi_restore 18
 137 00b0 13010102 		addi	sp,sp,32
 138              		.cfi_def_cfa_offset 0
 139 00b4 67800000 		jr	ra
 140              		.cfi_endproc
 141              	.LFE47:
 143              		.globl	_ZN6BufferC1Ei
 144              		.set	_ZN6BufferC1Ei,_ZN6BufferC2Ei
 145              		.align	2
 146              		.globl	_ZN6Buffer3putEc
 148              	_ZN6Buffer3putEc:
 149              	.LFB49:
GAS LISTING /tmp/ccZKkPJb.s 			page 5


  12:src/buffer.cpp **** 
  13:src/buffer.cpp **** void Buffer::put(char item)
  14:src/buffer.cpp **** {
 150              		.loc 1 14 1 is_stmt 1
 151              		.cfi_startproc
 152              	.LVL14:
 153 00b8 130101FE 		addi	sp,sp,-32
 154              		.cfi_def_cfa_offset 32
 155 00bc 233C1100 		sd	ra,24(sp)
 156 00c0 23388100 		sd	s0,16(sp)
 157 00c4 23349100 		sd	s1,8(sp)
 158 00c8 23302101 		sd	s2,0(sp)
 159              		.cfi_offset 1, -8
 160              		.cfi_offset 8, -16
 161              		.cfi_offset 9, -24
 162              		.cfi_offset 18, -32
 163 00cc 13040102 		addi	s0,sp,32
 164              		.cfi_def_cfa 8, 0
 165 00d0 93040500 		mv	s1,a0
 166 00d4 13890500 		mv	s2,a1
  15:src/buffer.cpp ****     spaceAvailable->kwait_n(1);
 167              		.loc 1 15 5
 168              		.loc 1 15 28 is_stmt 0
 169 00d8 93051000 		li	a1,1
 170              	.LVL15:
 171 00dc 03350501 		ld	a0,16(a0)
 172              	.LVL16:
 173 00e0 97000000 		call	_ZN9Semaphore7kwait_nEj@plt
 173      E7800000 
 174              	.LVL17:
  16:src/buffer.cpp ****     buff[head]=item;
 175              		.loc 1 16 5 is_stmt 1
 176 00e8 83B70402 		ld	a5,32(s1)
 177              		.loc 1 16 10 is_stmt 0
 178 00ec 03A78401 		lw	a4,24(s1)
 179              		.loc 1 16 14
 180 00f0 B387E700 		add	a5,a5,a4
 181              		.loc 1 16 15
 182 00f4 23802701 		sb	s2,0(a5)
  17:src/buffer.cpp ****     head = (head+1)%cap;
 183              		.loc 1 17 5 is_stmt 1
 184              		.loc 1 17 13 is_stmt 0
 185 00f8 83A78401 		lw	a5,24(s1)
 186              		.loc 1 17 17
 187 00fc 9B871700 		addiw	a5,a5,1
 188              		.loc 1 17 21
 189 0100 03A70400 		lw	a4,0(s1)
 190              		.loc 1 17 20
 191 0104 BBE7E702 		remw	a5,a5,a4
 192              		.loc 1 17 10
 193 0108 23ACF400 		sw	a5,24(s1)
  18:src/buffer.cpp ****     cnt++;
 194              		.loc 1 18 5 is_stmt 1
 195 010c 83A78402 		lw	a5,40(s1)
 196              		.loc 1 18 8 is_stmt 0
 197 0110 9B871700 		addiw	a5,a5,1
 198 0114 23A4F402 		sw	a5,40(s1)
GAS LISTING /tmp/ccZKkPJb.s 			page 6


  19:src/buffer.cpp ****     itemAvailable->ksignal_n(1);
 199              		.loc 1 19 5 is_stmt 1
 200              		.loc 1 19 29 is_stmt 0
 201 0118 93051000 		li	a1,1
 202 011c 03B58400 		ld	a0,8(s1)
 203 0120 97000000 		call	_ZN9Semaphore9ksignal_nEj@plt
 203      E7800000 
 204              	.LVL18:
  20:src/buffer.cpp **** }
 205              		.loc 1 20 1
 206 0128 83308101 		ld	ra,24(sp)
 207              		.cfi_restore 1
 208 012c 03340101 		ld	s0,16(sp)
 209              		.cfi_restore 8
 210              		.cfi_def_cfa 2, 32
 211 0130 83348100 		ld	s1,8(sp)
 212              		.cfi_restore 9
 213              	.LVL19:
 214 0134 03390100 		ld	s2,0(sp)
 215              		.cfi_restore 18
 216 0138 13010102 		addi	sp,sp,32
 217              		.cfi_def_cfa_offset 0
 218 013c 67800000 		jr	ra
 219              		.cfi_endproc
 220              	.LFE49:
 222              		.align	2
 223              		.globl	_ZN6Buffer3getEv
 225              	_ZN6Buffer3getEv:
 226              	.LFB50:
  21:src/buffer.cpp **** 
  22:src/buffer.cpp **** char Buffer::get()
  23:src/buffer.cpp **** {
 227              		.loc 1 23 1 is_stmt 1
 228              		.cfi_startproc
 229              	.LVL20:
 230 0140 130101FE 		addi	sp,sp,-32
 231              		.cfi_def_cfa_offset 32
 232 0144 233C1100 		sd	ra,24(sp)
 233 0148 23388100 		sd	s0,16(sp)
 234 014c 23349100 		sd	s1,8(sp)
 235 0150 23302101 		sd	s2,0(sp)
 236              		.cfi_offset 1, -8
 237              		.cfi_offset 8, -16
 238              		.cfi_offset 9, -24
 239              		.cfi_offset 18, -32
 240 0154 13040102 		addi	s0,sp,32
 241              		.cfi_def_cfa 8, 0
 242 0158 93040500 		mv	s1,a0
  24:src/buffer.cpp ****     itemAvailable->kwait_n(1);
 243              		.loc 1 24 5
 244              		.loc 1 24 27 is_stmt 0
 245 015c 93051000 		li	a1,1
 246 0160 03358500 		ld	a0,8(a0)
 247              	.LVL21:
 248 0164 97000000 		call	_ZN9Semaphore7kwait_nEj@plt
 248      E7800000 
 249              	.LVL22:
GAS LISTING /tmp/ccZKkPJb.s 			page 7


  25:src/buffer.cpp ****     char ret = buff[tail];
 250              		.loc 1 25 5 is_stmt 1
 251              		.loc 1 25 16 is_stmt 0
 252 016c 03B70402 		ld	a4,32(s1)
 253              		.loc 1 25 21
 254 0170 83A7C401 		lw	a5,28(s1)
 255              		.loc 1 25 25
 256 0174 3307F700 		add	a4,a4,a5
 257              		.loc 1 25 10
 258 0178 03490700 		lbu	s2,0(a4)
 259              	.LVL23:
  26:src/buffer.cpp ****     tail = (tail+1)%cap;
 260              		.loc 1 26 5 is_stmt 1
 261              		.loc 1 26 17 is_stmt 0
 262 017c 9B871700 		addiw	a5,a5,1
 263              		.loc 1 26 21
 264 0180 03A70400 		lw	a4,0(s1)
 265              		.loc 1 26 20
 266 0184 BBE7E702 		remw	a5,a5,a4
 267              		.loc 1 26 10
 268 0188 23AEF400 		sw	a5,28(s1)
  27:src/buffer.cpp ****     cnt--;
 269              		.loc 1 27 5 is_stmt 1
 270 018c 83A78402 		lw	a5,40(s1)
 271              		.loc 1 27 8 is_stmt 0
 272 0190 9B87F7FF 		addiw	a5,a5,-1
 273 0194 23A4F402 		sw	a5,40(s1)
  28:src/buffer.cpp ****     spaceAvailable->ksignal_n(1);
 274              		.loc 1 28 5 is_stmt 1
 275              		.loc 1 28 30 is_stmt 0
 276 0198 93051000 		li	a1,1
 277 019c 03B50401 		ld	a0,16(s1)
 278 01a0 97000000 		call	_ZN9Semaphore9ksignal_nEj@plt
 278      E7800000 
 279              	.LVL24:
  29:src/buffer.cpp ****     return ret;
 280              		.loc 1 29 5 is_stmt 1
  30:src/buffer.cpp **** }
 281              		.loc 1 30 1 is_stmt 0
 282 01a8 13050900 		mv	a0,s2
 283 01ac 83308101 		ld	ra,24(sp)
 284              		.cfi_restore 1
 285 01b0 03340101 		ld	s0,16(sp)
 286              		.cfi_restore 8
 287              		.cfi_def_cfa 2, 32
 288 01b4 83348100 		ld	s1,8(sp)
 289              		.cfi_restore 9
 290              	.LVL25:
 291 01b8 03390100 		ld	s2,0(sp)
 292              		.cfi_restore 18
 293              	.LVL26:
 294 01bc 13010102 		addi	sp,sp,32
 295              		.cfi_def_cfa_offset 0
 296 01c0 67800000 		jr	ra
 297              		.cfi_endproc
 298              	.LFE50:
 300              		.align	2
GAS LISTING /tmp/ccZKkPJb.s 			page 8


 301              		.globl	_ZN6BufferD2Ev
 303              	_ZN6BufferD2Ev:
 304              	.LFB52:
  31:src/buffer.cpp **** 
  32:src/buffer.cpp **** Buffer::~Buffer()
 305              		.loc 1 32 1 is_stmt 1
 306              		.cfi_startproc
 307              		.cfi_personality 0x9b,DW.ref.__gxx_personality_v0
 308              		.cfi_lsda 0x1b,.LLSDA52
 309              	.LVL27:
 310 01c4 130101FE 		addi	sp,sp,-32
 311              		.cfi_def_cfa_offset 32
 312 01c8 233C1100 		sd	ra,24(sp)
 313 01cc 23388100 		sd	s0,16(sp)
 314 01d0 23349100 		sd	s1,8(sp)
 315 01d4 23302101 		sd	s2,0(sp)
 316              		.cfi_offset 1, -8
 317              		.cfi_offset 8, -16
 318              		.cfi_offset 9, -24
 319              		.cfi_offset 18, -32
 320 01d8 13040102 		addi	s0,sp,32
 321              		.cfi_def_cfa 8, 0
 322 01dc 93040500 		mv	s1,a0
 323              	.LBB41:
  33:src/buffer.cpp **** {
  34:src/buffer.cpp ****     MemoryAllocator::instance().kmem_free(buff);
 324              		.loc 1 34 5
 325              		.loc 1 34 31 is_stmt 0
 326 01e0 97000000 		call	_ZN15MemoryAllocator8instanceEv@plt
 326      E7800000 
 327              	.LVL28:
 328              		.loc 1 34 42
 329 01e8 83B50402 		ld	a1,32(s1)
 330 01ec 97000000 		call	_ZN15MemoryAllocator9kmem_freeEPv@plt
 330      E7800000 
 331              	.LVL29:
  35:src/buffer.cpp ****     delete itemAvailable;
 332              		.loc 1 35 5 is_stmt 1
 333              		.loc 1 35 12 is_stmt 0
 334 01f4 03B98400 		ld	s2,8(s1)
 335              		.loc 1 35 25
 336 01f8 630C0900 		beqz	s2,.L8
 337              	.LVL30:
 338              	.LBB42:
 339              	.LBB43:
  23:src/../h/semaphore.hpp ****     }
  24:src/../h/semaphore.hpp ****     void* operator new[](size_t size) {
  25:src/../h/semaphore.hpp ****         return MemoryAllocator::instance().kmem_alloc(size);
  26:src/../h/semaphore.hpp ****     }
  27:src/../h/semaphore.hpp ****     
  28:src/../h/semaphore.hpp ****     void operator delete(void *ptr) {
  29:src/../h/semaphore.hpp ****         MemoryAllocator::instance().kmem_free(ptr);
 340              		.loc 2 29 9 is_stmt 1 discriminator 1
 341              		.loc 2 29 35 is_stmt 0 discriminator 1
 342 01fc 97000000 		call	_ZN15MemoryAllocator8instanceEv@plt
 342      E7800000 
 343              	.LVL31:
GAS LISTING /tmp/ccZKkPJb.s 			page 9


 344              		.loc 2 29 46 discriminator 1
 345 0204 93050900 		mv	a1,s2
 346 0208 97000000 		call	_ZN15MemoryAllocator9kmem_freeEPv@plt
 346      E7800000 
 347              	.LVL32:
 348              	.L8:
 349              	.LBE43:
 350              	.LBE42:
  36:src/buffer.cpp ****     delete spaceAvailable;
 351              		.loc 1 36 5 is_stmt 1
 352              		.loc 1 36 12 is_stmt 0
 353 0210 83B40401 		ld	s1,16(s1)
 354              	.LVL33:
 355              		.loc 1 36 26
 356 0214 638C0400 		beqz	s1,.L7
 357              	.LVL34:
 358              	.LBB44:
 359              	.LBB45:
 360              		.loc 2 29 9 is_stmt 1 discriminator 1
 361              		.loc 2 29 35 is_stmt 0 discriminator 1
 362 0218 97000000 		call	_ZN15MemoryAllocator8instanceEv@plt
 362      E7800000 
 363              	.LVL35:
 364              		.loc 2 29 46 discriminator 1
 365 0220 93850400 		mv	a1,s1
 366 0224 97000000 		call	_ZN15MemoryAllocator9kmem_freeEPv@plt
 366      E7800000 
 367              	.LVL36:
 368              	.L7:
 369              	.LBE45:
 370              	.LBE44:
 371              	.LBE41:
  37:src/buffer.cpp **** }...
 372              		.loc 1 37 1
 373 022c 83308101 		ld	ra,24(sp)
 374              		.cfi_restore 1
 375 0230 03340101 		ld	s0,16(sp)
 376              		.cfi_restore 8
 377              		.cfi_def_cfa 2, 32
 378 0234 83348100 		ld	s1,8(sp)
 379              		.cfi_restore 9
 380 0238 03390100 		ld	s2,0(sp)
 381              		.cfi_restore 18
 382 023c 13010102 		addi	sp,sp,32
 383              		.cfi_def_cfa_offset 0
 384 0240 67800000 		jr	ra
 385              		.cfi_endproc
 386              	.LFE52:
 387              		.globl	__gxx_personality_v0
 388              		.section	.gcc_except_table,"a",@progbits
 389              	.LLSDA52:
 390 0000 FF       		.byte	0xff
 391 0001 FF       		.byte	0xff
 392 0002 03       		.byte	0x3
 393 0003 00       		.byte	0
 394              		.text
 396              		.globl	_ZN6BufferD1Ev
GAS LISTING /tmp/ccZKkPJb.s 			page 10


 397              		.set	_ZN6BufferD1Ev,_ZN6BufferD2Ev
 398              	.Letext0:
 399              		.file 4 "src/../h/../lib/hw.h"
 400              		.file 5 "src/../h/memory_allocator.hpp"
 401              		.file 6 "src/../h/tcb.hpp"
 402              		.file 7 "src/../h/buffer.hpp"
 4040              		.align	3
 4043              	DW.ref.__gxx_personality_v0:
 4044 0000 00000000 		.dword	__gxx_personality_v0
 4044      00000000 
 4045              		.ident	"GCC: (Ubuntu 9.4.0-1ubuntu1~20.04) 9.4.0"
 4046              		.section	.note.GNU-stack,"",@progbits
GAS LISTING /tmp/ccZKkPJb.s 			page 11


DEFINED SYMBOLS
                            *ABS*:0000000000000000 buffer.cpp
     /tmp/ccZKkPJb.s:9      .text:0000000000000000 _ZN6BufferC2Ei
     /tmp/ccZKkPJb.s:13     .text:0000000000000000 .L0 
     /tmp/ccZKkPJb.s:15     .text:0000000000000000 .L0 
     /tmp/ccZKkPJb.s:16     .text:0000000000000004 .L0 
     /tmp/ccZKkPJb.s:21     .text:0000000000000014 .L0 
     /tmp/ccZKkPJb.s:22     .text:0000000000000014 .L0 
     /tmp/ccZKkPJb.s:23     .text:0000000000000014 .L0 
     /tmp/ccZKkPJb.s:24     .text:0000000000000014 .L0 
     /tmp/ccZKkPJb.s:26     .text:0000000000000018 .L0 
     /tmp/ccZKkPJb.s:31     .text:0000000000000020 .L0 
     /tmp/ccZKkPJb.s:32     .text:0000000000000020 .L0 
     /tmp/ccZKkPJb.s:34     .text:0000000000000024 .L0 
     /tmp/ccZKkPJb.s:35     .text:0000000000000024 .L0 
     /tmp/ccZKkPJb.s:37     .text:0000000000000028 .L0 
     /tmp/ccZKkPJb.s:39     .text:000000000000002c .L0 
     /tmp/ccZKkPJb.s:40     .text:000000000000002c .L0 
     /tmp/ccZKkPJb.s:42     .text:0000000000000030 .L0 
     /tmp/ccZKkPJb.s:43     .text:0000000000000030 .L0 
     /tmp/ccZKkPJb.s:46     .text:0000000000000038 .L0 
     /tmp/ccZKkPJb.s:50     .text:0000000000000044 .L0 
     /tmp/ccZKkPJb.s:56     .text:0000000000000048 .L0 
     /tmp/ccZKkPJb.s:57     .text:0000000000000048 .L0 
     /tmp/ccZKkPJb.s:58     .text:0000000000000048 .L0 
     /tmp/ccZKkPJb.s:61     .text:0000000000000050 .L0 
     /tmp/ccZKkPJb.s:72     .text:000000000000005c .L0 
     /tmp/ccZKkPJb.s:79     .text:0000000000000068 .L0 
     /tmp/ccZKkPJb.s:80     .text:0000000000000068 .L0 
     /tmp/ccZKkPJb.s:82     .text:000000000000006c .L0 
     /tmp/ccZKkPJb.s:83     .text:000000000000006c .L0 
     /tmp/ccZKkPJb.s:88     .text:0000000000000070 .L0 
     /tmp/ccZKkPJb.s:93     .text:0000000000000074 .L0 
     /tmp/ccZKkPJb.s:94     .text:0000000000000074 .L0 
     /tmp/ccZKkPJb.s:95     .text:0000000000000074 .L0 
     /tmp/ccZKkPJb.s:98     .text:000000000000007c .L0 
     /tmp/ccZKkPJb.s:108    .text:0000000000000088 .L0 
     /tmp/ccZKkPJb.s:115    .text:0000000000000094 .L0 
     /tmp/ccZKkPJb.s:116    .text:0000000000000094 .L0 
     /tmp/ccZKkPJb.s:118    .text:0000000000000098 .L0 
     /tmp/ccZKkPJb.s:119    .text:0000000000000098 .L0 
     /tmp/ccZKkPJb.s:124    .text:000000000000009c .L0 
     /tmp/ccZKkPJb.s:127    .text:00000000000000a0 .L0 
     /tmp/ccZKkPJb.s:128    .text:00000000000000a4 .L0 
     /tmp/ccZKkPJb.s:130    .text:00000000000000a8 .L0 
     /tmp/ccZKkPJb.s:131    .text:00000000000000a8 .L0 
     /tmp/ccZKkPJb.s:133    .text:00000000000000ac .L0 
     /tmp/ccZKkPJb.s:136    .text:00000000000000b0 .L0 
     /tmp/ccZKkPJb.s:138    .text:00000000000000b4 .L0 
     /tmp/ccZKkPJb.s:140    .text:00000000000000b8 .L0 
     /tmp/ccZKkPJb.s:9      .text:0000000000000000 _ZN6BufferC1Ei
     /tmp/ccZKkPJb.s:148    .text:00000000000000b8 _ZN6Buffer3putEc
     /tmp/ccZKkPJb.s:151    .text:00000000000000b8 .L0 
     /tmp/ccZKkPJb.s:153    .text:00000000000000b8 .L0 
     /tmp/ccZKkPJb.s:154    .text:00000000000000bc .L0 
     /tmp/ccZKkPJb.s:159    .text:00000000000000cc .L0 
     /tmp/ccZKkPJb.s:160    .text:00000000000000cc .L0 
GAS LISTING /tmp/ccZKkPJb.s 			page 12


     /tmp/ccZKkPJb.s:161    .text:00000000000000cc .L0 
     /tmp/ccZKkPJb.s:162    .text:00000000000000cc .L0 
     /tmp/ccZKkPJb.s:164    .text:00000000000000d0 .L0 
     /tmp/ccZKkPJb.s:168    .text:00000000000000d8 .L0 
     /tmp/ccZKkPJb.s:169    .text:00000000000000d8 .L0 
     /tmp/ccZKkPJb.s:176    .text:00000000000000e8 .L0 
     /tmp/ccZKkPJb.s:178    .text:00000000000000ec .L0 
     /tmp/ccZKkPJb.s:180    .text:00000000000000f0 .L0 
     /tmp/ccZKkPJb.s:182    .text:00000000000000f4 .L0 
     /tmp/ccZKkPJb.s:184    .text:00000000000000f8 .L0 
     /tmp/ccZKkPJb.s:185    .text:00000000000000f8 .L0 
     /tmp/ccZKkPJb.s:187    .text:00000000000000fc .L0 
     /tmp/ccZKkPJb.s:189    .text:0000000000000100 .L0 
     /tmp/ccZKkPJb.s:191    .text:0000000000000104 .L0 
     /tmp/ccZKkPJb.s:193    .text:0000000000000108 .L0 
     /tmp/ccZKkPJb.s:195    .text:000000000000010c .L0 
     /tmp/ccZKkPJb.s:197    .text:0000000000000110 .L0 
     /tmp/ccZKkPJb.s:200    .text:0000000000000118 .L0 
     /tmp/ccZKkPJb.s:201    .text:0000000000000118 .L0 
     /tmp/ccZKkPJb.s:206    .text:0000000000000128 .L0 
     /tmp/ccZKkPJb.s:207    .text:000000000000012c .L0 
     /tmp/ccZKkPJb.s:209    .text:0000000000000130 .L0 
     /tmp/ccZKkPJb.s:210    .text:0000000000000130 .L0 
     /tmp/ccZKkPJb.s:212    .text:0000000000000134 .L0 
     /tmp/ccZKkPJb.s:215    .text:0000000000000138 .L0 
     /tmp/ccZKkPJb.s:217    .text:000000000000013c .L0 
     /tmp/ccZKkPJb.s:219    .text:0000000000000140 .L0 
     /tmp/ccZKkPJb.s:225    .text:0000000000000140 _ZN6Buffer3getEv
     /tmp/ccZKkPJb.s:228    .text:0000000000000140 .L0 
     /tmp/ccZKkPJb.s:230    .text:0000000000000140 .L0 
     /tmp/ccZKkPJb.s:231    .text:0000000000000144 .L0 
     /tmp/ccZKkPJb.s:236    .text:0000000000000154 .L0 
     /tmp/ccZKkPJb.s:237    .text:0000000000000154 .L0 
     /tmp/ccZKkPJb.s:238    .text:0000000000000154 .L0 
     /tmp/ccZKkPJb.s:239    .text:0000000000000154 .L0 
     /tmp/ccZKkPJb.s:241    .text:0000000000000158 .L0 
     /tmp/ccZKkPJb.s:244    .text:000000000000015c .L0 
     /tmp/ccZKkPJb.s:245    .text:000000000000015c .L0 
     /tmp/ccZKkPJb.s:251    .text:000000000000016c .L0 
     /tmp/ccZKkPJb.s:252    .text:000000000000016c .L0 
     /tmp/ccZKkPJb.s:254    .text:0000000000000170 .L0 
     /tmp/ccZKkPJb.s:256    .text:0000000000000174 .L0 
     /tmp/ccZKkPJb.s:258    .text:0000000000000178 .L0 
     /tmp/ccZKkPJb.s:261    .text:000000000000017c .L0 
     /tmp/ccZKkPJb.s:262    .text:000000000000017c .L0 
     /tmp/ccZKkPJb.s:264    .text:0000000000000180 .L0 
     /tmp/ccZKkPJb.s:266    .text:0000000000000184 .L0 
     /tmp/ccZKkPJb.s:268    .text:0000000000000188 .L0 
     /tmp/ccZKkPJb.s:270    .text:000000000000018c .L0 
     /tmp/ccZKkPJb.s:272    .text:0000000000000190 .L0 
     /tmp/ccZKkPJb.s:275    .text:0000000000000198 .L0 
     /tmp/ccZKkPJb.s:276    .text:0000000000000198 .L0 
     /tmp/ccZKkPJb.s:281    .text:00000000000001a8 .L0 
     /tmp/ccZKkPJb.s:282    .text:00000000000001a8 .L0 
     /tmp/ccZKkPJb.s:284    .text:00000000000001b0 .L0 
     /tmp/ccZKkPJb.s:286    .text:00000000000001b4 .L0 
     /tmp/ccZKkPJb.s:287    .text:00000000000001b4 .L0 
GAS LISTING /tmp/ccZKkPJb.s 			page 13


     /tmp/ccZKkPJb.s:289    .text:00000000000001b8 .L0 
     /tmp/ccZKkPJb.s:292    .text:00000000000001bc .L0 
     /tmp/ccZKkPJb.s:295    .text:00000000000001c0 .L0 
     /tmp/ccZKkPJb.s:297    .text:00000000000001c4 .L0 
     /tmp/ccZKkPJb.s:303    .text:00000000000001c4 _ZN6BufferD2Ev
     /tmp/ccZKkPJb.s:306    .text:00000000000001c4 .L0 
     /tmp/ccZKkPJb.s:4043   .data.rel.local.DW.ref.__gxx_personality_v0:0000000000000000 DW.ref.__gxx_personality_v0
     /tmp/ccZKkPJb.s:310    .text:00000000000001c4 .L0 
     /tmp/ccZKkPJb.s:311    .text:00000000000001c8 .L0 
     /tmp/ccZKkPJb.s:316    .text:00000000000001d8 .L0 
     /tmp/ccZKkPJb.s:317    .text:00000000000001d8 .L0 
     /tmp/ccZKkPJb.s:318    .text:00000000000001d8 .L0 
     /tmp/ccZKkPJb.s:319    .text:00000000000001d8 .L0 
     /tmp/ccZKkPJb.s:321    .text:00000000000001dc .L0 
     /tmp/ccZKkPJb.s:325    .text:00000000000001e0 .L0 
     /tmp/ccZKkPJb.s:326    .text:00000000000001e0 .L0 
     /tmp/ccZKkPJb.s:329    .text:00000000000001e8 .L0 
     /tmp/ccZKkPJb.s:333    .text:00000000000001f4 .L0 
     /tmp/ccZKkPJb.s:334    .text:00000000000001f4 .L0 
     /tmp/ccZKkPJb.s:336    .text:00000000000001f8 .L0 
     /tmp/ccZKkPJb.s:341    .text:00000000000001fc .L0 
     /tmp/ccZKkPJb.s:342    .text:00000000000001fc .L0 
     /tmp/ccZKkPJb.s:345    .text:0000000000000204 .L0 
     /tmp/ccZKkPJb.s:352    .text:0000000000000210 .L0 
     /tmp/ccZKkPJb.s:353    .text:0000000000000210 .L0 
     /tmp/ccZKkPJb.s:356    .text:0000000000000214 .L0 
     /tmp/ccZKkPJb.s:361    .text:0000000000000218 .L0 
     /tmp/ccZKkPJb.s:362    .text:0000000000000218 .L0 
     /tmp/ccZKkPJb.s:365    .text:0000000000000220 .L0 
     /tmp/ccZKkPJb.s:373    .text:000000000000022c .L0 
     /tmp/ccZKkPJb.s:374    .text:0000000000000230 .L0 
     /tmp/ccZKkPJb.s:376    .text:0000000000000234 .L0 
     /tmp/ccZKkPJb.s:377    .text:0000000000000234 .L0 
     /tmp/ccZKkPJb.s:379    .text:0000000000000238 .L0 
     /tmp/ccZKkPJb.s:381    .text:000000000000023c .L0 
     /tmp/ccZKkPJb.s:383    .text:0000000000000240 .L0 
     /tmp/ccZKkPJb.s:385    .text:0000000000000244 .L0 
     /tmp/ccZKkPJb.s:303    .text:00000000000001c4 _ZN6BufferD1Ev
     /tmp/ccZKkPJb.s:403    .text:0000000000000244 .L0 
     /tmp/ccZKkPJb.s:348    .text:0000000000000210 .L8
     /tmp/ccZKkPJb.s:368    .text:000000000000022c .L7
     /tmp/ccZKkPJb.s:2293   .debug_abbrev:0000000000000000 .Ldebug_abbrev0
     /tmp/ccZKkPJb.s:3947   .debug_str:0000000000000913 .LASF172
     /tmp/ccZKkPJb.s:3825   .debug_str:00000000000005c3 .LASF173
     /tmp/ccZKkPJb.s:3789   .debug_str:000000000000046f .LASF174
     /tmp/ccZKkPJb.s:5      .text:0000000000000000 .Ltext0
     /tmp/ccZKkPJb.s:398    .text:0000000000000244 .Letext0
     /tmp/ccZKkPJb.s:3665   .debug_line:0000000000000000 .Ldebug_line0
     /tmp/ccZKkPJb.s:3787   .debug_str:0000000000000462 .LASF0
     /tmp/ccZKkPJb.s:3811   .debug_str:0000000000000558 .LASF1
     /tmp/ccZKkPJb.s:3883   .debug_str:0000000000000761 .LASF2
     /tmp/ccZKkPJb.s:3775   .debug_str:0000000000000420 .LASF3
     /tmp/ccZKkPJb.s:3893   .debug_str:00000000000007a5 .LASF4
     /tmp/ccZKkPJb.s:3793   .debug_str:00000000000004a7 .LASF5
     /tmp/ccZKkPJb.s:3687   .debug_str:00000000000000d4 .LASF6
     /tmp/ccZKkPJb.s:3865   .debug_str:00000000000006c5 .LASF7
     /tmp/ccZKkPJb.s:3863   .debug_str:00000000000006b2 .LASF8
GAS LISTING /tmp/ccZKkPJb.s 			page 14


     /tmp/ccZKkPJb.s:3801   .debug_str:00000000000004fc .LASF9
     /tmp/ccZKkPJb.s:3773   .debug_str:0000000000000410 .LASF10
     /tmp/ccZKkPJb.s:3779   .debug_str:0000000000000433 .LASF11
     /tmp/ccZKkPJb.s:3727   .debug_str:00000000000002ba .LASF12
     /tmp/ccZKkPJb.s:3763   .debug_str:00000000000003cd .LASF13
     /tmp/ccZKkPJb.s:3739   .debug_str:0000000000000302 .LASF14
     /tmp/ccZKkPJb.s:3725   .debug_str:00000000000002aa .LASF15
     /tmp/ccZKkPJb.s:3923   .debug_str:0000000000000869 .LASF16
     /tmp/ccZKkPJb.s:3755   .debug_str:000000000000036f .LASF17
     /tmp/ccZKkPJb.s:3915   .debug_str:000000000000082e .LASF18
     /tmp/ccZKkPJb.s:3859   .debug_str:0000000000000696 .LASF28
     /tmp/ccZKkPJb.s:3783   .debug_str:0000000000000450 .LASF60
     /tmp/ccZKkPJb.s:3901   .debug_str:00000000000007d8 .LASF19
     /tmp/ccZKkPJb.s:3809   .debug_str:0000000000000553 .LASF20
     /tmp/ccZKkPJb.s:3695   .debug_str:0000000000000110 .LASF21
     /tmp/ccZKkPJb.s:3729   .debug_str:00000000000002c9 .LASF22
     /tmp/ccZKkPJb.s:3967   .debug_str:0000000000000a5e .LASF23
     /tmp/ccZKkPJb.s:3737   .debug_str:00000000000002f9 .LASF175
     /tmp/ccZKkPJb.s:3995   .debug_str:0000000000000b5e .LASF176
     /tmp/ccZKkPJb.s:3925   .debug_str:0000000000000875 .LASF24
     /tmp/ccZKkPJb.s:3719   .debug_str:0000000000000217 .LASF26
     /tmp/ccZKkPJb.s:3977   .debug_str:0000000000000a9b .LASF25
     /tmp/ccZKkPJb.s:3757   .debug_str:0000000000000385 .LASF27
     /tmp/ccZKkPJb.s:3693   .debug_str:00000000000000f7 .LASF30
     /tmp/ccZKkPJb.s:3839   .debug_str:000000000000060f .LASF29
     /tmp/ccZKkPJb.s:4021   .debug_str:0000000000000c85 .LASF31
     /tmp/ccZKkPJb.s:3797   .debug_str:00000000000004c3 .LASF32
     /tmp/ccZKkPJb.s:3887   .debug_str:000000000000077c .LASF33
     /tmp/ccZKkPJb.s:3983   .debug_str:0000000000000ab4 .LASF34
     /tmp/ccZKkPJb.s:3957   .debug_str:0000000000000a08 .LASF35
     /tmp/ccZKkPJb.s:4013   .debug_str:0000000000000c3e .LASF37
     /tmp/ccZKkPJb.s:4019   .debug_str:0000000000000c7c .LASF36
     /tmp/ccZKkPJb.s:3867   .debug_str:00000000000006cc .LASF38
     /tmp/ccZKkPJb.s:3919   .debug_str:0000000000000857 .LASF39
     /tmp/ccZKkPJb.s:3951   .debug_str:00000000000009eb .LASF113
     /tmp/ccZKkPJb.s:3823   .debug_str:00000000000005be .LASF40
     /tmp/ccZKkPJb.s:3997   .debug_str:0000000000000b7e .LASF41
     /tmp/ccZKkPJb.s:3979   .debug_str:0000000000000aa5 .LASF139
     /tmp/ccZKkPJb.s:3843   .debug_str:0000000000000637 .LASF42
     /tmp/ccZKkPJb.s:3835   .debug_str:00000000000005ff .LASF43
     /tmp/ccZKkPJb.s:3917   .debug_str:0000000000000844 .LASF44
     /tmp/ccZKkPJb.s:3761   .debug_str:00000000000003b6 .LASF45
     /tmp/ccZKkPJb.s:3875   .debug_str:0000000000000728 .LASF142
     /tmp/ccZKkPJb.s:3807   .debug_str:000000000000054a .LASF46
     /tmp/ccZKkPJb.s:3715   .debug_str:00000000000001e5 .LASF47
     /tmp/ccZKkPJb.s:3819   .debug_str:00000000000005a0 .LASF48
     /tmp/ccZKkPJb.s:3791   .debug_str:000000000000048b .LASF49
     /tmp/ccZKkPJb.s:3861   .debug_str:00000000000006a6 .LASF50
     /tmp/ccZKkPJb.s:3999   .debug_str:0000000000000b88 .LASF51
     /tmp/ccZKkPJb.s:4035   .debug_str:0000000000000d3a .LASF52
     /tmp/ccZKkPJb.s:4027   .debug_str:0000000000000cc6 .LASF53
     /tmp/ccZKkPJb.s:3907   .debug_str:00000000000007f7 .LASF54
     /tmp/ccZKkPJb.s:3799   .debug_str:00000000000004df .LASF55
     /tmp/ccZKkPJb.s:3873   .debug_str:000000000000071f .LASF56
     /tmp/ccZKkPJb.s:3679   .debug_str:000000000000007c .LASF57
     /tmp/ccZKkPJb.s:3903   .debug_str:00000000000007de .LASF58
     /tmp/ccZKkPJb.s:3871   .debug_str:0000000000000706 .LASF59
GAS LISTING /tmp/ccZKkPJb.s 			page 15


     /tmp/ccZKkPJb.s:3929   .debug_str:0000000000000889 .LASF61
     /tmp/ccZKkPJb.s:3895   .debug_str:00000000000007ac .LASF62
     /tmp/ccZKkPJb.s:3683   .debug_str:00000000000000be .LASF63
     /tmp/ccZKkPJb.s:3931   .debug_str:0000000000000891 .LASF64
     /tmp/ccZKkPJb.s:3841   .debug_str:0000000000000620 .LASF65
     /tmp/ccZKkPJb.s:3707   .debug_str:00000000000001b7 .LASF66
     /tmp/ccZKkPJb.s:3969   .debug_str:0000000000000a63 .LASF67
     /tmp/ccZKkPJb.s:4009   .debug_str:0000000000000c25 .LASF68
     /tmp/ccZKkPJb.s:3717   .debug_str:0000000000000202 .LASF69
     /tmp/ccZKkPJb.s:3935   .debug_str:00000000000008d2 .LASF70
     /tmp/ccZKkPJb.s:3689   .debug_str:00000000000000db .LASF71
     /tmp/ccZKkPJb.s:3963   .debug_str:0000000000000a4a .LASF72
     /tmp/ccZKkPJb.s:3857   .debug_str:000000000000067f .LASF73
     /tmp/ccZKkPJb.s:3837   .debug_str:0000000000000604 .LASF74
     /tmp/ccZKkPJb.s:3821   .debug_str:00000000000005a8 .LASF75
     /tmp/ccZKkPJb.s:3869   .debug_str:00000000000006fd .LASF76
     /tmp/ccZKkPJb.s:3909   .debug_str:0000000000000802 .LASF77
     /tmp/ccZKkPJb.s:3921   .debug_str:000000000000085c .LASF78
     /tmp/ccZKkPJb.s:3985   .debug_str:0000000000000ad0 .LASF79
     /tmp/ccZKkPJb.s:3855   .debug_str:000000000000067a .LASF177
     /tmp/ccZKkPJb.s:3813   .debug_str:000000000000056b .LASF82
     /tmp/ccZKkPJb.s:3953   .debug_str:00000000000009f1 .LASF84
     /tmp/ccZKkPJb.s:3877   .debug_str:000000000000073f .LASF80
     /tmp/ccZKkPJb.s:3897   .debug_str:00000000000007b1 .LASF81
     /tmp/ccZKkPJb.s:3833   .debug_str:00000000000005f5 .LASF83
     /tmp/ccZKkPJb.s:3889   .debug_str:0000000000000786 .LASF85
     /tmp/ccZKkPJb.s:3945   .debug_str:000000000000090b .LASF86
     /tmp/ccZKkPJb.s:4025   .debug_str:0000000000000cb6 .LASF87
     /tmp/ccZKkPJb.s:4031   .debug_str:0000000000000d19 .LASF88
     /tmp/ccZKkPJb.s:3777   .debug_str:0000000000000427 .LASF89
     /tmp/ccZKkPJb.s:3829   .debug_str:00000000000005d7 .LASF90
     /tmp/ccZKkPJb.s:3769   .debug_str:00000000000003f2 .LASF91
     /tmp/ccZKkPJb.s:3677   .debug_str:000000000000006c .LASF92
     /tmp/ccZKkPJb.s:3847   .debug_str:0000000000000641 .LASF93
     /tmp/ccZKkPJb.s:3913   .debug_str:000000000000081b .LASF94
     /tmp/ccZKkPJb.s:3885   .debug_str:000000000000076f .LASF95
     /tmp/ccZKkPJb.s:3949   .debug_str:00000000000009d7 .LASF178
     /tmp/ccZKkPJb.s:3675   .debug_str:0000000000000067 .LASF96
     /tmp/ccZKkPJb.s:3911   .debug_str:0000000000000815 .LASF97
     /tmp/ccZKkPJb.s:3965   .debug_str:0000000000000a56 .LASF98
     /tmp/ccZKkPJb.s:3927   .debug_str:0000000000000880 .LASF99
     /tmp/ccZKkPJb.s:3849   .debug_str:000000000000064e .LASF100
     /tmp/ccZKkPJb.s:3961   .debug_str:0000000000000a40 .LASF101
     /tmp/ccZKkPJb.s:3955   .debug_str:0000000000000a01 .LASF102
     /tmp/ccZKkPJb.s:3713   .debug_str:00000000000001d7 .LASF107
     /tmp/ccZKkPJb.s:3815   .debug_str:0000000000000571 .LASF109
     /tmp/ccZKkPJb.s:3745   .debug_str:000000000000032a .LASF103
     /tmp/ccZKkPJb.s:3681   .debug_str:0000000000000096 .LASF105
     /tmp/ccZKkPJb.s:3941   .debug_str:00000000000008f4 .LASF104
     /tmp/ccZKkPJb.s:3765   .debug_str:00000000000003dc .LASF106
     /tmp/ccZKkPJb.s:3747   .debug_str:0000000000000338 .LASF108
     /tmp/ccZKkPJb.s:3733   .debug_str:00000000000002e0 .LASF110
     /tmp/ccZKkPJb.s:3699   .debug_str:0000000000000147 .LASF111
     /tmp/ccZKkPJb.s:3817   .debug_str:000000000000058a .LASF112
     /tmp/ccZKkPJb.s:3905   .debug_str:00000000000007e6 .LASF179
     /tmp/ccZKkPJb.s:3891   .debug_str:000000000000079a .LASF114
     /tmp/ccZKkPJb.s:4017   .debug_str:0000000000000c71 .LASF115
GAS LISTING /tmp/ccZKkPJb.s 			page 16


     /tmp/ccZKkPJb.s:3981   .debug_str:0000000000000aaa .LASF116
     /tmp/ccZKkPJb.s:3943   .debug_str:00000000000008f9 .LASF117
     /tmp/ccZKkPJb.s:3879   .debug_str:000000000000074a .LASF118
     /tmp/ccZKkPJb.s:3971   .debug_str:0000000000000a7a .LASF119
     /tmp/ccZKkPJb.s:3989   .debug_str:0000000000000af8 .LASF120
     /tmp/ccZKkPJb.s:3939   .debug_str:00000000000008e2 .LASF121
     /tmp/ccZKkPJb.s:3975   .debug_str:0000000000000a93 .LASF122
     /tmp/ccZKkPJb.s:4023   .debug_str:0000000000000c9e .LASF123
     /tmp/ccZKkPJb.s:3795   .debug_str:00000000000004b9 .LASF124
     /tmp/ccZKkPJb.s:3705   .debug_str:000000000000019d .LASF125
     /tmp/ccZKkPJb.s:3881   .debug_str:0000000000000751 .LASF126
     /tmp/ccZKkPJb.s:3805   .debug_str:0000000000000529 .LASF127
     /tmp/ccZKkPJb.s:3751   .debug_str:0000000000000357 .LASF128
     /tmp/ccZKkPJb.s:3803   .debug_str:000000000000050f .LASF129
     /tmp/ccZKkPJb.s:3691   .debug_str:00000000000000f1 .LASF130
     /tmp/ccZKkPJb.s:3749   .debug_str:0000000000000341 .LASF131
     /tmp/ccZKkPJb.s:4015   .debug_str:0000000000000c5f .LASF132
     /tmp/ccZKkPJb.s:4005   .debug_str:0000000000000be1 .LASF133
     /tmp/ccZKkPJb.s:3743   .debug_str:0000000000000317 .LASF134
     /tmp/ccZKkPJb.s:3701   .debug_str:0000000000000152 .LASF135
     /tmp/ccZKkPJb.s:4001   .debug_str:0000000000000ba6 .LASF136
     /tmp/ccZKkPJb.s:3785   .debug_str:000000000000045c .LASF137
     /tmp/ccZKkPJb.s:3667   .debug_str:0000000000000000 .LASF138
     /tmp/ccZKkPJb.s:3673   .debug_str:0000000000000039 .LASF140
     /tmp/ccZKkPJb.s:3697   .debug_str:0000000000000115 .LASF141
     /tmp/ccZKkPJb.s:4007   .debug_str:0000000000000bf3 .LASF143
     /tmp/ccZKkPJb.s:4029   .debug_str:0000000000000ce1 .LASF144
     /tmp/ccZKkPJb.s:3721   .debug_str:000000000000023a .LASF145
     /tmp/ccZKkPJb.s:3723   .debug_str:0000000000000271 .LASF146
     /tmp/ccZKkPJb.s:3933   .debug_str:000000000000089c .LASF147
     /tmp/ccZKkPJb.s:3703   .debug_str:0000000000000165 .LASF148
     /tmp/ccZKkPJb.s:3991   .debug_str:0000000000000b22 .LASF149
     /tmp/ccZKkPJb.s:4003   .debug_str:0000000000000bad .LASF150
     /tmp/ccZKkPJb.s:3993   .debug_str:0000000000000b57 .LASF151
     /tmp/ccZKkPJb.s:3851   .debug_str:0000000000000656 .LASF180
     /tmp/ccZKkPJb.s:3899   .debug_str:00000000000007c7 .LASF181
     /tmp/ccZKkPJb.s:4011   .debug_str:0000000000000c2f .LASF152
     /tmp/ccZKkPJb.s:3987   .debug_str:0000000000000af0 .LASF153
     /tmp/ccZKkPJb.s:3973   .debug_str:0000000000000a84 .LASF154
     /tmp/ccZKkPJb.s:3711   .debug_str:00000000000001c8 .LASF155
     /tmp/ccZKkPJb.s:3671   .debug_str:0000000000000029 .LASF156
     /tmp/ccZKkPJb.s:3845   .debug_str:000000000000063c .LASF157
     /tmp/ccZKkPJb.s:3771   .debug_str:00000000000003fe .LASF158
     /tmp/ccZKkPJb.s:3735   .debug_str:00000000000002f3 .LASF159
     /tmp/ccZKkPJb.s:3853   .debug_str:0000000000000667 .LASF160
     /tmp/ccZKkPJb.s:3669   .debug_str:0000000000000023 .LASF161
     /tmp/ccZKkPJb.s:4033   .debug_str:0000000000000d26 .LASF162
     /tmp/ccZKkPJb.s:3831   .debug_str:00000000000005e7 .LASF163
     /tmp/ccZKkPJb.s:3759   .debug_str:00000000000003a7 .LASF164
     /tmp/ccZKkPJb.s:3741   .debug_str:0000000000000312 .LASF165
     /tmp/ccZKkPJb.s:3937   .debug_str:00000000000008dd .LASF166
     /tmp/ccZKkPJb.s:3767   .debug_str:00000000000003ed .LASF167
     /tmp/ccZKkPJb.s:3959   .debug_str:0000000000000a12 .LASF182
     /tmp/ccZKkPJb.s:3685   .debug_str:00000000000000ca .LASF168
     /tmp/ccZKkPJb.s:3753   .debug_str:0000000000000360 .LASF169
     /tmp/ccZKkPJb.s:304    .text:00000000000001c4 .LFB52
     /tmp/ccZKkPJb.s:386    .text:0000000000000244 .LFE52
GAS LISTING /tmp/ccZKkPJb.s 			page 17


     /tmp/ccZKkPJb.s:3462   .debug_loc:0000000000000000 .LLST14
     /tmp/ccZKkPJb.s:338    .text:00000000000001fc .LBB42
     /tmp/ccZKkPJb.s:350    .text:0000000000000210 .LBE42
     /tmp/ccZKkPJb.s:3480   .debug_loc:000000000000004c .LLST15
     /tmp/ccZKkPJb.s:343    .text:0000000000000204 .LVL31
     /tmp/ccZKkPJb.s:347    .text:0000000000000210 .LVL32
     /tmp/ccZKkPJb.s:358    .text:0000000000000218 .LBB44
     /tmp/ccZKkPJb.s:370    .text:000000000000022c .LBE44
     /tmp/ccZKkPJb.s:3487   .debug_loc:000000000000006f .LLST16
     /tmp/ccZKkPJb.s:363    .text:0000000000000220 .LVL35
     /tmp/ccZKkPJb.s:367    .text:000000000000022c .LVL36
     /tmp/ccZKkPJb.s:327    .text:00000000000001e8 .LVL28
     /tmp/ccZKkPJb.s:331    .text:00000000000001f4 .LVL29
     /tmp/ccZKkPJb.s:226    .text:0000000000000140 .LFB50
     /tmp/ccZKkPJb.s:298    .text:00000000000001c4 .LFE50
     /tmp/ccZKkPJb.s:3494   .debug_loc:0000000000000092 .LLST12
     /tmp/ccZKkPJb.s:3512   .debug_loc:00000000000000de .LLST13
     /tmp/ccZKkPJb.s:249    .text:000000000000016c .LVL22
     /tmp/ccZKkPJb.s:279    .text:00000000000001a8 .LVL24
     /tmp/ccZKkPJb.s:149    .text:00000000000000b8 .LFB49
     /tmp/ccZKkPJb.s:220    .text:0000000000000140 .LFE49
     /tmp/ccZKkPJb.s:3523   .debug_loc:0000000000000114 .LLST10
     /tmp/ccZKkPJb.s:3827   .debug_str:00000000000005d2 .LASF183
     /tmp/ccZKkPJb.s:3541   .debug_loc:0000000000000160 .LLST11
     /tmp/ccZKkPJb.s:174    .text:00000000000000e8 .LVL17
     /tmp/ccZKkPJb.s:204    .text:0000000000000128 .LVL18
     /tmp/ccZKkPJb.s:3781   .debug_str:0000000000000441 .LASF170
     /tmp/ccZKkPJb.s:10     .text:0000000000000000 .LFB47
     /tmp/ccZKkPJb.s:141    .text:00000000000000b8 .LFE47
     /tmp/ccZKkPJb.s:3555   .debug_loc:0000000000000199 .LLST0
     /tmp/ccZKkPJb.s:3573   .debug_loc:00000000000001e5 .LLST1
     /tmp/ccZKkPJb.s:53     .text:0000000000000048 .LBB29
     /tmp/ccZKkPJb.s:65     .text:000000000000005c .LBE29
     /tmp/ccZKkPJb.s:3587   .debug_loc:000000000000021e .LLST2
     /tmp/ccZKkPJb.s:59     .text:0000000000000050 .LVL4
     /tmp/ccZKkPJb.s:63     .text:000000000000005c .LVL5
     /tmp/ccZKkPJb.s:66     .text:000000000000005c .LBB31
     /tmp/ccZKkPJb.s:86     .text:0000000000000070 .LBE31
     /tmp/ccZKkPJb.s:3596   .debug_loc:0000000000000243 .LLST3
     /tmp/ccZKkPJb.s:3604   .debug_loc:0000000000000267 .LLST4
     /tmp/ccZKkPJb.s:68     .text:000000000000005c .LBB33
     /tmp/ccZKkPJb.s:77     .text:0000000000000068 .LBE33
     /tmp/ccZKkPJb.s:3611   .debug_loc:000000000000028a .LLST5
     /tmp/ccZKkPJb.s:91     .text:0000000000000074 .LBB35
     /tmp/ccZKkPJb.s:102    .text:0000000000000088 .LBE35
     /tmp/ccZKkPJb.s:3620   .debug_loc:00000000000002af .LLST6
     /tmp/ccZKkPJb.s:96     .text:000000000000007c .LVL9
     /tmp/ccZKkPJb.s:100    .text:0000000000000088 .LVL10
     /tmp/ccZKkPJb.s:103    .text:0000000000000088 .LBB37
     /tmp/ccZKkPJb.s:122    .text:000000000000009c .LBE37
     /tmp/ccZKkPJb.s:3629   .debug_loc:00000000000002d4 .LLST7
     /tmp/ccZKkPJb.s:3636   .debug_loc:00000000000002f7 .LLST8
     /tmp/ccZKkPJb.s:105    .text:0000000000000088 .LBB39
     /tmp/ccZKkPJb.s:113    .text:0000000000000094 .LBE39
     /tmp/ccZKkPJb.s:3643   .debug_loc:000000000000031a .LLST9
     /tmp/ccZKkPJb.s:44     .text:0000000000000038 .LVL1
     /tmp/ccZKkPJb.s:48     .text:0000000000000044 .LVL2
GAS LISTING /tmp/ccZKkPJb.s 			page 18


     /tmp/ccZKkPJb.s:3709   .debug_str:00000000000001c3 .LASF171
     /tmp/ccZKkPJb.s:3731   .debug_str:00000000000002ce .LASF184
     /tmp/ccZKkPJb.s:309    .text:00000000000001c4 .LVL27
     /tmp/ccZKkPJb.s:354    .text:0000000000000214 .LVL33
     /tmp/ccZKkPJb.s:337    .text:00000000000001fc .LVL30
     /tmp/ccZKkPJb.s:357    .text:0000000000000218 .LVL34
     /tmp/ccZKkPJb.s:229    .text:0000000000000140 .LVL20
     /tmp/ccZKkPJb.s:247    .text:0000000000000164 .LVL21
     /tmp/ccZKkPJb.s:290    .text:00000000000001b8 .LVL25
     /tmp/ccZKkPJb.s:259    .text:000000000000017c .LVL23
     /tmp/ccZKkPJb.s:293    .text:00000000000001bc .LVL26
     /tmp/ccZKkPJb.s:152    .text:00000000000000b8 .LVL14
     /tmp/ccZKkPJb.s:172    .text:00000000000000e0 .LVL16
     /tmp/ccZKkPJb.s:213    .text:0000000000000134 .LVL19
     /tmp/ccZKkPJb.s:170    .text:00000000000000dc .LVL15
     /tmp/ccZKkPJb.s:14     .text:0000000000000000 .LVL0
     /tmp/ccZKkPJb.s:134    .text:00000000000000ac .LVL13
     /tmp/ccZKkPJb.s:52     .text:0000000000000048 .LVL3
     /tmp/ccZKkPJb.s:84     .text:0000000000000070 .LVL7
     /tmp/ccZKkPJb.s:75     .text:0000000000000068 .LVL6
     /tmp/ccZKkPJb.s:90     .text:0000000000000074 .LVL8
     /tmp/ccZKkPJb.s:120    .text:000000000000009c .LVL12
     /tmp/ccZKkPJb.s:111    .text:0000000000000094 .LVL11
     /tmp/ccZKkPJb.s:404    .debug_info:0000000000000000 .Ldebug_info0
     /tmp/ccZKkPJb.s:389    .gcc_except_table:0000000000000000 .LLSDA52

UNDEFINED SYMBOLS
_ZN15MemoryAllocator8instanceEv
_ZN15MemoryAllocator10kmem_allocEm
_ZN9Semaphore7kwait_nEj
_ZN9Semaphore9ksignal_nEj
_ZN15MemoryAllocator9kmem_freeEPv
__gxx_personality_v0
