GAS LISTING /tmp/ccR8M824.s 			page 1


   1              		.file	"buffer.cpp"
   2              		.option pic
   3              		.option norelax
   4              		.text
   5              	.Ltext0:
   6              		.align	2
   7              		.globl	_ZN7KBufferC2Ei
   9              	_ZN7KBufferC2Ei:
  10              	.LFB52:
  11              		.file 1 "src/buffer.cpp"
   1:src/buffer.cpp **** #include "../h/buffer.hpp"
   2:src/buffer.cpp **** 
   3:src/buffer.cpp **** KBuffer::KBuffer(int cap)
  12              		.loc 1 3 1
  13              		.cfi_startproc
  14              	.LVL0:
  15 0000 130101FE 		addi	sp,sp,-32
  16              		.cfi_def_cfa_offset 32
  17 0004 233C1100 		sd	ra,24(sp)
  18 0008 23388100 		sd	s0,16(sp)
  19 000c 23349100 		sd	s1,8(sp)
  20 0010 23302101 		sd	s2,0(sp)
  21              		.cfi_offset 1, -8
  22              		.cfi_offset 8, -16
  23              		.cfi_offset 9, -24
  24              		.cfi_offset 18, -32
  25 0014 13040102 		addi	s0,sp,32
  26              		.cfi_def_cfa 8, 0
  27 0018 93040500 		mv	s1,a0
  28 001c 13890500 		mv	s2,a1
  29              	.LBB28:
   4:src/buffer.cpp **** {
   5:src/buffer.cpp ****     this->cap = cap;
  30              		.loc 1 5 5
  31              		.loc 1 5 15 is_stmt 0
  32 0020 2320B500 		sw	a1,0(a0)
   6:src/buffer.cpp ****     head=tail=0;
  33              		.loc 1 6 5 is_stmt 1
  34              		.loc 1 6 14 is_stmt 0
  35 0024 232E0500 		sw	zero,28(a0)
  36              		.loc 1 6 9
  37 0028 232C0500 		sw	zero,24(a0)
   7:src/buffer.cpp ****     cnt=0;
  38              		.loc 1 7 5 is_stmt 1
  39              		.loc 1 7 8 is_stmt 0
  40 002c 23240502 		sw	zero,40(a0)
   8:src/buffer.cpp ****     buff = (char*) MemoryAllocator::instance().kmem_alloc(cap*sizeof(char));
  41              		.loc 1 8 5 is_stmt 1
  42              		.loc 1 8 46 is_stmt 0
  43 0030 97000000 		call	_ZN15MemoryAllocator8instanceEv@plt
  43      E7800000 
  44              	.LVL1:
  45              		.loc 1 8 58
  46 0038 93050900 		mv	a1,s2
  47 003c 97000000 		call	_ZN15MemoryAllocator10kmem_allocEm@plt
  47      E7800000 
  48              	.LVL2:
GAS LISTING /tmp/ccR8M824.s 			page 2


  49              		.loc 1 8 10
  50 0044 23B0A402 		sd	a0,32(s1)
   9:src/buffer.cpp ****     itemAvailable = new KSemaphore(0);
  51              		.loc 1 9 5 is_stmt 1
  52              	.LVL3:
  53              	.LBB29:
  54              	.LBB30:
  55              		.file 2 "src/../h/semaphore.hpp"
   1:src/../h/semaphore.hpp **** #ifndef SemaphoreDef
   2:src/../h/semaphore.hpp **** #define SemaphoreDef
   3:src/../h/semaphore.hpp **** 
   4:src/../h/semaphore.hpp **** #include "list.hpp"
   5:src/../h/semaphore.hpp **** #include "tcb.hpp"
   6:src/../h/semaphore.hpp **** #include "memory_allocator.hpp"
   7:src/../h/semaphore.hpp **** 
   8:src/../h/semaphore.hpp **** class KSemaphore {
   9:src/../h/semaphore.hpp **** public:
  10:src/../h/semaphore.hpp ****     explicit KSemaphore(unsigned init = 1) {
  11:src/../h/semaphore.hpp ****         this->value = init;
  12:src/../h/semaphore.hpp ****         this->closed = false;
  13:src/../h/semaphore.hpp ****     }
  14:src/../h/semaphore.hpp **** 
  15:src/../h/semaphore.hpp ****     int kwait_n(unsigned n);
  16:src/../h/semaphore.hpp ****     int ksignal_n(unsigned n);
  17:src/../h/semaphore.hpp ****     static KSemaphore* createSemaphore(unsigned init = 1);
  18:src/../h/semaphore.hpp ****     unsigned getValue() const { return value; }
  19:src/../h/semaphore.hpp ****     int close();
  20:src/../h/semaphore.hpp **** 
  21:src/../h/semaphore.hpp ****     void* operator new(size_t size) {
  22:src/../h/semaphore.hpp ****         return MemoryAllocator::instance().kmem_alloc(size);
  56              		.loc 2 22 9
  57              		.loc 2 22 42 is_stmt 0
  58 0048 97000000 		call	_ZN15MemoryAllocator8instanceEv@plt
  58      E7800000 
  59              	.LVL4:
  60              		.loc 2 22 54
  61 0050 93050002 		li	a1,32
  62 0054 97000000 		call	_ZN15MemoryAllocator10kmem_allocEm@plt
  62      E7800000 
  63              	.LVL5:
  64              	.LBE30:
  65              	.LBE29:
  66              	.LBB31:
  67              	.LBB32:
  68              	.LBB33:
  69              	.LBB34:
  70              		.file 3 "src/../h/list.hpp"
   1:src/../h/list.hpp **** #ifndef OS1_VEZBE07_RISCV_CONTEXT_SWITCH_2_INTERRUPT_LIST_HPP
   2:src/../h/list.hpp **** #define OS1_VEZBE07_RISCV_CONTEXT_SWITCH_2_INTERRUPT_LIST_HPP
   3:src/../h/list.hpp **** 
   4:src/../h/list.hpp **** #include "memory_allocator.hpp"
   5:src/../h/list.hpp **** template<typename T>
   6:src/../h/list.hpp **** class List
   7:src/../h/list.hpp **** {
   8:src/../h/list.hpp **** private:
   9:src/../h/list.hpp ****     struct Elem
  10:src/../h/list.hpp ****     {
GAS LISTING /tmp/ccR8M824.s 			page 3


  11:src/../h/list.hpp ****         T *data;
  12:src/../h/list.hpp ****         Elem *next;
  13:src/../h/list.hpp **** 
  14:src/../h/list.hpp ****         Elem(T *data, Elem *next) : data(data), next(next) {}
  15:src/../h/list.hpp **** 
  16:src/../h/list.hpp ****         void* operator new(size_t size) {
  17:src/../h/list.hpp ****             return MemoryAllocator::instance().kmem_alloc(size);
  18:src/../h/list.hpp ****         }
  19:src/../h/list.hpp ****         void* operator new[](size_t size) {
  20:src/../h/list.hpp ****             return MemoryAllocator::instance().kmem_alloc(size);
  21:src/../h/list.hpp ****         }
  22:src/../h/list.hpp ****         
  23:src/../h/list.hpp ****         void operator delete(void *ptr) {
  24:src/../h/list.hpp ****             MemoryAllocator::instance().kmem_free(ptr);
  25:src/../h/list.hpp ****         }
  26:src/../h/list.hpp ****         void operator delete[](void *ptr) {
  27:src/../h/list.hpp ****             MemoryAllocator::instance().kmem_free(ptr);
  28:src/../h/list.hpp ****         }
  29:src/../h/list.hpp ****     };
  30:src/../h/list.hpp **** 
  31:src/../h/list.hpp ****     Elem *head, *tail;
  32:src/../h/list.hpp ****     size_t size;
  33:src/../h/list.hpp **** 
  34:src/../h/list.hpp **** public:
  35:src/../h/list.hpp ****     List() : head(0), tail(0), size(0) {}
  71              		.loc 3 35 38
  72 005c 23340500 		sd	zero,8(a0)
  73 0060 23380500 		sd	zero,16(a0)
  74 0064 233C0500 		sd	zero,24(a0)
  75              	.LVL6:
  76              	.LBE34:
  77              	.LBE33:
  11:src/../h/semaphore.hpp ****         this->closed = false;
  78              		.loc 2 11 9 is_stmt 1
  11:src/../h/semaphore.hpp ****         this->closed = false;
  79              		.loc 2 11 21 is_stmt 0
  80 0068 23220500 		sw	zero,4(a0)
  12:src/../h/semaphore.hpp ****     }
  81              		.loc 2 12 9 is_stmt 1
  12:src/../h/semaphore.hpp ****     }
  82              		.loc 2 12 22 is_stmt 0
  83 006c 23000500 		sb	zero,0(a0)
  84              	.LVL7:
  85              	.LBE32:
  86              	.LBE31:
  87              		.loc 1 9 19
  88 0070 23B4A400 		sd	a0,8(s1)
  10:src/buffer.cpp ****     spaceAvailable = new KSemaphore(cap);
  89              		.loc 1 10 5 is_stmt 1
  90              	.LVL8:
  91              	.LBB35:
  92              	.LBB36:
  93              		.loc 2 22 9
  94              		.loc 2 22 42 is_stmt 0
  95 0074 97000000 		call	_ZN15MemoryAllocator8instanceEv@plt
  95      E7800000 
  96              	.LVL9:
GAS LISTING /tmp/ccR8M824.s 			page 4


  97              		.loc 2 22 54
  98 007c 93050002 		li	a1,32
  99 0080 97000000 		call	_ZN15MemoryAllocator10kmem_allocEm@plt
  99      E7800000 
 100              	.LVL10:
 101              	.LBE36:
 102              	.LBE35:
 103              	.LBB37:
 104              	.LBB38:
 105              	.LBB39:
 106              	.LBB40:
 107              		.loc 3 35 38
 108 0088 23340500 		sd	zero,8(a0)
 109 008c 23380500 		sd	zero,16(a0)
 110 0090 233C0500 		sd	zero,24(a0)
 111              	.LVL11:
 112              	.LBE40:
 113              	.LBE39:
  11:src/../h/semaphore.hpp ****         this->closed = false;
 114              		.loc 2 11 9 is_stmt 1
  11:src/../h/semaphore.hpp ****         this->closed = false;
 115              		.loc 2 11 21 is_stmt 0
 116 0094 23222501 		sw	s2,4(a0)
  12:src/../h/semaphore.hpp ****     }
 117              		.loc 2 12 9 is_stmt 1
  12:src/../h/semaphore.hpp ****     }
 118              		.loc 2 12 22 is_stmt 0
 119 0098 23000500 		sb	zero,0(a0)
 120              	.LVL12:
 121              	.LBE38:
 122              	.LBE37:
 123              		.loc 1 10 20
 124 009c 23B8A400 		sd	a0,16(s1)
 125              	.LBE28:
  11:src/buffer.cpp **** }
 126              		.loc 1 11 1
 127 00a0 83308101 		ld	ra,24(sp)
 128              		.cfi_restore 1
 129 00a4 03340101 		ld	s0,16(sp)
 130              		.cfi_restore 8
 131              		.cfi_def_cfa 2, 32
 132 00a8 83348100 		ld	s1,8(sp)
 133              		.cfi_restore 9
 134              	.LVL13:
 135 00ac 03390100 		ld	s2,0(sp)
 136              		.cfi_restore 18
 137 00b0 13010102 		addi	sp,sp,32
 138              		.cfi_def_cfa_offset 0
 139 00b4 67800000 		jr	ra
 140              		.cfi_endproc
 141              	.LFE52:
 143              		.globl	_ZN7KBufferC1Ei
 144              		.set	_ZN7KBufferC1Ei,_ZN7KBufferC2Ei
 145              		.align	2
 146              		.globl	_ZN7KBuffer3putEc
 148              	_ZN7KBuffer3putEc:
 149              	.LFB54:
GAS LISTING /tmp/ccR8M824.s 			page 5


  12:src/buffer.cpp **** 
  13:src/buffer.cpp **** void KBuffer::put(char item)
  14:src/buffer.cpp **** {
 150              		.loc 1 14 1 is_stmt 1
 151              		.cfi_startproc
 152              	.LVL14:
 153 00b8 130101FE 		addi	sp,sp,-32
 154              		.cfi_def_cfa_offset 32
 155 00bc 233C1100 		sd	ra,24(sp)
 156 00c0 23388100 		sd	s0,16(sp)
 157 00c4 23349100 		sd	s1,8(sp)
 158 00c8 23302101 		sd	s2,0(sp)
 159              		.cfi_offset 1, -8
 160              		.cfi_offset 8, -16
 161              		.cfi_offset 9, -24
 162              		.cfi_offset 18, -32
 163 00cc 13040102 		addi	s0,sp,32
 164              		.cfi_def_cfa 8, 0
 165 00d0 93040500 		mv	s1,a0
 166 00d4 13890500 		mv	s2,a1
  15:src/buffer.cpp ****     spaceAvailable->kwait_n(1);
 167              		.loc 1 15 5
 168              		.loc 1 15 28 is_stmt 0
 169 00d8 93051000 		li	a1,1
 170              	.LVL15:
 171 00dc 03350501 		ld	a0,16(a0)
 172              	.LVL16:
 173 00e0 97000000 		call	_ZN10KSemaphore7kwait_nEj@plt
 173      E7800000 
 174              	.LVL17:
  16:src/buffer.cpp ****     buff[head]=item;
 175              		.loc 1 16 5 is_stmt 1
 176 00e8 83B70402 		ld	a5,32(s1)
 177              		.loc 1 16 10 is_stmt 0
 178 00ec 03A78401 		lw	a4,24(s1)
 179              		.loc 1 16 14
 180 00f0 B387E700 		add	a5,a5,a4
 181              		.loc 1 16 15
 182 00f4 23802701 		sb	s2,0(a5)
  17:src/buffer.cpp ****     head = (head+1)%cap;
 183              		.loc 1 17 5 is_stmt 1
 184              		.loc 1 17 13 is_stmt 0
 185 00f8 83A78401 		lw	a5,24(s1)
 186              		.loc 1 17 17
 187 00fc 9B871700 		addiw	a5,a5,1
 188              		.loc 1 17 21
 189 0100 03A70400 		lw	a4,0(s1)
 190              		.loc 1 17 20
 191 0104 BBE7E702 		remw	a5,a5,a4
 192              		.loc 1 17 10
 193 0108 23ACF400 		sw	a5,24(s1)
  18:src/buffer.cpp ****     cnt++;
 194              		.loc 1 18 5 is_stmt 1
 195 010c 83A78402 		lw	a5,40(s1)
 196              		.loc 1 18 8 is_stmt 0
 197 0110 9B871700 		addiw	a5,a5,1
 198 0114 23A4F402 		sw	a5,40(s1)
GAS LISTING /tmp/ccR8M824.s 			page 6


  19:src/buffer.cpp ****     itemAvailable->ksignal_n(1);
 199              		.loc 1 19 5 is_stmt 1
 200              		.loc 1 19 29 is_stmt 0
 201 0118 93051000 		li	a1,1
 202 011c 03B58400 		ld	a0,8(s1)
 203 0120 97000000 		call	_ZN10KSemaphore9ksignal_nEj@plt
 203      E7800000 
 204              	.LVL18:
  20:src/buffer.cpp **** }
 205              		.loc 1 20 1
 206 0128 83308101 		ld	ra,24(sp)
 207              		.cfi_restore 1
 208 012c 03340101 		ld	s0,16(sp)
 209              		.cfi_restore 8
 210              		.cfi_def_cfa 2, 32
 211 0130 83348100 		ld	s1,8(sp)
 212              		.cfi_restore 9
 213              	.LVL19:
 214 0134 03390100 		ld	s2,0(sp)
 215              		.cfi_restore 18
 216 0138 13010102 		addi	sp,sp,32
 217              		.cfi_def_cfa_offset 0
 218 013c 67800000 		jr	ra
 219              		.cfi_endproc
 220              	.LFE54:
 222              		.align	2
 223              		.globl	_ZN7KBuffer3getEv
 225              	_ZN7KBuffer3getEv:
 226              	.LFB55:
  21:src/buffer.cpp **** 
  22:src/buffer.cpp **** char KBuffer::get()
  23:src/buffer.cpp **** {
 227              		.loc 1 23 1 is_stmt 1
 228              		.cfi_startproc
 229              	.LVL20:
 230 0140 130101FE 		addi	sp,sp,-32
 231              		.cfi_def_cfa_offset 32
 232 0144 233C1100 		sd	ra,24(sp)
 233 0148 23388100 		sd	s0,16(sp)
 234 014c 23349100 		sd	s1,8(sp)
 235 0150 23302101 		sd	s2,0(sp)
 236              		.cfi_offset 1, -8
 237              		.cfi_offset 8, -16
 238              		.cfi_offset 9, -24
 239              		.cfi_offset 18, -32
 240 0154 13040102 		addi	s0,sp,32
 241              		.cfi_def_cfa 8, 0
 242 0158 93040500 		mv	s1,a0
  24:src/buffer.cpp ****     itemAvailable->kwait_n(1);
 243              		.loc 1 24 5
 244              		.loc 1 24 27 is_stmt 0
 245 015c 93051000 		li	a1,1
 246 0160 03358500 		ld	a0,8(a0)
 247              	.LVL21:
 248 0164 97000000 		call	_ZN10KSemaphore7kwait_nEj@plt
 248      E7800000 
 249              	.LVL22:
GAS LISTING /tmp/ccR8M824.s 			page 7


  25:src/buffer.cpp ****     char ret = buff[tail];
 250              		.loc 1 25 5 is_stmt 1
 251              		.loc 1 25 16 is_stmt 0
 252 016c 03B70402 		ld	a4,32(s1)
 253              		.loc 1 25 21
 254 0170 83A7C401 		lw	a5,28(s1)
 255              		.loc 1 25 25
 256 0174 3307F700 		add	a4,a4,a5
 257              		.loc 1 25 10
 258 0178 03490700 		lbu	s2,0(a4)
 259              	.LVL23:
  26:src/buffer.cpp ****     tail = (tail+1)%cap;
 260              		.loc 1 26 5 is_stmt 1
 261              		.loc 1 26 17 is_stmt 0
 262 017c 9B871700 		addiw	a5,a5,1
 263              		.loc 1 26 21
 264 0180 03A70400 		lw	a4,0(s1)
 265              		.loc 1 26 20
 266 0184 BBE7E702 		remw	a5,a5,a4
 267              		.loc 1 26 10
 268 0188 23AEF400 		sw	a5,28(s1)
  27:src/buffer.cpp ****     cnt--;
 269              		.loc 1 27 5 is_stmt 1
 270 018c 83A78402 		lw	a5,40(s1)
 271              		.loc 1 27 8 is_stmt 0
 272 0190 9B87F7FF 		addiw	a5,a5,-1
 273 0194 23A4F402 		sw	a5,40(s1)
  28:src/buffer.cpp ****     spaceAvailable->ksignal_n(1);
 274              		.loc 1 28 5 is_stmt 1
 275              		.loc 1 28 30 is_stmt 0
 276 0198 93051000 		li	a1,1
 277 019c 03B50401 		ld	a0,16(s1)
 278 01a0 97000000 		call	_ZN10KSemaphore9ksignal_nEj@plt
 278      E7800000 
 279              	.LVL24:
  29:src/buffer.cpp ****     return ret;
 280              		.loc 1 29 5 is_stmt 1
  30:src/buffer.cpp **** }
 281              		.loc 1 30 1 is_stmt 0
 282 01a8 13050900 		mv	a0,s2
 283 01ac 83308101 		ld	ra,24(sp)
 284              		.cfi_restore 1
 285 01b0 03340101 		ld	s0,16(sp)
 286              		.cfi_restore 8
 287              		.cfi_def_cfa 2, 32
 288 01b4 83348100 		ld	s1,8(sp)
 289              		.cfi_restore 9
 290              	.LVL25:
 291 01b8 03390100 		ld	s2,0(sp)
 292              		.cfi_restore 18
 293              	.LVL26:
 294 01bc 13010102 		addi	sp,sp,32
 295              		.cfi_def_cfa_offset 0
 296 01c0 67800000 		jr	ra
 297              		.cfi_endproc
 298              	.LFE55:
 300              		.align	2
GAS LISTING /tmp/ccR8M824.s 			page 8


 301              		.globl	_ZN7KBufferD2Ev
 303              	_ZN7KBufferD2Ev:
 304              	.LFB57:
  31:src/buffer.cpp **** 
  32:src/buffer.cpp **** KBuffer::~KBuffer()
 305              		.loc 1 32 1 is_stmt 1
 306              		.cfi_startproc
 307              		.cfi_personality 0x9b,DW.ref.__gxx_personality_v0
 308              		.cfi_lsda 0x1b,.LLSDA57
 309              	.LVL27:
 310 01c4 130101FE 		addi	sp,sp,-32
 311              		.cfi_def_cfa_offset 32
 312 01c8 233C1100 		sd	ra,24(sp)
 313 01cc 23388100 		sd	s0,16(sp)
 314 01d0 23349100 		sd	s1,8(sp)
 315 01d4 23302101 		sd	s2,0(sp)
 316              		.cfi_offset 1, -8
 317              		.cfi_offset 8, -16
 318              		.cfi_offset 9, -24
 319              		.cfi_offset 18, -32
 320 01d8 13040102 		addi	s0,sp,32
 321              		.cfi_def_cfa 8, 0
 322 01dc 93040500 		mv	s1,a0
 323              	.LBB41:
  33:src/buffer.cpp **** {
  34:src/buffer.cpp ****     MemoryAllocator::instance().kmem_free(buff);
 324              		.loc 1 34 5
 325              		.loc 1 34 31 is_stmt 0
 326 01e0 97000000 		call	_ZN15MemoryAllocator8instanceEv@plt
 326      E7800000 
 327              	.LVL28:
 328              		.loc 1 34 42
 329 01e8 83B50402 		ld	a1,32(s1)
 330 01ec 97000000 		call	_ZN15MemoryAllocator9kmem_freeEPv@plt
 330      E7800000 
 331              	.LVL29:
  35:src/buffer.cpp ****     delete itemAvailable;
 332              		.loc 1 35 5 is_stmt 1
 333              		.loc 1 35 12 is_stmt 0
 334 01f4 03B98400 		ld	s2,8(s1)
 335              		.loc 1 35 25
 336 01f8 630C0900 		beqz	s2,.L8
 337              	.LVL30:
 338              	.LBB42:
 339              	.LBB43:
  23:src/../h/semaphore.hpp ****     }
  24:src/../h/semaphore.hpp ****     void* operator new[](size_t size) {
  25:src/../h/semaphore.hpp ****         return MemoryAllocator::instance().kmem_alloc(size);
  26:src/../h/semaphore.hpp ****     }
  27:src/../h/semaphore.hpp ****     
  28:src/../h/semaphore.hpp ****     void operator delete(void *ptr) {
  29:src/../h/semaphore.hpp ****         MemoryAllocator::instance().kmem_free(ptr);
 340              		.loc 2 29 9 is_stmt 1 discriminator 1
 341              		.loc 2 29 35 is_stmt 0 discriminator 1
 342 01fc 97000000 		call	_ZN15MemoryAllocator8instanceEv@plt
 342      E7800000 
 343              	.LVL31:
GAS LISTING /tmp/ccR8M824.s 			page 9


 344              		.loc 2 29 46 discriminator 1
 345 0204 93050900 		mv	a1,s2
 346 0208 97000000 		call	_ZN15MemoryAllocator9kmem_freeEPv@plt
 346      E7800000 
 347              	.LVL32:
 348              	.L8:
 349              	.LBE43:
 350              	.LBE42:
  36:src/buffer.cpp ****     delete spaceAvailable;
 351              		.loc 1 36 5 is_stmt 1
 352              		.loc 1 36 12 is_stmt 0
 353 0210 83B40401 		ld	s1,16(s1)
 354              	.LVL33:
 355              		.loc 1 36 26
 356 0214 638C0400 		beqz	s1,.L7
 357              	.LVL34:
 358              	.LBB44:
 359              	.LBB45:
 360              		.loc 2 29 9 is_stmt 1 discriminator 1
 361              		.loc 2 29 35 is_stmt 0 discriminator 1
 362 0218 97000000 		call	_ZN15MemoryAllocator8instanceEv@plt
 362      E7800000 
 363              	.LVL35:
 364              		.loc 2 29 46 discriminator 1
 365 0220 93850400 		mv	a1,s1
 366 0224 97000000 		call	_ZN15MemoryAllocator9kmem_freeEPv@plt
 366      E7800000 
 367              	.LVL36:
 368              	.L7:
 369              	.LBE45:
 370              	.LBE44:
 371              	.LBE41:
  37:src/buffer.cpp **** }...
 372              		.loc 1 37 1
 373 022c 83308101 		ld	ra,24(sp)
 374              		.cfi_restore 1
 375 0230 03340101 		ld	s0,16(sp)
 376              		.cfi_restore 8
 377              		.cfi_def_cfa 2, 32
 378 0234 83348100 		ld	s1,8(sp)
 379              		.cfi_restore 9
 380 0238 03390100 		ld	s2,0(sp)
 381              		.cfi_restore 18
 382 023c 13010102 		addi	sp,sp,32
 383              		.cfi_def_cfa_offset 0
 384 0240 67800000 		jr	ra
 385              		.cfi_endproc
 386              	.LFE57:
 387              		.globl	__gxx_personality_v0
 388              		.section	.gcc_except_table,"a",@progbits
 389              	.LLSDA57:
 390 0000 FF       		.byte	0xff
 391 0001 FF       		.byte	0xff
 392 0002 03       		.byte	0x3
 393 0003 00       		.byte	0
 394              		.text
 396              		.globl	_ZN7KBufferD1Ev
GAS LISTING /tmp/ccR8M824.s 			page 10


 397              		.set	_ZN7KBufferD1Ev,_ZN7KBufferD2Ev
 398              	.Letext0:
 399              		.file 4 "src/../h/../lib/hw.h"
 400              		.file 5 "src/../h/memory_allocator.hpp"
 401              		.file 6 "src/../h/tcb.hpp"
 402              		.file 7 "src/../h/buffer.hpp"
 4143              		.align	3
 4146              	DW.ref.__gxx_personality_v0:
 4147 0000 00000000 		.dword	__gxx_personality_v0
 4147      00000000 
 4148              		.ident	"GCC: (Ubuntu 9.4.0-1ubuntu1~20.04) 9.4.0"
 4149              		.section	.note.GNU-stack,"",@progbits
GAS LISTING /tmp/ccR8M824.s 			page 11

