GAS LISTING /tmp/ccEb70is.s 			page 1


   1              		.file	"kernel.cpp"
   2              		.option pic
   3              		.option norelax
   4              		.text
   5              	.Ltext0:
   6              		.align	2
   7              		.globl	_ZN6Kernel16outputThreadBodyEPv
   9              	_ZN6Kernel16outputThreadBodyEPv:
  10              	.LFB65:
  11              		.file 1 "src/kernel.cpp"
   1:src/kernel.cpp **** #include "../h/kernel.hpp"
   2:src/kernel.cpp **** #include "../h/memory_allocator.hpp"
   3:src/kernel.cpp **** #include "../lib/console.h"
   4:src/kernel.cpp **** #include "../h/tcb.hpp"
   5:src/kernel.cpp **** #include "../h/semaphore.hpp"
   6:src/kernel.cpp **** #include "../h/buffer.hpp"
   7:src/kernel.cpp **** #include "../h/syscall_c.hpp"
   8:src/kernel.cpp **** #include "../lib/hw.h"
   9:src/kernel.cpp **** 
  10:src/kernel.cpp **** void Kernel::init() {
  11:src/kernel.cpp ****     initBuffers();
  12:src/kernel.cpp ****     // set trap routine
  13:src/kernel.cpp ****     w_stvec((uint64)&supervisorTrap);
  14:src/kernel.cpp ****     //ms_sstatus(SstatusBits::SSTATUS_SIE);
  15:src/kernel.cpp **** 
  16:src/kernel.cpp ****     // Nit koja jedina prazni buffOUT na konzolu (mora biti nit, ne kod u
  17:src/kernel.cpp ****     // prekidnoj rutini, jer Buffer::get() blokira na semaforu kad je prazan).
  18:src/kernel.cpp ****     TCB::createThread(outputThreadBody, nullptr);
  19:src/kernel.cpp **** }
  20:src/kernel.cpp **** 
  21:src/kernel.cpp **** void Kernel::outputThreadBody(void*) {
  12              		.loc 1 21 38
  13              		.cfi_startproc
  14 0000 130101FF 		addi	sp,sp,-16
  15              		.cfi_def_cfa_offset 16
  16 0004 23341100 		sd	ra,8(sp)
  17 0008 23308100 		sd	s0,0(sp)
  18              		.cfi_offset 1, -8
  19              		.cfi_offset 8, -16
  20 000c 13040101 		addi	s0,sp,16
  21              		.cfi_def_cfa 8, 0
  22 0010 6F00C000 		j	.L2
  23              	.L3:
  24              	.LBB44:
  22:src/kernel.cpp ****     while (true) {
  23:src/kernel.cpp ****         while (*((volatile char*) CONSOLE_STATUS) & CONSOLE_TX_STATUS_BIT) {
  24:src/kernel.cpp ****             char c = buffOUT->get(); //blokira (preko semafora) dok ima nesto za slanje - bezbedno 
  25:src/kernel.cpp ****             (*(char *) CONSOLE_TX_DATA) = c;
  26:src/kernel.cpp ****         }
  27:src/kernel.cpp ****         thread_dispatch(); //ako konzola trenutno nije spremna za prijem, ustupi procesor umesto da
  25              		.loc 1 27 9
  26              		.loc 1 27 24 is_stmt 0
  27 0014 97000000 		call	_Z15thread_dispatchv@plt
  27      E7800000 
  28              	.LVL0:
  29              	.LBE44:
  22:src/kernel.cpp ****     while (true) {
GAS LISTING /tmp/ccEb70is.s 			page 2


  30              		.loc 1 22 5 is_stmt 1
  31              	.L2:
  22:src/kernel.cpp ****     while (true) {
  32              		.loc 1 22 5
  33              	.LBB46:
  23:src/kernel.cpp ****             char c = buffOUT->get(); //blokira (preko semafora) dok ima nesto za slanje - bezbedno 
  34              		.loc 1 23 9
  23:src/kernel.cpp ****             char c = buffOUT->get(); //blokira (preko semafora) dok ima nesto za slanje - bezbedno 
  35              		.loc 1 23 53
  23:src/kernel.cpp ****             char c = buffOUT->get(); //blokira (preko semafora) dok ima nesto za slanje - bezbedno 
  36              		.loc 1 23 16 is_stmt 0
  37 001c 97070000 		la	a5,CONSOLE_STATUS
  37      83B70700 
  38 0024 83B70700 		ld	a5,0(a5)
  39 0028 83C70700 		lbu	a5,0(a5)
  40 002c 93F7F70F 		andi	a5,a5,0xff
  23:src/kernel.cpp ****             char c = buffOUT->get(); //blokira (preko semafora) dok ima nesto za slanje - bezbedno 
  41              		.loc 1 23 53
  42 0030 93F70702 		andi	a5,a5,32
  43 0034 E38007FE 		beqz	a5,.L3
  44              	.LBB45:
  24:src/kernel.cpp ****             (*(char *) CONSOLE_TX_DATA) = c;
  45              		.loc 1 24 13 is_stmt 1
  24:src/kernel.cpp ****             (*(char *) CONSOLE_TX_DATA) = c;
  46              		.loc 1 24 34 is_stmt 0
  47 0038 17050000 		ld	a0,.LANCHOR0
  47      03350500 
  48 0040 97000000 		call	_ZN6Buffer3getEv@plt
  48      E7800000 
  49              	.LVL1:
  25:src/kernel.cpp ****         }
  50              		.loc 1 25 13 is_stmt 1
  25:src/kernel.cpp ****         }
  51              		.loc 1 25 14 is_stmt 0
  52 0048 97070000 		la	a5,CONSOLE_TX_DATA
  52      83B70700 
  53 0050 83B70700 		ld	a5,0(a5)
  25:src/kernel.cpp ****         }
  54              		.loc 1 25 41
  55 0054 2380A700 		sb	a0,0(a5)
  56              	.LBE45:
  23:src/kernel.cpp ****             char c = buffOUT->get(); //blokira (preko semafora) dok ima nesto za slanje - bezbedno 
  57              		.loc 1 23 9
  58 0058 6FF05FFC 		j	.L2
  59              	.LBE46:
  60              		.cfi_endproc
  61              	.LFE65:
  63              		.align	2
  64              		.globl	_ZN6Kernel10popSppSpieEv
  66              	_ZN6Kernel10popSppSpieEv:
  67              	.LFB66:
  28:src/kernel.cpp ****     }
  29:src/kernel.cpp **** }
  30:src/kernel.cpp **** 
  31:src/kernel.cpp **** void Kernel::popSppSpie() {
  68              		.loc 1 31 27 is_stmt 1
  69              		.cfi_startproc
GAS LISTING /tmp/ccEb70is.s 			page 3


  70 005c 130101FF 		addi	sp,sp,-16
  71              		.cfi_def_cfa_offset 16
  72 0060 23348100 		sd	s0,8(sp)
  73              		.cfi_offset 8, -8
  74 0064 13040101 		addi	s0,sp,16
  75              		.cfi_def_cfa 8, 0
  32:src/kernel.cpp ****     mc_sstatus(SSTATUS_SPP);
  76              		.loc 1 32 5
  77              	.LVL2:
  78              	.LBB47:
  79              	.LBB48:
  80              		.file 2 "src/../h/kernel.hpp"
   1:src/../h/kernel.hpp **** #ifndef KERNEL_HPP
   2:src/../h/kernel.hpp **** #define KERNEL_HPP
   3:src/../h/kernel.hpp **** 
   4:src/../h/kernel.hpp **** #include "../lib/hw.h"
   5:src/../h/kernel.hpp **** #include "../lib/console.h"
   6:src/../h/kernel.hpp **** #include "buffer.hpp"
   7:src/../h/kernel.hpp **** 
   8:src/../h/kernel.hpp **** class Kernel {
   9:src/../h/kernel.hpp **** public:
  10:src/../h/kernel.hpp ****     // entry point init
  11:src/../h/kernel.hpp ****     static void init();
  12:src/../h/kernel.hpp **** 
  13:src/../h/kernel.hpp ****     // Posebna, uvek-aktivna nit koja prazni buffOUT na konzolu. Blokiranje na
  14:src/../h/kernel.hpp ****     // semaforu unutar Buffer::get() sme da se desi samo u kontekstu obicne niti
  15:src/../h/kernel.hpp ****     // (ne unutar prekidne rutine), zato ovo mora biti nit, a ne deo
  16:src/../h/kernel.hpp ****     // supervisorTrapHandler-a.
  17:src/../h/kernel.hpp ****     static void outputThreadBody(void* arg);
  18:src/../h/kernel.hpp **** 
  19:src/../h/kernel.hpp ****     // Da li jos ima karaktera koje output nit nije stigla da isprazni na konzolu.
  20:src/../h/kernel.hpp ****     // Koristi se da se pozivalac (npr. main()) ne vrati pre nego sto se sav
  21:src/../h/kernel.hpp ****     // ispis stvarno prenese, jer je pra_njenje buffOUT-a asinhrono (u posebnoj niti).
  22:src/../h/kernel.hpp ****     static bool outputPending() { return !buffOUT->empty(); }
  23:src/../h/kernel.hpp **** 
  24:src/../h/kernel.hpp **** private:
  25:src/../h/kernel.hpp ****     static void supervisorTrapHandler();
  26:src/../h/kernel.hpp ****     static void supervisorTrap();
  27:src/../h/kernel.hpp ****     static void initBuffers();
  28:src/../h/kernel.hpp ****     static Buffer *buffIN;
  29:src/../h/kernel.hpp ****     static Buffer *buffOUT;
  30:src/../h/kernel.hpp **** public:
  31:src/../h/kernel.hpp ****     static inline uint64 r_scause() {
  32:src/../h/kernel.hpp ****         uint64 volatile x;
  33:src/../h/kernel.hpp ****         __asm__ volatile("csrr %0, scause" : "=r"(x));
  34:src/../h/kernel.hpp ****         return x;
  35:src/../h/kernel.hpp ****     }
  36:src/../h/kernel.hpp **** 
  37:src/../h/kernel.hpp ****     static inline uint64 r_a0() {
  38:src/../h/kernel.hpp ****         uint64 volatile x;
  39:src/../h/kernel.hpp ****         __asm__ volatile("mv %0, a0" : "=r"(x));
  40:src/../h/kernel.hpp ****         return x;
  41:src/../h/kernel.hpp ****     }
  42:src/../h/kernel.hpp **** 
  43:src/../h/kernel.hpp ****     static inline void w_a0(uint64 x) {
  44:src/../h/kernel.hpp ****         __asm__ volatile("mv a0, %0" : : "r"(x));
  45:src/../h/kernel.hpp ****     }
GAS LISTING /tmp/ccEb70is.s 			page 4


  46:src/../h/kernel.hpp **** 
  47:src/../h/kernel.hpp ****     static inline void w_scause(uint64 x) {
  48:src/../h/kernel.hpp ****         __asm__ volatile("csrw scause, %0" : : "r"(x));
  49:src/../h/kernel.hpp ****     }
  50:src/../h/kernel.hpp **** 
  51:src/../h/kernel.hpp ****     static inline uint64 r_sepc() {
  52:src/../h/kernel.hpp ****         uint64 volatile x;
  53:src/../h/kernel.hpp ****         __asm__ volatile("csrr %0, sepc" : "=r"(x));
  54:src/../h/kernel.hpp ****         return x;
  55:src/../h/kernel.hpp ****     }
  56:src/../h/kernel.hpp **** 
  57:src/../h/kernel.hpp ****     static inline void w_sepc(uint64 x) {
  58:src/../h/kernel.hpp ****         __asm__ volatile("csrw sepc, %0" : : "r"(x));
  59:src/../h/kernel.hpp ****     }
  60:src/../h/kernel.hpp **** 
  61:src/../h/kernel.hpp ****     static inline uint64 r_sstatus() {
  62:src/../h/kernel.hpp ****         uint64 volatile x;
  63:src/../h/kernel.hpp ****         __asm__ volatile("csrr %0, sstatus" : "=r"(x));
  64:src/../h/kernel.hpp ****         return x;
  65:src/../h/kernel.hpp ****     }
  66:src/../h/kernel.hpp **** 
  67:src/../h/kernel.hpp ****     static inline void w_sstatus(uint64 x) {
  68:src/../h/kernel.hpp ****         __asm__ volatile("csrw sstatus, %0" : : "r"(x));
  69:src/../h/kernel.hpp ****     }
  70:src/../h/kernel.hpp **** 
  71:src/../h/kernel.hpp ****     static inline void ms_sstatus(uint64 mask) {
  72:src/../h/kernel.hpp ****         __asm__ volatile("csrs sstatus, %0" : : "r"(mask));
  73:src/../h/kernel.hpp ****     }
  74:src/../h/kernel.hpp **** 
  75:src/../h/kernel.hpp ****     static inline void mc_sstatus(uint64 mask) {
  76:src/../h/kernel.hpp ****         __asm__ volatile("csrc sstatus, %0" : : "r"(mask));
  81              		.loc 2 76 9
  82              		.loc 2 76 59 is_stmt 0
  83 0068 93070010 		li	a5,256
  84              	#APP
  85              	# 76 "src/../h/kernel.hpp" 1
  77              	    }
  86              		csrc sstatus, a5
  87              	# 0 "" 2
  88              	.LVL3:
  89              	#NO_APP
  90              	.LBE48:
  91              	.LBE47:
  33:src/kernel.cpp ****     __asm__ volatile("csrw sepc, ra"); //sepc = adresa odmah iza poziva ove funkcije (ra), da bi sr
  92              		.loc 1 33 5 is_stmt 1
  93              		.loc 1 33 38 is_stmt 0
  94              	#APP
  95              	# 33 "src/kernel.cpp" 1
  34              	    __asm__ volatile("sret"); //vrati se iz trap-a
  96              		csrw sepc, ra
  97              	# 0 "" 2
  98              		.loc 1 34 5 is_stmt 1
  99              		.loc 1 34 29 is_stmt 0
 100              	# 34 "src/kernel.cpp" 1
  35              	}
 101              		sret
 102              	# 0 "" 2
GAS LISTING /tmp/ccEb70is.s 			page 5


 103              		.loc 1 35 1
 104              	#NO_APP
 105 0078 03348100 		ld	s0,8(sp)
 106              		.cfi_restore 8
 107              		.cfi_def_cfa 2, 16
 108 007c 13010101 		addi	sp,sp,16
 109              		.cfi_def_cfa_offset 0
 110 0080 67800000 		jr	ra
 111              		.cfi_endproc
 112              	.LFE66:
 114              		.align	2
 115              		.globl	_ZN6Kernel11initBuffersEv
 117              	_ZN6Kernel11initBuffersEv:
 118              	.LFB67:
  36:src/kernel.cpp **** 
  37:src/kernel.cpp **** Buffer *Kernel::buffIN;
  38:src/kernel.cpp **** Buffer *Kernel::buffOUT;
  39:src/kernel.cpp **** 
  40:src/kernel.cpp **** void Kernel::initBuffers() {
 119              		.loc 1 40 28 is_stmt 1
 120              		.cfi_startproc
 121              		.cfi_personality 0x9b,DW.ref.__gxx_personality_v0
 122              		.cfi_lsda 0x1b,.LLSDA67
 123 0084 130101FE 		addi	sp,sp,-32
 124              		.cfi_def_cfa_offset 32
 125 0088 233C1100 		sd	ra,24(sp)
 126 008c 23388100 		sd	s0,16(sp)
 127 0090 23349100 		sd	s1,8(sp)
 128 0094 23302101 		sd	s2,0(sp)
 129              		.cfi_offset 1, -8
 130              		.cfi_offset 8, -16
 131              		.cfi_offset 9, -24
 132              		.cfi_offset 18, -32
 133 0098 13040102 		addi	s0,sp,32
 134              		.cfi_def_cfa 8, 0
  41:src/kernel.cpp ****     buffIN = new Buffer(512);
 135              		.loc 1 41 5
 136              	.LVL4:
 137              	.LBB49:
 138              	.LBB50:
 139              		.file 3 "src/../h/buffer.hpp"
   1:src/../h/buffer.hpp **** //
   2:src/../h/buffer.hpp **** // Created by os on 6/7/24.
   3:src/../h/buffer.hpp **** //
   4:src/../h/buffer.hpp **** 
   5:src/../h/buffer.hpp **** #ifndef BUFFER
   6:src/../h/buffer.hpp **** #define BUFFER
   7:src/../h/buffer.hpp **** 
   8:src/../h/buffer.hpp **** #include "semaphore.hpp"
   9:src/../h/buffer.hpp **** 
  10:src/../h/buffer.hpp **** 
  11:src/../h/buffer.hpp **** class Buffer
  12:src/../h/buffer.hpp **** {
  13:src/../h/buffer.hpp **** public:
  14:src/../h/buffer.hpp ****         void put(char item);
  15:src/../h/buffer.hpp ****         char get();
  16:src/../h/buffer.hpp ****         Buffer(int cap);
GAS LISTING /tmp/ccEb70is.s 			page 6


  17:src/../h/buffer.hpp ****         ~Buffer();
  18:src/../h/buffer.hpp ****         void* operator new(size_t size)
  19:src/../h/buffer.hpp ****         {
  20:src/../h/buffer.hpp ****             return MemoryAllocator::instance().kmem_alloc(size);
 140              		.loc 3 20 13
 141              	.LEHB0:
 142              		.loc 3 20 46 is_stmt 0
 143 009c 97000000 		call	_ZN15MemoryAllocator8instanceEv@plt
 143      E7800000 
 144              	.LVL5:
 145              		.loc 3 20 58
 146 00a4 93050003 		li	a1,48
 147 00a8 97000000 		call	_ZN15MemoryAllocator10kmem_allocEm@plt
 147      E7800000 
 148              	.LVL6:
 149              	.LEHE0:
 150 00b0 93040500 		mv	s1,a0
 151              	.LVL7:
 152              	.LBE50:
 153              	.LBE49:
 154              		.loc 1 41 28
 155 00b4 93050020 		li	a1,512
 156              	.LEHB1:
 157 00b8 97000000 		call	_ZN6BufferC1Ei@plt
 157      E7800000 
 158              	.LVL8:
 159              	.LEHE1:
 160              		.loc 1 41 12 discriminator 2
 161 00c0 97070000 		sd	s1,.LANCHOR0+8,a5
 161      23B09700 
  42:src/kernel.cpp ****     buffOUT = new Buffer(512);
 162              		.loc 1 42 5 is_stmt 1 discriminator 2
 163              	.LVL9:
 164              	.LBB51:
 165              	.LBB52:
 166              		.loc 3 20 13 discriminator 2
 167              	.LEHB2:
 168              		.loc 3 20 46 is_stmt 0 discriminator 2
 169 00c8 97000000 		call	_ZN15MemoryAllocator8instanceEv@plt
 169      E7800000 
 170              	.LVL10:
 171              		.loc 3 20 58 discriminator 2
 172 00d0 93050003 		li	a1,48
 173 00d4 97000000 		call	_ZN15MemoryAllocator10kmem_allocEm@plt
 173      E7800000 
 174              	.LVL11:
 175              	.LEHE2:
 176 00dc 93040500 		mv	s1,a0
 177              	.LVL12:
 178              	.LBE52:
 179              	.LBE51:
 180              		.loc 1 42 29 discriminator 2
 181 00e0 93050020 		li	a1,512
 182              	.LEHB3:
 183 00e4 97000000 		call	_ZN6BufferC1Ei@plt
 183      E7800000 
 184              	.LVL13:
GAS LISTING /tmp/ccEb70is.s 			page 7


 185              	.LEHE3:
 186              		.loc 1 42 13 discriminator 2
 187 00ec 97070000 		sd	s1,.LANCHOR0,a5
 187      23B09700 
  43:src/kernel.cpp **** }
 188              		.loc 1 43 1 discriminator 2
 189 00f4 83308101 		ld	ra,24(sp)
 190              		.cfi_remember_state
 191              		.cfi_restore 1
 192 00f8 03340101 		ld	s0,16(sp)
 193              		.cfi_restore 8
 194              		.cfi_def_cfa 2, 32
 195 00fc 83348100 		ld	s1,8(sp)
 196              		.cfi_restore 9
 197 0100 03390100 		ld	s2,0(sp)
 198              		.cfi_restore 18
 199 0104 13010102 		addi	sp,sp,32
 200              		.cfi_def_cfa_offset 0
 201 0108 67800000 		jr	ra
 202              	.L11:
 203              		.cfi_restore_state
 204 010c 13090500 		mv	s2,a0
 205              	.LVL14:
 206              	.LBB53:
 207              	.LBB54:
  21:src/../h/buffer.hpp ****         }
  22:src/../h/buffer.hpp ****         void operator delete(void* ptr)
  23:src/../h/buffer.hpp ****         {
  24:src/../h/buffer.hpp ****             MemoryAllocator::instance().kmem_free(ptr);
 208              		.loc 3 24 13 is_stmt 1
 209              		.loc 3 24 39 is_stmt 0
 210 0110 97000000 		call	_ZN15MemoryAllocator8instanceEv@plt
 210      E7800000 
 211              	.LVL15:
 212              		.loc 3 24 50
 213 0118 93850400 		mv	a1,s1
 214 011c 97000000 		call	_ZN15MemoryAllocator9kmem_freeEPv@plt
 214      E7800000 
 215              	.LVL16:
  25:src/../h/buffer.hpp ****             return;
 216              		.loc 3 25 13 is_stmt 1
 217 0124 13050900 		mv	a0,s2
 218              	.LEHB4:
 219 0128 97000000 		call	_Unwind_Resume@plt
 219      E7800000 
 220              	.LVL17:
 221              	.LEHE4:
 222              	.L12:
 223 0130 13090500 		mv	s2,a0
 224              	.LVL18:
 225              	.LBE54:
 226              	.LBE53:
 227              	.LBB55:
 228              	.LBB56:
  24:src/../h/buffer.hpp ****             return;
 229              		.loc 3 24 13
  24:src/../h/buffer.hpp ****             return;
GAS LISTING /tmp/ccEb70is.s 			page 8


 230              		.loc 3 24 39 is_stmt 0
 231 0134 97000000 		call	_ZN15MemoryAllocator8instanceEv@plt
 231      E7800000 
 232              	.LVL19:
  24:src/../h/buffer.hpp ****             return;
 233              		.loc 3 24 50
 234 013c 93850400 		mv	a1,s1
 235 0140 97000000 		call	_ZN15MemoryAllocator9kmem_freeEPv@plt
 235      E7800000 
 236              	.LVL20:
 237              		.loc 3 25 13 is_stmt 1
 238 0148 13050900 		mv	a0,s2
 239              	.LEHB5:
 240 014c 97000000 		call	_Unwind_Resume@plt
 240      E7800000 
 241              	.LVL21:
 242              	.LEHE5:
 243              	.LBE56:
 244              	.LBE55:
 245              		.cfi_endproc
 246              	.LFE67:
 247              		.globl	__gxx_personality_v0
 248              		.section	.gcc_except_table,"a",@progbits
 249              	.LLSDA67:
 250 0000 FF       		.byte	0xff
 251 0001 FF       		.byte	0xff
 252 0002 03       		.byte	0x3
 253 0003 4E       		.byte	0x4e
 254 0004 00000000 		.4byte	.LEHB0-.LFB67
 255 0008 00000000 		.4byte	.LEHE0-.LEHB0
 256 000c 00000000 		.4byte	0
 257 0010 00       		.byte	0
 258 0011 00000000 		.4byte	.LEHB1-.LFB67
 259 0015 00000000 		.4byte	.LEHE1-.LEHB1
 260 0019 00000000 		.4byte	.L11-.LFB67
 261 001d 00       		.byte	0
 262 001e 00000000 		.4byte	.LEHB2-.LFB67
 263 0022 00000000 		.4byte	.LEHE2-.LEHB2
 264 0026 00000000 		.4byte	0
 265 002a 00       		.byte	0
 266 002b 00000000 		.4byte	.LEHB3-.LFB67
 267 002f 00000000 		.4byte	.LEHE3-.LEHB3
 268 0033 00000000 		.4byte	.L12-.LFB67
 269 0037 00       		.byte	0
 270 0038 00000000 		.4byte	.LEHB4-.LFB67
 271 003c 00000000 		.4byte	.LEHE4-.LEHB4
 272 0040 00000000 		.4byte	0
 273 0044 00       		.byte	0
 274 0045 00000000 		.4byte	.LEHB5-.LFB67
 275 0049 00000000 		.4byte	.LEHE5-.LEHB5
 276 004d 00000000 		.4byte	0
 277 0051 00       		.byte	0
 278              		.text
 280              		.align	2
 281              		.globl	_ZN6Kernel4initEv
 283              	_ZN6Kernel4initEv:
 284              	.LFB64:
GAS LISTING /tmp/ccEb70is.s 			page 9


  10:src/kernel.cpp ****     initBuffers();
 285              		.loc 1 10 21
 286              		.cfi_startproc
 287 0154 130101FF 		addi	sp,sp,-16
 288              		.cfi_def_cfa_offset 16
 289 0158 23341100 		sd	ra,8(sp)
 290 015c 23308100 		sd	s0,0(sp)
 291              		.cfi_offset 1, -8
 292              		.cfi_offset 8, -16
 293 0160 13040101 		addi	s0,sp,16
 294              		.cfi_def_cfa 8, 0
  11:src/kernel.cpp ****     // set trap routine
 295              		.loc 1 11 5
  11:src/kernel.cpp ****     // set trap routine
 296              		.loc 1 11 16 is_stmt 0
 297 0164 97000000 		call	_ZN6Kernel11initBuffersEv
 297      E7800000 
 298              	.LVL22:
  13:src/kernel.cpp ****     //ms_sstatus(SstatusBits::SSTATUS_SIE);
 299              		.loc 1 13 5 is_stmt 1
  13:src/kernel.cpp ****     //ms_sstatus(SstatusBits::SSTATUS_SIE);
 300              		.loc 1 13 12 is_stmt 0
 301 016c 97070000 		la	a5,_ZN6Kernel14supervisorTrapEv
 301      83B70700 
 302              	.LVL23:
 303              	.LBB57:
 304              	.LBB58:
  78:src/../h/kernel.hpp **** 
  79:src/../h/kernel.hpp ****     static inline uint64 r_sip() { //koji prekid postoji? bit 0 softver; bit 9 spoljasni hardverski
  80:src/../h/kernel.hpp ****         uint64 volatile x;
  81:src/../h/kernel.hpp ****         __asm__ volatile("csrr %0, sip" : "=r"(x));
  82:src/../h/kernel.hpp ****         return x;
  83:src/../h/kernel.hpp ****     }
  84:src/../h/kernel.hpp **** 
  85:src/../h/kernel.hpp ****     static inline void ms_sip(uint64 mask) {
  86:src/../h/kernel.hpp ****         __asm__ volatile("csrs sip, %0" : : "r"(mask));
  87:src/../h/kernel.hpp ****     }
  88:src/../h/kernel.hpp **** 
  89:src/../h/kernel.hpp ****     static inline void mc_sip(uint64 mask) {
  90:src/../h/kernel.hpp ****         __asm__ volatile("csrc sip, %0" : : "r"(mask));
  91:src/../h/kernel.hpp ****     }
  92:src/../h/kernel.hpp **** 
  93:src/../h/kernel.hpp ****     static inline uint64 r_stvec() {
  94:src/../h/kernel.hpp ****         uint64 volatile x;
  95:src/../h/kernel.hpp ****         __asm__ volatile("csrr %0, stvec" : "=r"(x));
  96:src/../h/kernel.hpp ****         return x;
  97:src/../h/kernel.hpp ****     }
  98:src/../h/kernel.hpp **** 
  99:src/../h/kernel.hpp ****     static inline void w_stvec(uint64 x) {
 100:src/../h/kernel.hpp ****         __asm__ volatile("csrw stvec, %0" : : "r"(x));
 305              		.loc 2 100 9 is_stmt 1
 306              		.loc 2 100 54 is_stmt 0
 307              	#APP
 308              	# 100 "src/../h/kernel.hpp" 1
 101              	    }
 309              		csrw stvec, a5
 310              	# 0 "" 2
GAS LISTING /tmp/ccEb70is.s 			page 10


 311              	.LVL24:
 312              	#NO_APP
 313              	.LBE58:
 314              	.LBE57:
  18:src/kernel.cpp **** }
 315              		.loc 1 18 5 is_stmt 1
  18:src/kernel.cpp **** }
 316              		.loc 1 18 22 is_stmt 0
 317 0178 93050000 		li	a1,0
 318 017c 17050000 		lla	a0,_ZN6Kernel16outputThreadBodyEPv
 318      13050500 
 319 0184 97000000 		call	_ZN3TCB12createThreadEPFvPvES0_@plt
 319      E7800000 
 320              	.LVL25:
  19:src/kernel.cpp **** 
 321              		.loc 1 19 1
 322 018c 83308100 		ld	ra,8(sp)
 323              		.cfi_restore 1
 324 0190 03340100 		ld	s0,0(sp)
 325              		.cfi_restore 8
 326              		.cfi_def_cfa 2, 16
 327 0194 13010101 		addi	sp,sp,16
 328              		.cfi_def_cfa_offset 0
 329 0198 67800000 		jr	ra
 330              		.cfi_endproc
 331              	.LFE64:
 333              		.align	2
 334              		.globl	_ZN6Kernel21supervisorTrapHandlerEv
 336              	_ZN6Kernel21supervisorTrapHandlerEv:
 337              	.LFB68:
  44:src/kernel.cpp **** 
  45:src/kernel.cpp **** using Body = void (*)(void*);
  46:src/kernel.cpp **** 
  47:src/kernel.cpp **** void Kernel::supervisorTrapHandler()
  48:src/kernel.cpp **** {
 338              		.loc 1 48 1 is_stmt 1
 339              		.cfi_startproc
 340 019c 130101F9 		addi	sp,sp,-112
 341              		.cfi_def_cfa_offset 112
 342 01a0 23341106 		sd	ra,104(sp)
 343 01a4 23308106 		sd	s0,96(sp)
 344 01a8 233C9104 		sd	s1,88(sp)
 345 01ac 23382105 		sd	s2,80(sp)
 346 01b0 23343105 		sd	s3,72(sp)
 347              		.cfi_offset 1, -8
 348              		.cfi_offset 8, -16
 349              		.cfi_offset 9, -24
 350              		.cfi_offset 18, -32
 351              		.cfi_offset 19, -40
 352 01b4 13040107 		addi	s0,sp,112
 353              		.cfi_def_cfa 8, 0
  49:src/kernel.cpp ****     uint64 scause = r_scause();
 354              		.loc 1 49 5
 355              	.LBB59:
 356              	.LBB60:
  32:src/../h/kernel.hpp ****         __asm__ volatile("csrr %0, scause" : "=r"(x));
 357              		.loc 2 32 9
GAS LISTING /tmp/ccEb70is.s 			page 11


  33:src/../h/kernel.hpp ****         return x;
 358              		.loc 2 33 9
  33:src/../h/kernel.hpp ****         return x;
 359              		.loc 2 33 54 is_stmt 0
 360              	#APP
 361              	# 33 "src/../h/kernel.hpp" 1
 362              		csrr a5, scause
 363              	# 0 "" 2
 364              	#NO_APP
 365 01bc 2338F4FA 		sd	a5,-80(s0)
  34:src/../h/kernel.hpp ****     }
 366              		.loc 2 34 9 is_stmt 1
  34:src/../h/kernel.hpp ****     }
 367              		.loc 2 34 16 is_stmt 0
 368 01c0 033704FB 		ld	a4,-80(s0)
 369              	.LVL26:
 370              	.LBE60:
 371              	.LBE59:
  50:src/kernel.cpp ****     if(scause == 0x8000000000000001UL) {//timer interrupt can be recognized by the value 1 only in 
 372              		.loc 1 50 5 is_stmt 1
 373              	.LBB61:
 374 01c4 9307F0FF 		li	a5,-1
 375 01c8 9397F703 		slli	a5,a5,63
 376 01cc 93871700 		addi	a5,a5,1
 377 01d0 630EF702 		beq	a4,a5,.L52
 378              	.LBE61:
  51:src/kernel.cpp ****         mc_sip(BitMaskSip::SIP_SSIP); //clear the timer interrupt pending bit in the sip register
  52:src/kernel.cpp ****         TCB::time_tick();
  53:src/kernel.cpp ****     }
  54:src/kernel.cpp ****     else if(scause == 0x8000000000000009UL){ //Hardware interrupt
 379              		.loc 1 54 10
 380              	.LBB100:
 381              	.LBB62:
 382 01d4 9307F0FF 		li	a5,-1
 383 01d8 9397F703 		slli	a5,a5,63
 384 01dc 93879700 		addi	a5,a5,9
 385 01e0 6300F704 		beq	a4,a5,.L53
 386              	.LBE62:
 387              	.LBE100:
  55:src/kernel.cpp ****         int irq = plic_claim();
  56:src/kernel.cpp ****         if (irq == 10) // Keyboard interrupt
  57:src/kernel.cpp ****         {
  58:src/kernel.cpp ****             volatile char status = *((char *) CONSOLE_STATUS);
  59:src/kernel.cpp ****             while (status & CONSOLE_RX_STATUS_BIT) { //receive data dok god ima novopristiglih znak
  60:src/kernel.cpp ****                 char c = (*(char *) CONSOLE_RX_DATA);
  61:src/kernel.cpp ****                 if (!buffIN->full()) buffIN->put(c);
  62:src/kernel.cpp ****                 if (!buffOUT->full()) buffOUT->put(c); //eho na konzolu
  63:src/kernel.cpp ****                 status = *((char *) CONSOLE_STATUS);
  64:src/kernel.cpp ****             }
  65:src/kernel.cpp ****         }
  66:src/kernel.cpp ****         plic_complete(irq);
  67:src/kernel.cpp ****     }
  68:src/kernel.cpp ****     else if (scause == 0x0000000000000008UL || scause == 0x0000000000000009UL)
 388              		.loc 1 68 10
 389              	.LBB101:
 390              	.LBB95:
 391              	.LBB63:
GAS LISTING /tmp/ccEb70is.s 			page 12


 392              		.loc 1 68 45 is_stmt 0
 393 01e4 130787FF 		addi	a4,a4,-8
 394              	.LVL27:
 395              		.loc 1 68 10
 396 01e8 93071000 		li	a5,1
 397 01ec 63FEE70C 		bleu	a4,a5,.L54
 398              	.LVL28:
 399              	.L17:
 400              	.LBE63:
 401              	.LBE95:
 402              	.LBE101:
  69:src/kernel.cpp ****     {
  70:src/kernel.cpp ****         // Not external interupt
  71:src/kernel.cpp ****         // ecall from user or supervisor mode
  72:src/kernel.cpp **** 
  73:src/kernel.cpp ****         uint64 volatile sepc = r_sepc() + 4;
  74:src/kernel.cpp ****         uint64 volatile sstatus =  r_sstatus();
  75:src/kernel.cpp ****         
  76:src/kernel.cpp ****         uint64 volatile opcode = r_a0();
  77:src/kernel.cpp ****         KSemaphore* semHandlePtr;
  78:src/kernel.cpp ****         int returnValue;
  79:src/kernel.cpp ****         
  80:src/kernel.cpp ****         int value;
  81:src/kernel.cpp ****         void* pointer;
  82:src/kernel.cpp ****         switch (opcode) {
  83:src/kernel.cpp ****             case 0x01: //mem_alloc
  84:src/kernel.cpp ****                 size_t size;
  85:src/kernel.cpp ****                 __asm__ volatile("mv %0, a1" : "=r" (size));
  86:src/kernel.cpp **** 
  87:src/kernel.cpp ****                 pointer = MemoryAllocator::instance().kmem_alloc(size);
  88:src/kernel.cpp **** 
  89:src/kernel.cpp ****                 __asm__ volatile("mv t0, %0" : : "r"(pointer));
  90:src/kernel.cpp ****                 __asm__ volatile ("sw t0, 80(x8)"); //override previously stored a0 in memory to re
  91:src/kernel.cpp ****                 break;
  92:src/kernel.cpp **** 
  93:src/kernel.cpp ****             case 0x02: //mem_free
  94:src/kernel.cpp ****                 __asm__ volatile("mv %0, a1" : "=r" (pointer));
  95:src/kernel.cpp **** 
  96:src/kernel.cpp ****                 value = MemoryAllocator::instance().kmem_free(pointer);
  97:src/kernel.cpp **** 
  98:src/kernel.cpp ****                 __asm__ volatile("mv t0, %0" : : "r"(value));
  99:src/kernel.cpp ****                 __asm__ volatile ("sw t0, 80(x8)"); //override previously stored a0 in memory to re
 100:src/kernel.cpp ****                 break;
 101:src/kernel.cpp ****             case 0x11: // thread_create(*handle, start_routine, arg)
 102:src/kernel.cpp ****                 TCB** tcb; //handle is pointer to TCB, so we need pointer to pointer to TCB to writ
 103:src/kernel.cpp ****                 Body body; // pointer to function that takes a void pointer as an argument and retu
 104:src/kernel.cpp ****                 void* arg;
 105:src/kernel.cpp ****                 __asm__ volatile ("mv %0, a1" : "=r" (tcb));
 106:src/kernel.cpp ****                 __asm__ volatile ("mv %0, a2" : "=r" (body));
 107:src/kernel.cpp ****                 __asm__ volatile ("mv %0, a7" : "=r" (arg));
 108:src/kernel.cpp ****                 *tcb = TCB::createThread(body, arg);
 109:src/kernel.cpp ****                 if(*tcb != nullptr) {
 110:src/kernel.cpp ****                     //__asm__ volatile ("li a0, 0");
 111:src/kernel.cpp ****                     __asm__ volatile ("li t0, 0"); //load immediate 0 into t0 (success)
 112:src/kernel.cpp ****                     __asm__ volatile ("sw t0, 80(x8)"); //override previously stored a0 in memory t
 113:src/kernel.cpp ****                 }
 114:src/kernel.cpp ****                 else {
GAS LISTING /tmp/ccEb70is.s 			page 13


 115:src/kernel.cpp ****                     //__asm__ volatile ("li a0, -1");
 116:src/kernel.cpp ****                     __asm__ volatile ("li t0, -1"); //-1 = error
 117:src/kernel.cpp ****                     __asm__ volatile ("sw t0, 80(x8)"); //override previously stored a0 in memory t
 118:src/kernel.cpp ****                 }
 119:src/kernel.cpp ****                 break;
 120:src/kernel.cpp ****             case 0x12: // thread_exit
 121:src/kernel.cpp ****                 TCB::running->setFinished(true);
 122:src/kernel.cpp ****                 TCB::dispatch();
 123:src/kernel.cpp ****                 __asm__ volatile ("li t0, 0");
 124:src/kernel.cpp ****                 __asm__ volatile ("sw t0, 80(x8)"); //override previously stored a0 in memory to re
 125:src/kernel.cpp ****                 break;
 126:src/kernel.cpp ****             case 0x13: // thread_dispatch
 127:src/kernel.cpp ****                 TCB::dispatch();
 128:src/kernel.cpp ****                 break;
 129:src/kernel.cpp ****             case 0x21: //sem_open
 130:src/kernel.cpp ****                 unsigned init;
 131:src/kernel.cpp ****                 KSemaphore** semHandle;
 132:src/kernel.cpp **** 
 133:src/kernel.cpp ****                 __asm__ volatile ("mv %0, a2" : "=r" (init)); //initial value of semaphore
 134:src/kernel.cpp ****                 __asm__ volatile ("mv %0, a1" : "=r" (semHandle));
 135:src/kernel.cpp ****                 *semHandle = KSemaphore::createSemaphore(init);
 136:src/kernel.cpp **** 
 137:src/kernel.cpp ****                 if(*semHandle != nullptr) {
 138:src/kernel.cpp ****                     __asm__ volatile ("li t0, 0"); //load immediate 0 into t0 (success)
 139:src/kernel.cpp ****                     __asm__ volatile ("sw t0, 80(x8)"); //override a0 on stack to return value
 140:src/kernel.cpp ****                 }
 141:src/kernel.cpp ****                 else {
 142:src/kernel.cpp ****                     __asm__ volatile ("li t0, -1"); //load immediate -1 into t0 (error)
 143:src/kernel.cpp ****                     __asm__ volatile ("sw t0, 80(x8)");
 144:src/kernel.cpp ****                 }
 145:src/kernel.cpp ****                 break;
 146:src/kernel.cpp ****             case 0x22: //sem_close
 147:src/kernel.cpp ****                 __asm__ volatile ("mv %0, a1" : "=r" (semHandlePtr));
 148:src/kernel.cpp ****                 if(semHandlePtr!= nullptr) {
 149:src/kernel.cpp ****                     returnValue = semHandlePtr->close();
 150:src/kernel.cpp ****                 }
 151:src/kernel.cpp ****                 else returnValue = -2;
 152:src/kernel.cpp **** 
 153:src/kernel.cpp ****                 __asm__ volatile ("mv t0, %0" : : "r"(returnValue)); //load return value into tempo
 154:src/kernel.cpp ****                 __asm__ volatile ("sw t0, 80(x8)"); //override a0 on stack to return value
 155:src/kernel.cpp ****                 break;
 156:src/kernel.cpp ****             case 0x23: //sem_wait
 157:src/kernel.cpp ****                 __asm__ volatile ("mv %0, a1" : "=r" (semHandlePtr));
 158:src/kernel.cpp ****                 if(semHandlePtr!= nullptr) {
 159:src/kernel.cpp ****                     returnValue = semHandlePtr->kwait_n(1);
 160:src/kernel.cpp ****                 }
 161:src/kernel.cpp ****                 else returnValue = -2;
 162:src/kernel.cpp **** 
 163:src/kernel.cpp ****                 __asm__ volatile ("mv t0, %0" : : "r"(returnValue));
 164:src/kernel.cpp ****                 __asm__ volatile ("sw t0, 80(x8)"); 
 165:src/kernel.cpp ****                 break;
 166:src/kernel.cpp ****             case 0x24: //sem_signal
 167:src/kernel.cpp ****                 __asm__ volatile ("mv %0, a1" : "=r" (semHandlePtr));
 168:src/kernel.cpp ****                 if(semHandlePtr!= nullptr) {
 169:src/kernel.cpp ****                     returnValue = semHandlePtr->ksignal_n(1);
 170:src/kernel.cpp ****                 }
 171:src/kernel.cpp ****                 else returnValue = -2;
GAS LISTING /tmp/ccEb70is.s 			page 14


 172:src/kernel.cpp **** 
 173:src/kernel.cpp ****                 __asm__ volatile ("mv t0, %0" : : "r"(returnValue));
 174:src/kernel.cpp ****                 __asm__ volatile ("sw t0, 80(x8)");
 175:src/kernel.cpp ****                 break;
 176:src/kernel.cpp ****             case 0x25: // sem_wait_n
 177:src/kernel.cpp ****                 __asm__ volatile ("mv %0, a1" : "=r" (semHandlePtr));
 178:src/kernel.cpp ****                 __asm__ volatile ("mv %0, a2" : "=r" (value)); //n value
 179:src/kernel.cpp ****                 if(semHandlePtr!= nullptr) {
 180:src/kernel.cpp ****                     returnValue = semHandlePtr->kwait_n(value);
 181:src/kernel.cpp ****                 }
 182:src/kernel.cpp ****                 else returnValue = -2;
 183:src/kernel.cpp **** 
 184:src/kernel.cpp ****                 __asm__ volatile ("mv t0, %0" : : "r"(returnValue));
 185:src/kernel.cpp ****                 __asm__ volatile ("sw t0, 80(x8)");
 186:src/kernel.cpp ****                 break;
 187:src/kernel.cpp ****             case 0x26: // sem_signal_n
 188:src/kernel.cpp ****                 __asm__ volatile ("mv %0, a1" : "=r" (semHandlePtr));
 189:src/kernel.cpp ****                 __asm__ volatile ("mv %0, a2" : "=r" (value)); //n value
 190:src/kernel.cpp ****                 if(semHandlePtr!= nullptr) {
 191:src/kernel.cpp ****                     returnValue = semHandlePtr->ksignal_n(value);
 192:src/kernel.cpp ****                 }
 193:src/kernel.cpp ****                 else returnValue = -2;
 194:src/kernel.cpp ****                 break;
 195:src/kernel.cpp ****             case 0x31: // time_sleep
 196:src/kernel.cpp ****                 __asm__ volatile ("mv %0, a1" : "=r" (value)); //time value
 197:src/kernel.cpp ****                 returnValue = TCB::time_sleep(value);
 198:src/kernel.cpp ****                 __asm__ volatile ("mv t0, %0" : : "r"(returnValue));
 199:src/kernel.cpp ****                 __asm__ volatile ("sw t0, 80(x8)");
 200:src/kernel.cpp ****                 break;
 201:src/kernel.cpp ****             case 0x41: // getc
 202:src/kernel.cpp ****                 returnValue = buffIN->get();
 203:src/kernel.cpp ****                 __asm__ volatile ("mv t0, %0" : : "r"(returnValue));
 204:src/kernel.cpp ****                 __asm__ volatile ("sw t0, 80(x8)");
 205:src/kernel.cpp ****                 break;
 206:src/kernel.cpp ****             case 0x42: // putc
 207:src/kernel.cpp ****                 char c;
 208:src/kernel.cpp ****                 __asm__ volatile ("mv %0, a1" : "=r" (c));
 209:src/kernel.cpp ****                 buffOUT->put(c);
 210:src/kernel.cpp ****                 break;
 211:src/kernel.cpp ****             default:
 212:src/kernel.cpp ****                 break;
 213:src/kernel.cpp ****         }
 214:src/kernel.cpp **** 
 215:src/kernel.cpp ****         w_sstatus(sstatus);
 216:src/kernel.cpp ****         w_sepc(sepc);
 217:src/kernel.cpp ****     }
 218:src/kernel.cpp ****     
 219:src/kernel.cpp ****     return;
 220:src/kernel.cpp **** }...
 403              		.loc 1 220 1
 404 01f0 83308106 		ld	ra,104(sp)
 405              		.cfi_remember_state
 406              		.cfi_restore 1
 407 01f4 03340106 		ld	s0,96(sp)
 408              		.cfi_restore 8
 409              		.cfi_def_cfa 2, 112
 410 01f8 83348105 		ld	s1,88(sp)
GAS LISTING /tmp/ccEb70is.s 			page 15


 411              		.cfi_restore 9
 412 01fc 03390105 		ld	s2,80(sp)
 413              		.cfi_restore 18
 414 0200 83398104 		ld	s3,72(sp)
 415              		.cfi_restore 19
 416 0204 13010107 		addi	sp,sp,112
 417              		.cfi_def_cfa_offset 0
 418 0208 67800000 		jr	ra
 419              	.LVL29:
 420              	.L52:
 421              		.cfi_restore_state
 422              	.LBB102:
  51:src/kernel.cpp ****         mc_sip(BitMaskSip::SIP_SSIP); //clear the timer interrupt pending bit in the sip register
 423              		.loc 1 51 9 is_stmt 1
 424              	.LBB96:
 425              	.LBB97:
  90:src/../h/kernel.hpp ****     }
 426              		.loc 2 90 9
  90:src/../h/kernel.hpp ****     }
 427              		.loc 2 90 55 is_stmt 0
 428 020c 93072000 		li	a5,2
 429              	#APP
 430              	# 90 "src/../h/kernel.hpp" 1
 431              		csrc sip, a5
 432              	# 0 "" 2
 433              	.LVL30:
 434              	#NO_APP
 435              	.LBE97:
 436              	.LBE96:
  52:src/kernel.cpp ****         TCB::time_tick();
 437              		.loc 1 52 9 is_stmt 1
  52:src/kernel.cpp ****         TCB::time_tick();
 438              		.loc 1 52 23 is_stmt 0
 439 0214 97000000 		call	_ZN3TCB9time_tickEv@plt
 439      E7800000 
 440              	.LVL31:
 441 021c 6FF05FFD 		j	.L17
 442              	.LVL32:
 443              	.L53:
 444              	.LBB98:
 445              	.LBB82:
  55:src/kernel.cpp ****         int irq = plic_claim();
 446              		.loc 1 55 9 is_stmt 1
  55:src/kernel.cpp ****         int irq = plic_claim();
 447              		.loc 1 55 29 is_stmt 0
 448 0220 97000000 		call	plic_claim@plt
 448      E7800000 
 449              	.LVL33:
 450 0228 93040500 		mv	s1,a0
 451              	.LVL34:
  56:src/kernel.cpp ****         if (irq == 10) // Keyboard interrupt
 452              		.loc 1 56 9 is_stmt 1
 453              	.LBB83:
 454 022c 9307A000 		li	a5,10
 455 0230 630AF500 		beq	a0,a5,.L55
 456              	.LVL35:
 457              	.L21:
GAS LISTING /tmp/ccEb70is.s 			page 16


 458              	.LBE83:
  66:src/kernel.cpp ****         plic_complete(irq);
 459              		.loc 1 66 9
  66:src/kernel.cpp ****         plic_complete(irq);
 460              		.loc 1 66 22 is_stmt 0
 461 0234 13850400 		mv	a0,s1
 462 0238 97000000 		call	plic_complete@plt
 462      E7800000 
 463              	.LVL36:
 464              	.LBE82:
 465 0240 6FF01FFB 		j	.L17
 466              	.LVL37:
 467              	.L55:
 468              	.LBB92:
 469              	.LBB91:
 470              	.LBB84:
  58:src/kernel.cpp ****             volatile char status = *((char *) CONSOLE_STATUS);
 471              		.loc 1 58 13 is_stmt 1
  58:src/kernel.cpp ****             volatile char status = *((char *) CONSOLE_STATUS);
 472              		.loc 1 58 36 is_stmt 0
 473 0244 97070000 		la	a5,CONSOLE_STATUS
 473      83B70700 
 474 024c 03B90700 		ld	s2,0(a5)
 475 0250 83470900 		lbu	a5,0(s2)
  58:src/kernel.cpp ****             volatile char status = *((char *) CONSOLE_STATUS);
 476              		.loc 1 58 27
 477 0254 A30BF4F8 		sb	a5,-105(s0)
 478 0258 6F008002 		j	.L24
 479              	.LVL38:
 480              	.L56:
 481              	.LBB85:
  61:src/kernel.cpp ****                 if (!buffIN->full()) buffIN->put(c);
 482              		.loc 1 61 38 is_stmt 1 discriminator 1
  61:src/kernel.cpp ****                 if (!buffIN->full()) buffIN->put(c);
 483              		.loc 1 61 49 is_stmt 0 discriminator 1
 484 025c 93850900 		mv	a1,s3
 485 0260 97000000 		call	_ZN6Buffer3putEc@plt
 485      E7800000 
 486              	.LVL39:
 487 0268 6F008004 		j	.L22
 488              	.L57:
  62:src/kernel.cpp ****                 if (!buffOUT->full()) buffOUT->put(c); //eho na konzolu
 489              		.loc 1 62 39 is_stmt 1 discriminator 1
  62:src/kernel.cpp ****                 if (!buffOUT->full()) buffOUT->put(c); //eho na konzolu
 490              		.loc 1 62 51 is_stmt 0 discriminator 1
 491 026c 93850900 		mv	a1,s3
 492 0270 97000000 		call	_ZN6Buffer3putEc@plt
 492      E7800000 
 493              	.LVL40:
 494              	.L23:
  63:src/kernel.cpp ****                 status = *((char *) CONSOLE_STATUS);
 495              		.loc 1 63 17 is_stmt 1
  63:src/kernel.cpp ****                 status = *((char *) CONSOLE_STATUS);
 496              		.loc 1 63 26 is_stmt 0
 497 0278 83470900 		lbu	a5,0(s2)
  63:src/kernel.cpp ****                 status = *((char *) CONSOLE_STATUS);
 498              		.loc 1 63 24
GAS LISTING /tmp/ccEb70is.s 			page 17


 499 027c A30BF4F8 		sb	a5,-105(s0)
 500              	.LVL41:
 501              	.L24:
 502              	.LBE85:
  59:src/kernel.cpp ****             while (status & CONSOLE_RX_STATUS_BIT) { //receive data dok god ima novopristiglih znak
 503              		.loc 1 59 13 is_stmt 1
  59:src/kernel.cpp ****             while (status & CONSOLE_RX_STATUS_BIT) { //receive data dok god ima novopristiglih znak
 504              		.loc 1 59 29
  59:src/kernel.cpp ****             while (status & CONSOLE_RX_STATUS_BIT) { //receive data dok god ima novopristiglih znak
 505              		.loc 1 59 20 is_stmt 0
 506 0280 834774F9 		lbu	a5,-105(s0)
  59:src/kernel.cpp ****             while (status & CONSOLE_RX_STATUS_BIT) { //receive data dok god ima novopristiglih znak
 507              		.loc 1 59 29
 508 0284 93F71700 		andi	a5,a5,1
 509 0288 E38607FA 		beqz	a5,.L21
 510              	.LBB90:
  60:src/kernel.cpp ****                 char c = (*(char *) CONSOLE_RX_DATA);
 511              		.loc 1 60 17 is_stmt 1
  60:src/kernel.cpp ****                 char c = (*(char *) CONSOLE_RX_DATA);
 512              		.loc 1 60 27 is_stmt 0
 513 028c 97070000 		la	a5,CONSOLE_RX_DATA
 513      83B70700 
 514 0294 83B70700 		ld	a5,0(a5)
  60:src/kernel.cpp ****                 char c = (*(char *) CONSOLE_RX_DATA);
 515              		.loc 1 60 22
 516 0298 83C90700 		lbu	s3,0(a5)
 517              	.LVL42:
  61:src/kernel.cpp ****                 if (!buffIN->full()) buffIN->put(c);
 518              		.loc 1 61 17 is_stmt 1
  61:src/kernel.cpp ****                 if (!buffIN->full()) buffIN->put(c);
 519              		.loc 1 61 34 is_stmt 0
 520 029c 17050000 		ld	a0,.LANCHOR0+8
 520      03350500 
 521              	.LVL43:
 522              	.LBB86:
 523              	.LBB87:
  26:src/../h/buffer.hpp ****         }
  27:src/../h/buffer.hpp ****         bool full() { return cnt==cap;}
 524              		.loc 3 27 23 is_stmt 1
 525              		.loc 3 27 30 is_stmt 0
 526 02a4 03278502 		lw	a4,40(a0)
 527              		.loc 3 27 35
 528 02a8 83270500 		lw	a5,0(a0)
 529              	.LVL44:
 530              	.LBE87:
 531              	.LBE86:
  61:src/kernel.cpp ****                 if (!buffIN->full()) buffIN->put(c);
 532              		.loc 1 61 17
 533 02ac E318F7FA 		bne	a4,a5,.L56
 534              	.L22:
  62:src/kernel.cpp ****                 if (!buffOUT->full()) buffOUT->put(c); //eho na konzolu
 535              		.loc 1 62 17 is_stmt 1
  62:src/kernel.cpp ****                 if (!buffOUT->full()) buffOUT->put(c); //eho na konzolu
 536              		.loc 1 62 35 is_stmt 0
 537 02b0 17050000 		ld	a0,.LANCHOR0
 537      03350500 
 538              	.LVL45:
GAS LISTING /tmp/ccEb70is.s 			page 18


 539              	.LBB88:
 540              	.LBB89:
 541              		.loc 3 27 23 is_stmt 1
 542              		.loc 3 27 30 is_stmt 0
 543 02b8 03278502 		lw	a4,40(a0)
 544              		.loc 3 27 35
 545 02bc 83270500 		lw	a5,0(a0)
 546              	.LVL46:
 547              	.LBE89:
 548              	.LBE88:
  62:src/kernel.cpp ****                 if (!buffOUT->full()) buffOUT->put(c); //eho na konzolu
 549              		.loc 1 62 17
 550 02c0 E30CF7FA 		beq	a4,a5,.L23
 551 02c4 6FF09FFA 		j	.L57
 552              	.LVL47:
 553              	.L54:
 554              	.LBE90:
 555              	.LBE84:
 556              	.LBE91:
 557              	.LBE92:
 558              	.LBB93:
 559              	.LBB64:
  73:src/kernel.cpp ****         uint64 volatile sepc = r_sepc() + 4;
 560              		.loc 1 73 9 is_stmt 1
 561              	.LBB65:
 562              	.LBB66:
  52:src/../h/kernel.hpp ****         __asm__ volatile("csrr %0, sepc" : "=r"(x));
 563              		.loc 2 52 9
  53:src/../h/kernel.hpp ****         return x;
 564              		.loc 2 53 9
  53:src/../h/kernel.hpp ****         return x;
 565              		.loc 2 53 52 is_stmt 0
 566              	#APP
 567              	# 53 "src/../h/kernel.hpp" 1
 568              		csrr a5, sepc
 569              	# 0 "" 2
 570              	#NO_APP
 571 02cc 2334F4FC 		sd	a5,-56(s0)
  54:src/../h/kernel.hpp ****     }
 572              		.loc 2 54 9 is_stmt 1
  54:src/../h/kernel.hpp ****     }
 573              		.loc 2 54 16 is_stmt 0
 574 02d0 833784FC 		ld	a5,-56(s0)
 575              	.LBE66:
 576              	.LBE65:
  73:src/kernel.cpp ****         uint64 volatile sepc = r_sepc() + 4;
 577              		.loc 1 73 41
 578 02d4 93874700 		addi	a5,a5,4
  73:src/kernel.cpp ****         uint64 volatile sepc = r_sepc() + 4;
 579              		.loc 1 73 43
 580 02d8 233CF4F8 		sd	a5,-104(s0)
  74:src/kernel.cpp ****         uint64 volatile sstatus =  r_sstatus();
 581              		.loc 1 74 9 is_stmt 1
 582              	.LBB67:
 583              	.LBB68:
  62:src/../h/kernel.hpp ****         __asm__ volatile("csrr %0, sstatus" : "=r"(x));
 584              		.loc 2 62 9
GAS LISTING /tmp/ccEb70is.s 			page 19


  63:src/../h/kernel.hpp ****         return x;
 585              		.loc 2 63 9
  63:src/../h/kernel.hpp ****         return x;
 586              		.loc 2 63 55 is_stmt 0
 587              	#APP
 588              	# 63 "src/../h/kernel.hpp" 1
 589              		csrr a5, sstatus
 590              	# 0 "" 2
 591              	#NO_APP
 592 02e0 2330F4FC 		sd	a5,-64(s0)
  64:src/../h/kernel.hpp ****     }
 593              		.loc 2 64 9 is_stmt 1
  64:src/../h/kernel.hpp ****     }
 594              		.loc 2 64 16 is_stmt 0
 595 02e4 833704FC 		ld	a5,-64(s0)
 596              	.LBE68:
 597              	.LBE67:
  74:src/kernel.cpp ****         uint64 volatile sstatus =  r_sstatus();
 598              		.loc 1 74 46
 599 02e8 2330F4FA 		sd	a5,-96(s0)
  76:src/kernel.cpp ****         uint64 volatile opcode = r_a0();
 600              		.loc 1 76 9 is_stmt 1
 601              	.LBB69:
 602              	.LBB70:
  38:src/../h/kernel.hpp ****         __asm__ volatile("mv %0, a0" : "=r"(x));
 603              		.loc 2 38 9
  39:src/../h/kernel.hpp ****         return x;
 604              		.loc 2 39 9
  39:src/../h/kernel.hpp ****         return x;
 605              		.loc 2 39 48 is_stmt 0
 606              	#APP
 607              	# 39 "src/../h/kernel.hpp" 1
 608              		mv a5, a0
 609              	# 0 "" 2
 610              	#NO_APP
 611 02f0 233CF4FA 		sd	a5,-72(s0)
  40:src/../h/kernel.hpp ****     }
 612              		.loc 2 40 9 is_stmt 1
  40:src/../h/kernel.hpp ****     }
 613              		.loc 2 40 16 is_stmt 0
 614 02f4 833784FB 		ld	a5,-72(s0)
 615              	.LBE70:
 616              	.LBE69:
  76:src/kernel.cpp ****         uint64 volatile opcode = r_a0();
 617              		.loc 1 76 39
 618 02f8 2334F4FA 		sd	a5,-88(s0)
  77:src/kernel.cpp ****         KSemaphore* semHandlePtr;
 619              		.loc 1 77 9 is_stmt 1
  78:src/kernel.cpp ****         int returnValue;
 620              		.loc 1 78 9
  80:src/kernel.cpp ****         int value;
 621              		.loc 1 80 9
  81:src/kernel.cpp ****         void* pointer;
 622              		.loc 1 81 9
  82:src/kernel.cpp ****         switch (opcode) {
 623              		.loc 1 82 9
 624              	.LBB71:
GAS LISTING /tmp/ccEb70is.s 			page 20


  82:src/kernel.cpp ****         switch (opcode) {
 625              		.loc 1 82 17 is_stmt 0
 626 02fc 833784FA 		ld	a5,-88(s0)
 627 0300 13072004 		li	a4,66
 628              	.LVL48:
 629 0304 6360F704 		bgtu	a5,a4,.L25
 630 0308 93972700 		slli	a5,a5,2
 631 030c 17070000 		lla	a4,.L27
 631      13070700 
 632 0314 B387E700 		add	a5,a5,a4
 633 0318 83A70700 		lw	a5,0(a5)
 634 031c B387E700 		add	a5,a5,a4
 635 0320 67800700 		jr	a5
 636              		.section	.rodata
 637              		.align	2
 638              		.align	2
 639              	.L27:
 640 0000 00000000 		.word	.L25-.L27
 641 0004 00000000 		.word	.L40-.L27
 642 0008 00000000 		.word	.L39-.L27
 643 000c 00000000 		.word	.L25-.L27
 644 0010 00000000 		.word	.L25-.L27
 645 0014 00000000 		.word	.L25-.L27
 646 0018 00000000 		.word	.L25-.L27
 647 001c 00000000 		.word	.L25-.L27
 648 0020 00000000 		.word	.L25-.L27
 649 0024 00000000 		.word	.L25-.L27
 650 0028 00000000 		.word	.L25-.L27
 651 002c 00000000 		.word	.L25-.L27
 652 0030 00000000 		.word	.L25-.L27
 653 0034 00000000 		.word	.L25-.L27
 654 0038 00000000 		.word	.L25-.L27
 655 003c 00000000 		.word	.L25-.L27
 656 0040 00000000 		.word	.L25-.L27
 657 0044 00000000 		.word	.L38-.L27
 658 0048 00000000 		.word	.L37-.L27
 659 004c 00000000 		.word	.L36-.L27
 660 0050 00000000 		.word	.L25-.L27
 661 0054 00000000 		.word	.L25-.L27
 662 0058 00000000 		.word	.L25-.L27
 663 005c 00000000 		.word	.L25-.L27
 664 0060 00000000 		.word	.L25-.L27
 665 0064 00000000 		.word	.L25-.L27
 666 0068 00000000 		.word	.L25-.L27
 667 006c 00000000 		.word	.L25-.L27
 668 0070 00000000 		.word	.L25-.L27
 669 0074 00000000 		.word	.L25-.L27
 670 0078 00000000 		.word	.L25-.L27
 671 007c 00000000 		.word	.L25-.L27
 672 0080 00000000 		.word	.L25-.L27
 673 0084 00000000 		.word	.L35-.L27
 674 0088 00000000 		.word	.L34-.L27
 675 008c 00000000 		.word	.L33-.L27
 676 0090 00000000 		.word	.L32-.L27
 677 0094 00000000 		.word	.L31-.L27
 678 0098 00000000 		.word	.L30-.L27
 679 009c 00000000 		.word	.L25-.L27
GAS LISTING /tmp/ccEb70is.s 			page 21


 680 00a0 00000000 		.word	.L25-.L27
 681 00a4 00000000 		.word	.L25-.L27
 682 00a8 00000000 		.word	.L25-.L27
 683 00ac 00000000 		.word	.L25-.L27
 684 00b0 00000000 		.word	.L25-.L27
 685 00b4 00000000 		.word	.L25-.L27
 686 00b8 00000000 		.word	.L25-.L27
 687 00bc 00000000 		.word	.L25-.L27
 688 00c0 00000000 		.word	.L25-.L27
 689 00c4 00000000 		.word	.L29-.L27
 690 00c8 00000000 		.word	.L25-.L27
 691 00cc 00000000 		.word	.L25-.L27
 692 00d0 00000000 		.word	.L25-.L27
 693 00d4 00000000 		.word	.L25-.L27
 694 00d8 00000000 		.word	.L25-.L27
 695 00dc 00000000 		.word	.L25-.L27
 696 00e0 00000000 		.word	.L25-.L27
 697 00e4 00000000 		.word	.L25-.L27
 698 00e8 00000000 		.word	.L25-.L27
 699 00ec 00000000 		.word	.L25-.L27
 700 00f0 00000000 		.word	.L25-.L27
 701 00f4 00000000 		.word	.L25-.L27
 702 00f8 00000000 		.word	.L25-.L27
 703 00fc 00000000 		.word	.L25-.L27
 704 0100 00000000 		.word	.L25-.L27
 705 0104 00000000 		.word	.L28-.L27
 706 0108 00000000 		.word	.L26-.L27
 707              		.text
 708              	.L40:
 709              	.LBB72:
  83:src/kernel.cpp ****             case 0x01: //mem_alloc
 710              		.loc 1 83 13 is_stmt 1
  84:src/kernel.cpp ****                 size_t size;
 711              		.loc 1 84 17
  85:src/kernel.cpp ****                 __asm__ volatile("mv %0, a1" : "=r" (size));
 712              		.loc 1 85 17
  85:src/kernel.cpp ****                 __asm__ volatile("mv %0, a1" : "=r" (size));
 713              		.loc 1 85 60 is_stmt 0
 714              	#APP
 715              	# 85 "src/kernel.cpp" 1
 716              		mv s1, a1
 717              	# 0 "" 2
 718              	.LVL49:
  87:src/kernel.cpp ****                 pointer = MemoryAllocator::instance().kmem_alloc(size);
 719              		.loc 1 87 17 is_stmt 1
  87:src/kernel.cpp ****                 pointer = MemoryAllocator::instance().kmem_alloc(size);
 720              		.loc 1 87 53 is_stmt 0
 721              	#NO_APP
 722 0328 97000000 		call	_ZN15MemoryAllocator8instanceEv@plt
 722      E7800000 
 723              	.LVL50:
  87:src/kernel.cpp ****                 pointer = MemoryAllocator::instance().kmem_alloc(size);
 724              		.loc 1 87 65
 725 0330 93850400 		mv	a1,s1
 726 0334 97000000 		call	_ZN15MemoryAllocator10kmem_allocEm@plt
 726      E7800000 
 727              	.LVL51:
GAS LISTING /tmp/ccEb70is.s 			page 22


  89:src/kernel.cpp ****                 __asm__ volatile("mv t0, %0" : : "r"(pointer));
 728              		.loc 1 89 17 is_stmt 1
  89:src/kernel.cpp ****                 __asm__ volatile("mv t0, %0" : : "r"(pointer));
 729              		.loc 1 89 63 is_stmt 0
 730              	#APP
 731              	# 89 "src/kernel.cpp" 1
  90:src/kernel.cpp ****                 __asm__ volatile ("sw t0, 80(x8)"); //override previously stored a0 in memory to re
 732              		mv t0, a0
 733              	# 0 "" 2
 734              		.loc 1 90 17 is_stmt 1
  90:src/kernel.cpp ****                 __asm__ volatile ("sw t0, 80(x8)"); //override previously stored a0 in memory to re
 735              		.loc 1 90 51 is_stmt 0
 736              	# 90 "src/kernel.cpp" 1
  91:src/kernel.cpp ****                 break;
 737              		sw t0, 80(x8)
 738              	# 0 "" 2
 739              		.loc 1 91 17 is_stmt 1
 740              	.LVL52:
 741              	#NO_APP
 742              	.L25:
 743              	.LBE72:
 744              	.LBE71:
 215:src/kernel.cpp ****         w_sstatus(sstatus);
 745              		.loc 1 215 9
 215:src/kernel.cpp ****         w_sstatus(sstatus);
 746              		.loc 1 215 18 is_stmt 0
 747 0344 833704FA 		ld	a5,-96(s0)
 748              	.LVL53:
 749              	.LBB76:
 750              	.LBB77:
  68:src/../h/kernel.hpp ****     }
 751              		.loc 2 68 9 is_stmt 1
  68:src/../h/kernel.hpp ****     }
 752              		.loc 2 68 56 is_stmt 0
 753              	#APP
 754              	# 68 "src/../h/kernel.hpp" 1
 755              		csrw sstatus, a5
 756              	# 0 "" 2
 757              	.LVL54:
 758              	#NO_APP
 759              	.LBE77:
 760              	.LBE76:
 216:src/kernel.cpp ****         w_sepc(sepc);
 761              		.loc 1 216 9 is_stmt 1
 216:src/kernel.cpp ****         w_sepc(sepc);
 762              		.loc 1 216 15 is_stmt 0
 763 034c 833784F9 		ld	a5,-104(s0)
 764              	.LVL55:
 765              	.LBB78:
 766              	.LBB79:
  58:src/../h/kernel.hpp ****     }
 767              		.loc 2 58 9 is_stmt 1
  58:src/../h/kernel.hpp ****     }
 768              		.loc 2 58 53 is_stmt 0
 769              	#APP
 770              	# 58 "src/../h/kernel.hpp" 1
 771              		csrw sepc, a5
GAS LISTING /tmp/ccEb70is.s 			page 23


 772              	# 0 "" 2
 773              	.LVL56:
 774              	#NO_APP
 775              	.LBE79:
 776              	.LBE78:
 777              	.LBE64:
 778              	.LBE93:
 779              	.LBE98:
 780              	.LBE102:
 219:src/kernel.cpp ****     return;
 781              		.loc 1 219 5 is_stmt 1
 782 0354 6FF0DFE9 		j	.L17
 783              	.L39:
 784              	.LBB103:
 785              	.LBB99:
 786              	.LBB94:
 787              	.LBB81:
 788              	.LBB80:
 789              	.LBB75:
  93:src/kernel.cpp ****             case 0x02: //mem_free
 790              		.loc 1 93 13
  94:src/kernel.cpp ****                 __asm__ volatile("mv %0, a1" : "=r" (pointer));
 791              		.loc 1 94 17
  94:src/kernel.cpp ****                 __asm__ volatile("mv %0, a1" : "=r" (pointer));
 792              		.loc 1 94 63 is_stmt 0
 793              	#APP
 794              	# 94 "src/kernel.cpp" 1
 795              		mv s1, a1
 796              	# 0 "" 2
 797              	.LVL57:
  96:src/kernel.cpp ****                 value = MemoryAllocator::instance().kmem_free(pointer);
 798              		.loc 1 96 17 is_stmt 1
  96:src/kernel.cpp ****                 value = MemoryAllocator::instance().kmem_free(pointer);
 799              		.loc 1 96 51 is_stmt 0
 800              	#NO_APP
 801 035c 97000000 		call	_ZN15MemoryAllocator8instanceEv@plt
 801      E7800000 
 802              	.LVL58:
  96:src/kernel.cpp ****                 value = MemoryAllocator::instance().kmem_free(pointer);
 803              		.loc 1 96 62
 804 0364 93850400 		mv	a1,s1
 805 0368 97000000 		call	_ZN15MemoryAllocator9kmem_freeEPv@plt
 805      E7800000 
 806              	.LVL59:
  98:src/kernel.cpp ****                 __asm__ volatile("mv t0, %0" : : "r"(value));
 807              		.loc 1 98 17 is_stmt 1
  98:src/kernel.cpp ****                 __asm__ volatile("mv t0, %0" : : "r"(value));
 808              		.loc 1 98 61 is_stmt 0
 809              	#APP
 810              	# 98 "src/kernel.cpp" 1
  99:src/kernel.cpp ****                 __asm__ volatile ("sw t0, 80(x8)"); //override previously stored a0 in memory to re
 811              		mv t0, a0
 812              	# 0 "" 2
 813              		.loc 1 99 17 is_stmt 1
  99:src/kernel.cpp ****                 __asm__ volatile ("sw t0, 80(x8)"); //override previously stored a0 in memory to re
 814              		.loc 1 99 51 is_stmt 0
 815              	# 99 "src/kernel.cpp" 1
GAS LISTING /tmp/ccEb70is.s 			page 24


 100:src/kernel.cpp ****                 break;
 816              		sw t0, 80(x8)
 817              	# 0 "" 2
 818              		.loc 1 100 17 is_stmt 1
 819              	#NO_APP
 820 0378 6FF0DFFC 		j	.L25
 821              	.LVL60:
 822              	.L38:
 101:src/kernel.cpp ****             case 0x11: // thread_create(*handle, start_routine, arg)
 823              		.loc 1 101 13
 102:src/kernel.cpp ****                 TCB** tcb; //handle is pointer to TCB, so we need pointer to pointer to TCB to writ
 824              		.loc 1 102 17
 103:src/kernel.cpp ****                 Body body; // pointer to function that takes a void pointer as an argument and retu
 825              		.loc 1 103 17
 104:src/kernel.cpp ****                 void* arg;
 826              		.loc 1 104 17
 105:src/kernel.cpp ****                 __asm__ volatile ("mv %0, a1" : "=r" (tcb));
 827              		.loc 1 105 17
 105:src/kernel.cpp ****                 __asm__ volatile ("mv %0, a1" : "=r" (tcb));
 828              		.loc 1 105 60 is_stmt 0
 829              	#APP
 830              	# 105 "src/kernel.cpp" 1
 831              		mv s1, a1
 832              	# 0 "" 2
 833              	.LVL61:
 106:src/kernel.cpp ****                 __asm__ volatile ("mv %0, a2" : "=r" (body));
 834              		.loc 1 106 17 is_stmt 1
 106:src/kernel.cpp ****                 __asm__ volatile ("mv %0, a2" : "=r" (body));
 835              		.loc 1 106 61 is_stmt 0
 836              	# 106 "src/kernel.cpp" 1
 837              		mv a0, a2
 838              	# 0 "" 2
 839              	.LVL62:
 107:src/kernel.cpp ****                 __asm__ volatile ("mv %0, a7" : "=r" (arg));
 840              		.loc 1 107 17 is_stmt 1
 107:src/kernel.cpp ****                 __asm__ volatile ("mv %0, a7" : "=r" (arg));
 841              		.loc 1 107 60 is_stmt 0
 842              	# 107 "src/kernel.cpp" 1
 843              		mv a1, a7
 844              	# 0 "" 2
 845              	.LVL63:
 108:src/kernel.cpp ****                 *tcb = TCB::createThread(body, arg);
 846              		.loc 1 108 17 is_stmt 1
 108:src/kernel.cpp ****                 *tcb = TCB::createThread(body, arg);
 847              		.loc 1 108 41 is_stmt 0
 848              	#NO_APP
 849 0388 97000000 		call	_ZN3TCB12createThreadEPFvPvES0_@plt
 849      E7800000 
 850              	.LVL64:
 108:src/kernel.cpp ****                 *tcb = TCB::createThread(body, arg);
 851              		.loc 1 108 22
 852 0390 23B0A400 		sd	a0,0(s1)
 109:src/kernel.cpp ****                 if(*tcb != nullptr) {
 853              		.loc 1 109 17 is_stmt 1
 854 0394 63080500 		beqz	a0,.L41
 111:src/kernel.cpp ****                     __asm__ volatile ("li t0, 0"); //load immediate 0 into t0 (success)
 855              		.loc 1 111 21
GAS LISTING /tmp/ccEb70is.s 			page 25


 111:src/kernel.cpp ****                     __asm__ volatile ("li t0, 0"); //load immediate 0 into t0 (success)
 856              		.loc 1 111 50 is_stmt 0
 857              	#APP
 858              	# 111 "src/kernel.cpp" 1
 112:src/kernel.cpp ****                     __asm__ volatile ("sw t0, 80(x8)"); //override previously stored a0 in memory t
 859              		li t0, 0
 860              	# 0 "" 2
 861              		.loc 1 112 21 is_stmt 1
 112:src/kernel.cpp ****                     __asm__ volatile ("sw t0, 80(x8)"); //override previously stored a0 in memory t
 862              		.loc 1 112 55 is_stmt 0
 863              	# 112 "src/kernel.cpp" 1
 864              		sw t0, 80(x8)
 865              	# 0 "" 2
 866              	#NO_APP
 867 03a0 6FF05FFA 		j	.L25
 868              	.L41:
 116:src/kernel.cpp ****                     __asm__ volatile ("li t0, -1"); //-1 = error
 869              		.loc 1 116 21 is_stmt 1
 116:src/kernel.cpp ****                     __asm__ volatile ("li t0, -1"); //-1 = error
 870              		.loc 1 116 51 is_stmt 0
 871              	#APP
 872              	# 116 "src/kernel.cpp" 1
 117:src/kernel.cpp ****                     __asm__ volatile ("sw t0, 80(x8)"); //override previously stored a0 in memory t
 873              		li t0, -1
 874              	# 0 "" 2
 875              		.loc 1 117 21 is_stmt 1
 117:src/kernel.cpp ****                     __asm__ volatile ("sw t0, 80(x8)"); //override previously stored a0 in memory t
 876              		.loc 1 117 55 is_stmt 0
 877              	# 117 "src/kernel.cpp" 1
 878              		sw t0, 80(x8)
 879              	# 0 "" 2
 880              	#NO_APP
 881 03ac 6FF09FF9 		j	.L25
 882              	.LVL65:
 883              	.L37:
 120:src/kernel.cpp ****             case 0x12: // thread_exit
 884              		.loc 1 120 13 is_stmt 1
 121:src/kernel.cpp ****                 TCB::running->setFinished(true);
 885              		.loc 1 121 17
 121:src/kernel.cpp ****                 TCB::running->setFinished(true);
 886              		.loc 1 121 42 is_stmt 0
 887 03b0 97070000 		la	a5,_ZN3TCB7runningE
 887      83B70700 
 888 03b8 83B70700 		ld	a5,0(a5)
 889              	.LVL66:
 890              	.LBB73:
 891              	.LBB74:
 892              		.file 4 "src/../h/tcb.hpp"
   1:src/../h/tcb.hpp **** #ifndef OS1_VEZBE07_RISCV_CONTEXT_SWITCH_2_INTERRUPT_TCB_HPP
   2:src/../h/tcb.hpp **** #define OS1_VEZBE07_RISCV_CONTEXT_SWITCH_2_INTERRUPT_TCB_HPP
   3:src/../h/tcb.hpp **** 
   4:src/../h/tcb.hpp **** #include "../lib/hw.h"
   5:src/../h/tcb.hpp **** #include "scheduler.hpp"
   6:src/../h/tcb.hpp **** 
   7:src/../h/tcb.hpp **** // Thread Control Block
   8:src/../h/tcb.hpp **** class TCB
   9:src/../h/tcb.hpp **** {
GAS LISTING /tmp/ccEb70is.s 			page 26


  10:src/../h/tcb.hpp **** public:
  11:src/../h/tcb.hpp ****     ~TCB() { delete[] stack; }
  12:src/../h/tcb.hpp **** 
  13:src/../h/tcb.hpp ****     bool isFinished() const { return finished; }
  14:src/../h/tcb.hpp **** 
  15:src/../h/tcb.hpp ****     void setFinished(bool value) { finished = value; }
 893              		.loc 4 15 36 is_stmt 1
 894              		.loc 4 15 45 is_stmt 0
 895 03bc 13071000 		li	a4,1
 896 03c0 2380E702 		sb	a4,32(a5)
 897              	.LVL67:
 898              	.LBE74:
 899              	.LBE73:
 122:src/kernel.cpp ****                 TCB::dispatch();
 900              		.loc 1 122 17 is_stmt 1
 122:src/kernel.cpp ****                 TCB::dispatch();
 901              		.loc 1 122 30 is_stmt 0
 902 03c4 97000000 		call	_ZN3TCB8dispatchEv@plt
 902      E7800000 
 903              	.LVL68:
 123:src/kernel.cpp ****                 __asm__ volatile ("li t0, 0");
 904              		.loc 1 123 17 is_stmt 1
 123:src/kernel.cpp ****                 __asm__ volatile ("li t0, 0");
 905              		.loc 1 123 46 is_stmt 0
 906              	#APP
 907              	# 123 "src/kernel.cpp" 1
 124:src/kernel.cpp ****                 __asm__ volatile ("sw t0, 80(x8)"); //override previously stored a0 in memory to re
 908              		li t0, 0
 909              	# 0 "" 2
 910              		.loc 1 124 17 is_stmt 1
 124:src/kernel.cpp ****                 __asm__ volatile ("sw t0, 80(x8)"); //override previously stored a0 in memory to re
 911              		.loc 1 124 51 is_stmt 0
 912              	# 124 "src/kernel.cpp" 1
 125:src/kernel.cpp ****                 break;
 913              		sw t0, 80(x8)
 914              	# 0 "" 2
 915              		.loc 1 125 17 is_stmt 1
 916              	#NO_APP
 917 03d4 6FF01FF7 		j	.L25
 918              	.L36:
 126:src/kernel.cpp ****             case 0x13: // thread_dispatch
 919              		.loc 1 126 13
 127:src/kernel.cpp ****                 TCB::dispatch();
 920              		.loc 1 127 17
 127:src/kernel.cpp ****                 TCB::dispatch();
 921              		.loc 1 127 30 is_stmt 0
 922 03d8 97000000 		call	_ZN3TCB8dispatchEv@plt
 922      E7800000 
 923              	.LVL69:
 128:src/kernel.cpp ****                 break;
 924              		.loc 1 128 17 is_stmt 1
 925 03e0 6FF05FF6 		j	.L25
 926              	.L35:
 129:src/kernel.cpp ****             case 0x21: //sem_open
 927              		.loc 1 129 13
 130:src/kernel.cpp ****                 unsigned init;
 928              		.loc 1 130 17
GAS LISTING /tmp/ccEb70is.s 			page 27


 131:src/kernel.cpp ****                 KSemaphore** semHandle;
 929              		.loc 1 131 17
 133:src/kernel.cpp ****                 __asm__ volatile ("mv %0, a2" : "=r" (init)); //initial value of semaphore
 930              		.loc 1 133 17
 133:src/kernel.cpp ****                 __asm__ volatile ("mv %0, a2" : "=r" (init)); //initial value of semaphore
 931              		.loc 1 133 61 is_stmt 0
 932              	#APP
 933              	# 133 "src/kernel.cpp" 1
 934              		mv a0, a2
 935              	# 0 "" 2
 936              	#NO_APP
 937 03e8 1B050500 		sext.w	a0,a0
 938              	.LVL70:
 134:src/kernel.cpp ****                 __asm__ volatile ("mv %0, a1" : "=r" (semHandle));
 939              		.loc 1 134 17 is_stmt 1
 134:src/kernel.cpp ****                 __asm__ volatile ("mv %0, a1" : "=r" (semHandle));
 940              		.loc 1 134 66 is_stmt 0
 941              	#APP
 942              	# 134 "src/kernel.cpp" 1
 943              		mv s1, a1
 944              	# 0 "" 2
 945              	.LVL71:
 135:src/kernel.cpp ****                 *semHandle = KSemaphore::createSemaphore(init);
 946              		.loc 1 135 17 is_stmt 1
 135:src/kernel.cpp ****                 *semHandle = KSemaphore::createSemaphore(init);
 947              		.loc 1 135 57 is_stmt 0
 948              	#NO_APP
 949 03f0 97000000 		call	_ZN10KSemaphore15createSemaphoreEj@plt
 949      E7800000 
 950              	.LVL72:
 135:src/kernel.cpp ****                 *semHandle = KSemaphore::createSemaphore(init);
 951              		.loc 1 135 28
 952 03f8 23B0A400 		sd	a0,0(s1)
 137:src/kernel.cpp ****                 if(*semHandle != nullptr) {
 953              		.loc 1 137 17 is_stmt 1
 954 03fc 63080500 		beqz	a0,.L42
 138:src/kernel.cpp ****                     __asm__ volatile ("li t0, 0"); //load immediate 0 into t0 (success)
 955              		.loc 1 138 21
 138:src/kernel.cpp ****                     __asm__ volatile ("li t0, 0"); //load immediate 0 into t0 (success)
 956              		.loc 1 138 50 is_stmt 0
 957              	#APP
 958              	# 138 "src/kernel.cpp" 1
 139:src/kernel.cpp ****                     __asm__ volatile ("sw t0, 80(x8)"); //override a0 on stack to return value
 959              		li t0, 0
 960              	# 0 "" 2
 961              		.loc 1 139 21 is_stmt 1
 139:src/kernel.cpp ****                     __asm__ volatile ("sw t0, 80(x8)"); //override a0 on stack to return value
 962              		.loc 1 139 55 is_stmt 0
 963              	# 139 "src/kernel.cpp" 1
 964              		sw t0, 80(x8)
 965              	# 0 "" 2
 966              	#NO_APP
 967 0408 6FF0DFF3 		j	.L25
 968              	.L42:
 142:src/kernel.cpp ****                     __asm__ volatile ("li t0, -1"); //load immediate -1 into t0 (error)
 969              		.loc 1 142 21 is_stmt 1
 142:src/kernel.cpp ****                     __asm__ volatile ("li t0, -1"); //load immediate -1 into t0 (error)
GAS LISTING /tmp/ccEb70is.s 			page 28


 970              		.loc 1 142 51 is_stmt 0
 971              	#APP
 972              	# 142 "src/kernel.cpp" 1
 143:src/kernel.cpp ****                     __asm__ volatile ("sw t0, 80(x8)");
 973              		li t0, -1
 974              	# 0 "" 2
 975              		.loc 1 143 21 is_stmt 1
 143:src/kernel.cpp ****                     __asm__ volatile ("sw t0, 80(x8)");
 976              		.loc 1 143 55 is_stmt 0
 977              	# 143 "src/kernel.cpp" 1
 978              		sw t0, 80(x8)
 979              	# 0 "" 2
 980              	#NO_APP
 981 0414 6FF01FF3 		j	.L25
 982              	.LVL73:
 983              	.L34:
 146:src/kernel.cpp ****             case 0x22: //sem_close
 984              		.loc 1 146 13 is_stmt 1
 147:src/kernel.cpp ****                 __asm__ volatile ("mv %0, a1" : "=r" (semHandlePtr));
 985              		.loc 1 147 17
 147:src/kernel.cpp ****                 __asm__ volatile ("mv %0, a1" : "=r" (semHandlePtr));
 986              		.loc 1 147 69 is_stmt 0
 987              	#APP
 988              	# 147 "src/kernel.cpp" 1
 989              		mv a0, a1
 990              	# 0 "" 2
 991              	.LVL74:
 148:src/kernel.cpp ****                 if(semHandlePtr!= nullptr) {
 992              		.loc 1 148 17 is_stmt 1
 993              	#NO_APP
 994 041c 630C0500 		beqz	a0,.L47
 149:src/kernel.cpp ****                     returnValue = semHandlePtr->close();
 995              		.loc 1 149 21
 149:src/kernel.cpp ****                     returnValue = semHandlePtr->close();
 996              		.loc 1 149 54 is_stmt 0
 997 0420 97000000 		call	_ZN10KSemaphore5closeEv@plt
 997      E7800000 
 998              	.LVL75:
 999              	.L43:
 153:src/kernel.cpp ****                 __asm__ volatile ("mv t0, %0" : : "r"(returnValue)); //load return value into tempo
 1000              		.loc 1 153 17 is_stmt 1
 153:src/kernel.cpp ****                 __asm__ volatile ("mv t0, %0" : : "r"(returnValue)); //load return value into tempo
 1001              		.loc 1 153 68 is_stmt 0
 1002              	#APP
 1003              	# 153 "src/kernel.cpp" 1
 154:src/kernel.cpp ****                 __asm__ volatile ("sw t0, 80(x8)"); //override a0 on stack to return value
 1004              		mv t0, a0
 1005              	# 0 "" 2
 1006              		.loc 1 154 17 is_stmt 1
 154:src/kernel.cpp ****                 __asm__ volatile ("sw t0, 80(x8)"); //override a0 on stack to return value
 1007              		.loc 1 154 51 is_stmt 0
 1008              	# 154 "src/kernel.cpp" 1
 155:src/kernel.cpp ****                 break;
 1009              		sw t0, 80(x8)
 1010              	# 0 "" 2
 1011              		.loc 1 155 17 is_stmt 1
 1012              	#NO_APP
GAS LISTING /tmp/ccEb70is.s 			page 29


 1013 0430 6FF05FF1 		j	.L25
 1014              	.LVL76:
 1015              	.L47:
 151:src/kernel.cpp ****                 else returnValue = -2;
 1016              		.loc 1 151 34 is_stmt 0
 1017 0434 1305E0FF 		li	a0,-2
 1018              	.LVL77:
 1019 0438 6FF01FFF 		j	.L43
 1020              	.L33:
 156:src/kernel.cpp ****             case 0x23: //sem_wait
 1021              		.loc 1 156 13 is_stmt 1
 157:src/kernel.cpp ****                 __asm__ volatile ("mv %0, a1" : "=r" (semHandlePtr));
 1022              		.loc 1 157 17
 157:src/kernel.cpp ****                 __asm__ volatile ("mv %0, a1" : "=r" (semHandlePtr));
 1023              		.loc 1 157 69 is_stmt 0
 1024              	#APP
 1025              	# 157 "src/kernel.cpp" 1
 1026              		mv a0, a1
 1027              	# 0 "" 2
 1028              	.LVL78:
 158:src/kernel.cpp ****                 if(semHandlePtr!= nullptr) {
 1029              		.loc 1 158 17 is_stmt 1
 1030              	#NO_APP
 1031 0440 630E0500 		beqz	a0,.L48
 159:src/kernel.cpp ****                     returnValue = semHandlePtr->kwait_n(1);
 1032              		.loc 1 159 21
 159:src/kernel.cpp ****                     returnValue = semHandlePtr->kwait_n(1);
 1033              		.loc 1 159 56 is_stmt 0
 1034 0444 93051000 		li	a1,1
 1035 0448 97000000 		call	_ZN10KSemaphore7kwait_nEj@plt
 1035      E7800000 
 1036              	.LVL79:
 1037              	.L44:
 163:src/kernel.cpp ****                 __asm__ volatile ("mv t0, %0" : : "r"(returnValue));
 1038              		.loc 1 163 17 is_stmt 1
 163:src/kernel.cpp ****                 __asm__ volatile ("mv t0, %0" : : "r"(returnValue));
 1039              		.loc 1 163 68 is_stmt 0
 1040              	#APP
 1041              	# 163 "src/kernel.cpp" 1
 164:src/kernel.cpp ****                 __asm__ volatile ("sw t0, 80(x8)"); 
 1042              		mv t0, a0
 1043              	# 0 "" 2
 1044              		.loc 1 164 17 is_stmt 1
 164:src/kernel.cpp ****                 __asm__ volatile ("sw t0, 80(x8)"); 
 1045              		.loc 1 164 51 is_stmt 0
 1046              	# 164 "src/kernel.cpp" 1
 165:src/kernel.cpp ****                 break;
 1047              		sw t0, 80(x8)
 1048              	# 0 "" 2
 1049              		.loc 1 165 17 is_stmt 1
 1050              	#NO_APP
 1051 0458 6FF0DFEE 		j	.L25
 1052              	.LVL80:
 1053              	.L48:
 161:src/kernel.cpp ****                 else returnValue = -2;
 1054              		.loc 1 161 34 is_stmt 0
 1055 045c 1305E0FF 		li	a0,-2
GAS LISTING /tmp/ccEb70is.s 			page 30


 1056              	.LVL81:
 1057 0460 6FF01FFF 		j	.L44
 1058              	.L32:
 166:src/kernel.cpp ****             case 0x24: //sem_signal
 1059              		.loc 1 166 13 is_stmt 1
 167:src/kernel.cpp ****                 __asm__ volatile ("mv %0, a1" : "=r" (semHandlePtr));
 1060              		.loc 1 167 17
 167:src/kernel.cpp ****                 __asm__ volatile ("mv %0, a1" : "=r" (semHandlePtr));
 1061              		.loc 1 167 69 is_stmt 0
 1062              	#APP
 1063              	# 167 "src/kernel.cpp" 1
 1064              		mv a0, a1
 1065              	# 0 "" 2
 1066              	.LVL82:
 168:src/kernel.cpp ****                 if(semHandlePtr!= nullptr) {
 1067              		.loc 1 168 17 is_stmt 1
 1068              	#NO_APP
 1069 0468 630E0500 		beqz	a0,.L49
 169:src/kernel.cpp ****                     returnValue = semHandlePtr->ksignal_n(1);
 1070              		.loc 1 169 21
 169:src/kernel.cpp ****                     returnValue = semHandlePtr->ksignal_n(1);
 1071              		.loc 1 169 58 is_stmt 0
 1072 046c 93051000 		li	a1,1
 1073 0470 97000000 		call	_ZN10KSemaphore9ksignal_nEj@plt
 1073      E7800000 
 1074              	.LVL83:
 1075              	.L45:
 173:src/kernel.cpp ****                 __asm__ volatile ("mv t0, %0" : : "r"(returnValue));
 1076              		.loc 1 173 17 is_stmt 1
 173:src/kernel.cpp ****                 __asm__ volatile ("mv t0, %0" : : "r"(returnValue));
 1077              		.loc 1 173 68 is_stmt 0
 1078              	#APP
 1079              	# 173 "src/kernel.cpp" 1
 174:src/kernel.cpp ****                 __asm__ volatile ("sw t0, 80(x8)");
 1080              		mv t0, a0
 1081              	# 0 "" 2
 1082              		.loc 1 174 17 is_stmt 1
 174:src/kernel.cpp ****                 __asm__ volatile ("sw t0, 80(x8)");
 1083              		.loc 1 174 51 is_stmt 0
 1084              	# 174 "src/kernel.cpp" 1
 175:src/kernel.cpp ****                 break;
 1085              		sw t0, 80(x8)
 1086              	# 0 "" 2
 1087              		.loc 1 175 17 is_stmt 1
 1088              	#NO_APP
 1089 0480 6FF05FEC 		j	.L25
 1090              	.LVL84:
 1091              	.L49:
 171:src/kernel.cpp ****                 else returnValue = -2;
 1092              		.loc 1 171 34 is_stmt 0
 1093 0484 1305E0FF 		li	a0,-2
 1094              	.LVL85:
 1095 0488 6FF01FFF 		j	.L45
 1096              	.L31:
 176:src/kernel.cpp ****             case 0x25: // sem_wait_n
 1097              		.loc 1 176 13 is_stmt 1
 177:src/kernel.cpp ****                 __asm__ volatile ("mv %0, a1" : "=r" (semHandlePtr));
GAS LISTING /tmp/ccEb70is.s 			page 31


 1098              		.loc 1 177 17
 177:src/kernel.cpp ****                 __asm__ volatile ("mv %0, a1" : "=r" (semHandlePtr));
 1099              		.loc 1 177 69 is_stmt 0
 1100              	#APP
 1101              	# 177 "src/kernel.cpp" 1
 1102              		mv a0, a1
 1103              	# 0 "" 2
 1104              	.LVL86:
 178:src/kernel.cpp ****                 __asm__ volatile ("mv %0, a2" : "=r" (value)); //n value
 1105              		.loc 1 178 17 is_stmt 1
 178:src/kernel.cpp ****                 __asm__ volatile ("mv %0, a2" : "=r" (value)); //n value
 1106              		.loc 1 178 62 is_stmt 0
 1107              	# 178 "src/kernel.cpp" 1
 1108              		mv a1, a2
 1109              	# 0 "" 2
 1110              	.LVL87:
 179:src/kernel.cpp ****                 if(semHandlePtr!= nullptr) {
 1111              		.loc 1 179 17 is_stmt 1
 1112              	#NO_APP
 1113 0494 630E0500 		beqz	a0,.L50
 180:src/kernel.cpp ****                     returnValue = semHandlePtr->kwait_n(value);
 1114              		.loc 1 180 21
 180:src/kernel.cpp ****                     returnValue = semHandlePtr->kwait_n(value);
 1115              		.loc 1 180 56 is_stmt 0
 1116 0498 9B850500 		sext.w	a1,a1
 1117 049c 97000000 		call	_ZN10KSemaphore7kwait_nEj@plt
 1117      E7800000 
 1118              	.LVL88:
 1119              	.L46:
 184:src/kernel.cpp ****                 __asm__ volatile ("mv t0, %0" : : "r"(returnValue));
 1120              		.loc 1 184 17 is_stmt 1
 184:src/kernel.cpp ****                 __asm__ volatile ("mv t0, %0" : : "r"(returnValue));
 1121              		.loc 1 184 68 is_stmt 0
 1122              	#APP
 1123              	# 184 "src/kernel.cpp" 1
 185:src/kernel.cpp ****                 __asm__ volatile ("sw t0, 80(x8)");
 1124              		mv t0, a0
 1125              	# 0 "" 2
 1126              		.loc 1 185 17 is_stmt 1
 185:src/kernel.cpp ****                 __asm__ volatile ("sw t0, 80(x8)");
 1127              		.loc 1 185 51 is_stmt 0
 1128              	# 185 "src/kernel.cpp" 1
 186:src/kernel.cpp ****                 break;
 1129              		sw t0, 80(x8)
 1130              	# 0 "" 2
 1131              		.loc 1 186 17 is_stmt 1
 1132              	#NO_APP
 1133 04ac 6FF09FE9 		j	.L25
 1134              	.LVL89:
 1135              	.L50:
 182:src/kernel.cpp ****                 else returnValue = -2;
 1136              		.loc 1 182 34 is_stmt 0
 1137 04b0 1305E0FF 		li	a0,-2
 1138              	.LVL90:
 1139 04b4 6FF01FFF 		j	.L46
 1140              	.LVL91:
 1141              	.L30:
GAS LISTING /tmp/ccEb70is.s 			page 32


 187:src/kernel.cpp ****             case 0x26: // sem_signal_n
 1142              		.loc 1 187 13 is_stmt 1
 188:src/kernel.cpp ****                 __asm__ volatile ("mv %0, a1" : "=r" (semHandlePtr));
 1143              		.loc 1 188 17
 188:src/kernel.cpp ****                 __asm__ volatile ("mv %0, a1" : "=r" (semHandlePtr));
 1144              		.loc 1 188 69 is_stmt 0
 1145              	#APP
 1146              	# 188 "src/kernel.cpp" 1
 1147              		mv a0, a1
 1148              	# 0 "" 2
 1149              	.LVL92:
 189:src/kernel.cpp ****                 __asm__ volatile ("mv %0, a2" : "=r" (value)); //n value
 1150              		.loc 1 189 17 is_stmt 1
 189:src/kernel.cpp ****                 __asm__ volatile ("mv %0, a2" : "=r" (value)); //n value
 1151              		.loc 1 189 62 is_stmt 0
 1152              	# 189 "src/kernel.cpp" 1
 1153              		mv a1, a2
 1154              	# 0 "" 2
 1155              	.LVL93:
 190:src/kernel.cpp ****                 if(semHandlePtr!= nullptr) {
 1156              		.loc 1 190 17 is_stmt 1
 1157              	#NO_APP
 1158 04c0 E30205E8 		beqz	a0,.L25
 191:src/kernel.cpp ****                     returnValue = semHandlePtr->ksignal_n(value);
 1159              		.loc 1 191 21
 191:src/kernel.cpp ****                     returnValue = semHandlePtr->ksignal_n(value);
 1160              		.loc 1 191 58 is_stmt 0
 1161 04c4 9B850500 		sext.w	a1,a1
 1162 04c8 97000000 		call	_ZN10KSemaphore9ksignal_nEj@plt
 1162      E7800000 
 1163              	.LVL94:
 1164 04d0 6FF05FE7 		j	.L25
 1165              	.L29:
 195:src/kernel.cpp ****             case 0x31: // time_sleep
 1166              		.loc 1 195 13 is_stmt 1
 196:src/kernel.cpp ****                 __asm__ volatile ("mv %0, a1" : "=r" (value)); //time value
 1167              		.loc 1 196 17
 196:src/kernel.cpp ****                 __asm__ volatile ("mv %0, a1" : "=r" (value)); //time value
 1168              		.loc 1 196 62 is_stmt 0
 1169              	#APP
 1170              	# 196 "src/kernel.cpp" 1
 1171              		mv a0, a1
 1172              	# 0 "" 2
 1173              	.LVL95:
 197:src/kernel.cpp ****                 returnValue = TCB::time_sleep(value);
 1174              		.loc 1 197 17 is_stmt 1
 197:src/kernel.cpp ****                 returnValue = TCB::time_sleep(value);
 1175              		.loc 1 197 46 is_stmt 0
 1176              	#NO_APP
 1177 04d8 1B050500 		sext.w	a0,a0
 1178 04dc 97000000 		call	_ZN3TCB10time_sleepEm@plt
 1178      E7800000 
 1179              	.LVL96:
 198:src/kernel.cpp ****                 __asm__ volatile ("mv t0, %0" : : "r"(returnValue));
 1180              		.loc 1 198 17 is_stmt 1
 198:src/kernel.cpp ****                 __asm__ volatile ("mv t0, %0" : : "r"(returnValue));
 1181              		.loc 1 198 68 is_stmt 0
GAS LISTING /tmp/ccEb70is.s 			page 33


 1182              	#APP
 1183              	# 198 "src/kernel.cpp" 1
 199:src/kernel.cpp ****                 __asm__ volatile ("sw t0, 80(x8)");
 1184              		mv t0, a0
 1185              	# 0 "" 2
 1186              		.loc 1 199 17 is_stmt 1
 199:src/kernel.cpp ****                 __asm__ volatile ("sw t0, 80(x8)");
 1187              		.loc 1 199 51 is_stmt 0
 1188              	# 199 "src/kernel.cpp" 1
 200:src/kernel.cpp ****                 break;
 1189              		sw t0, 80(x8)
 1190              	# 0 "" 2
 1191              		.loc 1 200 17 is_stmt 1
 1192              	#NO_APP
 1193 04ec 6FF09FE5 		j	.L25
 1194              	.LVL97:
 1195              	.L28:
 201:src/kernel.cpp ****             case 0x41: // getc
 1196              		.loc 1 201 13
 202:src/kernel.cpp ****                 returnValue = buffIN->get();
 1197              		.loc 1 202 17
 202:src/kernel.cpp ****                 returnValue = buffIN->get();
 1198              		.loc 1 202 42 is_stmt 0
 1199 04f0 17050000 		ld	a0,.LANCHOR0+8
 1199      03350500 
 1200 04f8 97000000 		call	_ZN6Buffer3getEv@plt
 1200      E7800000 
 1201              	.LVL98:
 203:src/kernel.cpp ****                 __asm__ volatile ("mv t0, %0" : : "r"(returnValue));
 1202              		.loc 1 203 17 is_stmt 1
 203:src/kernel.cpp ****                 __asm__ volatile ("mv t0, %0" : : "r"(returnValue));
 1203              		.loc 1 203 68 is_stmt 0
 1204              	#APP
 1205              	# 203 "src/kernel.cpp" 1
 204:src/kernel.cpp ****                 __asm__ volatile ("sw t0, 80(x8)");
 1206              		mv t0, a0
 1207              	# 0 "" 2
 1208              		.loc 1 204 17 is_stmt 1
 204:src/kernel.cpp ****                 __asm__ volatile ("sw t0, 80(x8)");
 1209              		.loc 1 204 51 is_stmt 0
 1210              	# 204 "src/kernel.cpp" 1
 205:src/kernel.cpp ****                 break;
 1211              		sw t0, 80(x8)
 1212              	# 0 "" 2
 1213              		.loc 1 205 17 is_stmt 1
 1214              	#NO_APP
 1215 0508 6FF0DFE3 		j	.L25
 1216              	.LVL99:
 1217              	.L26:
 206:src/kernel.cpp ****             case 0x42: // putc
 1218              		.loc 1 206 13
 207:src/kernel.cpp ****                 char c;
 1219              		.loc 1 207 17
 208:src/kernel.cpp ****                 __asm__ volatile ("mv %0, a1" : "=r" (c));
 1220              		.loc 1 208 17
 208:src/kernel.cpp ****                 __asm__ volatile ("mv %0, a1" : "=r" (c));
 1221              		.loc 1 208 58 is_stmt 0
GAS LISTING /tmp/ccEb70is.s 			page 34


 1222              	#APP
 1223              	# 208 "src/kernel.cpp" 1
 1224              		mv a1, a1
 1225              	# 0 "" 2
 1226              	.LVL100:
 209:src/kernel.cpp ****                 buffOUT->put(c);
 1227              		.loc 1 209 17 is_stmt 1
 209:src/kernel.cpp ****                 buffOUT->put(c);
 1228              		.loc 1 209 29 is_stmt 0
 1229              	#NO_APP
 1230 0510 93F5F50F 		andi	a1,a1,0xff
 1231 0514 17050000 		ld	a0,.LANCHOR0
 1231      03350500 
 1232 051c 97000000 		call	_ZN6Buffer3putEc@plt
 1232      E7800000 
 1233              	.LVL101:
 210:src/kernel.cpp ****                 break;
 1234              		.loc 1 210 17 is_stmt 1
 1235 0524 6FF01FE2 		j	.L25
 1236              	.LBE75:
 1237              	.LBE80:
 1238              	.LBE81:
 1239              	.LBE94:
 1240              	.LBE99:
 1241              	.LBE103:
 1242              		.cfi_endproc
 1243              	.LFE68:
 1245              		.globl	_ZN6Kernel7buffOUTE
 1246              		.globl	_ZN6Kernel6buffINE
 1247              		.bss
 1248              		.align	3
 1249              		.set	.LANCHOR0,. + 0
 1252              	_ZN6Kernel7buffOUTE:
 1253 0000 00000000 		.zero	8
 1253      00000000 
 1256              	_ZN6Kernel6buffINE:
 1257 0008 00000000 		.zero	8
 1257      00000000 
 1258              		.text
 1259              	.Letext0:
 1260              		.file 5 "src/../h/../lib/hw.h"
 1261              		.file 6 "src/../h/memory_allocator.hpp"
 1262              		.file 7 "src/../h/list.hpp"
 1263              		.file 8 "src/../h/semaphore.hpp"
 1264              		.file 9 "src/../h/syscall_c.hpp"
 6052              		.align	3
 6055              	DW.ref.__gxx_personality_v0:
 6056 0000 00000000 		.dword	__gxx_personality_v0
 6056      00000000 
 6057              		.ident	"GCC: (Ubuntu 9.4.0-1ubuntu1~20.04) 9.4.0"
 6058              		.section	.note.GNU-stack,"",@progbits
GAS LISTING /tmp/ccEb70is.s 			page 35


DEFINED SYMBOLS
                            *ABS*:0000000000000000 kernel.cpp
     /tmp/ccEb70is.s:9      .text:0000000000000000 _ZN6Kernel16outputThreadBodyEPv
     /tmp/ccEb70is.s:13     .text:0000000000000000 .L0 
     /tmp/ccEb70is.s:14     .text:0000000000000000 .L0 
     /tmp/ccEb70is.s:15     .text:0000000000000004 .L0 
     /tmp/ccEb70is.s:18     .text:000000000000000c .L0 
     /tmp/ccEb70is.s:19     .text:000000000000000c .L0 
     /tmp/ccEb70is.s:21     .text:0000000000000010 .L0 
     /tmp/ccEb70is.s:26     .text:0000000000000014 .L0 
     /tmp/ccEb70is.s:27     .text:0000000000000014 .L0 
     /tmp/ccEb70is.s:32     .text:000000000000001c .L0 
     /tmp/ccEb70is.s:34     .text:000000000000001c .L0 
     /tmp/ccEb70is.s:35     .text:000000000000001c .L0 
     /tmp/ccEb70is.s:36     .text:000000000000001c .L0 
     /tmp/ccEb70is.s:37     .text:000000000000001c .L0 
     /tmp/ccEb70is.s:42     .text:0000000000000030 .L0 
     /tmp/ccEb70is.s:46     .text:0000000000000038 .L0 
     /tmp/ccEb70is.s:47     .text:0000000000000038 .L0 
     /tmp/ccEb70is.s:51     .text:0000000000000048 .L0 
     /tmp/ccEb70is.s:52     .text:0000000000000048 .L0 
     /tmp/ccEb70is.s:55     .text:0000000000000054 .L0 
     /tmp/ccEb70is.s:58     .text:0000000000000058 .L0 
     /tmp/ccEb70is.s:60     .text:000000000000005c .L0 
     /tmp/ccEb70is.s:66     .text:000000000000005c _ZN6Kernel10popSppSpieEv
     /tmp/ccEb70is.s:69     .text:000000000000005c .L0 
     /tmp/ccEb70is.s:70     .text:000000000000005c .L0 
     /tmp/ccEb70is.s:71     .text:0000000000000060 .L0 
     /tmp/ccEb70is.s:73     .text:0000000000000064 .L0 
     /tmp/ccEb70is.s:75     .text:0000000000000068 .L0 
     /tmp/ccEb70is.s:81     .text:0000000000000068 .L0 
     /tmp/ccEb70is.s:82     .text:0000000000000068 .L0 
     /tmp/ccEb70is.s:83     .text:0000000000000068 .L0 
     /tmp/ccEb70is.s:93     .text:0000000000000070 .L0 
      src/kernel.cpp:33     .text:0000000000000070 .L0 
     /tmp/ccEb70is.s:99     .text:0000000000000074 .L0 
      src/kernel.cpp:34     .text:0000000000000074 .L0 
     /tmp/ccEb70is.s:105    .text:0000000000000078 .L0 
     /tmp/ccEb70is.s:106    .text:000000000000007c .L0 
     /tmp/ccEb70is.s:107    .text:000000000000007c .L0 
     /tmp/ccEb70is.s:109    .text:0000000000000080 .L0 
     /tmp/ccEb70is.s:111    .text:0000000000000084 .L0 
     /tmp/ccEb70is.s:117    .text:0000000000000084 _ZN6Kernel11initBuffersEv
     /tmp/ccEb70is.s:120    .text:0000000000000084 .L0 
     /tmp/ccEb70is.s:6055   .data.rel.local.DW.ref.__gxx_personality_v0:0000000000000000 DW.ref.__gxx_personality_v0
     /tmp/ccEb70is.s:123    .text:0000000000000084 .L0 
     /tmp/ccEb70is.s:124    .text:0000000000000088 .L0 
     /tmp/ccEb70is.s:129    .text:0000000000000098 .L0 
     /tmp/ccEb70is.s:130    .text:0000000000000098 .L0 
     /tmp/ccEb70is.s:131    .text:0000000000000098 .L0 
     /tmp/ccEb70is.s:132    .text:0000000000000098 .L0 
     /tmp/ccEb70is.s:134    .text:000000000000009c .L0 
     /tmp/ccEb70is.s:140    .text:000000000000009c .L0 
     /tmp/ccEb70is.s:142    .text:000000000000009c .L0 
     /tmp/ccEb70is.s:143    .text:000000000000009c .L0 
     /tmp/ccEb70is.s:146    .text:00000000000000a4 .L0 
     /tmp/ccEb70is.s:155    .text:00000000000000b4 .L0 
GAS LISTING /tmp/ccEb70is.s 			page 36


     /tmp/ccEb70is.s:161    .text:00000000000000c0 .L0 
     /tmp/ccEb70is.s:166    .text:00000000000000c8 .L0 
     /tmp/ccEb70is.s:168    .text:00000000000000c8 .L0 
     /tmp/ccEb70is.s:169    .text:00000000000000c8 .L0 
     /tmp/ccEb70is.s:172    .text:00000000000000d0 .L0 
     /tmp/ccEb70is.s:181    .text:00000000000000e0 .L0 
     /tmp/ccEb70is.s:187    .text:00000000000000ec .L0 
     /tmp/ccEb70is.s:189    .text:00000000000000f4 .L0 
     /tmp/ccEb70is.s:190    .text:00000000000000f8 .L0 
     /tmp/ccEb70is.s:191    .text:00000000000000f8 .L0 
     /tmp/ccEb70is.s:193    .text:00000000000000fc .L0 
     /tmp/ccEb70is.s:194    .text:00000000000000fc .L0 
     /tmp/ccEb70is.s:196    .text:0000000000000100 .L0 
     /tmp/ccEb70is.s:198    .text:0000000000000104 .L0 
     /tmp/ccEb70is.s:200    .text:0000000000000108 .L0 
     /tmp/ccEb70is.s:203    .text:000000000000010c .L0 
     /tmp/ccEb70is.s:209    .text:0000000000000110 .L0 
     /tmp/ccEb70is.s:210    .text:0000000000000110 .L0 
     /tmp/ccEb70is.s:213    .text:0000000000000118 .L0 
     /tmp/ccEb70is.s:217    .text:0000000000000124 .L0 
     /tmp/ccEb70is.s:230    .text:0000000000000134 .L0 
     /tmp/ccEb70is.s:231    .text:0000000000000134 .L0 
     /tmp/ccEb70is.s:234    .text:000000000000013c .L0 
     /tmp/ccEb70is.s:238    .text:0000000000000148 .L0 
     /tmp/ccEb70is.s:245    .text:0000000000000154 .L0 
     /tmp/ccEb70is.s:283    .text:0000000000000154 _ZN6Kernel4initEv
     /tmp/ccEb70is.s:286    .text:0000000000000154 .L0 
     /tmp/ccEb70is.s:287    .text:0000000000000154 .L0 
     /tmp/ccEb70is.s:288    .text:0000000000000158 .L0 
     /tmp/ccEb70is.s:291    .text:0000000000000160 .L0 
     /tmp/ccEb70is.s:292    .text:0000000000000160 .L0 
     /tmp/ccEb70is.s:294    .text:0000000000000164 .L0 
     /tmp/ccEb70is.s:296    .text:0000000000000164 .L0 
     /tmp/ccEb70is.s:297    .text:0000000000000164 .L0 
     /tmp/ccEb70is.s:300    .text:000000000000016c .L0 
     /tmp/ccEb70is.s:301    .text:000000000000016c .L0 
     /tmp/ccEb70is.s:306    .text:0000000000000174 .L0 
 src/../h/kernel.hpp:100    .text:0000000000000174 .L0 
     /tmp/ccEb70is.s:316    .text:0000000000000178 .L0 
     /tmp/ccEb70is.s:317    .text:0000000000000178 .L0 
     /tmp/ccEb70is.s:322    .text:000000000000018c .L0 
     /tmp/ccEb70is.s:323    .text:0000000000000190 .L0 
     /tmp/ccEb70is.s:325    .text:0000000000000194 .L0 
     /tmp/ccEb70is.s:326    .text:0000000000000194 .L0 
     /tmp/ccEb70is.s:328    .text:0000000000000198 .L0 
     /tmp/ccEb70is.s:330    .text:000000000000019c .L0 
     /tmp/ccEb70is.s:336    .text:000000000000019c _ZN6Kernel21supervisorTrapHandlerEv
     /tmp/ccEb70is.s:339    .text:000000000000019c .L0 
     /tmp/ccEb70is.s:340    .text:000000000000019c .L0 
     /tmp/ccEb70is.s:341    .text:00000000000001a0 .L0 
     /tmp/ccEb70is.s:347    .text:00000000000001b4 .L0 
     /tmp/ccEb70is.s:348    .text:00000000000001b4 .L0 
     /tmp/ccEb70is.s:349    .text:00000000000001b4 .L0 
     /tmp/ccEb70is.s:350    .text:00000000000001b4 .L0 
     /tmp/ccEb70is.s:351    .text:00000000000001b4 .L0 
     /tmp/ccEb70is.s:353    .text:00000000000001b8 .L0 
     /tmp/ccEb70is.s:357    .text:00000000000001b8 .L0 
GAS LISTING /tmp/ccEb70is.s 			page 37


     /tmp/ccEb70is.s:358    .text:00000000000001b8 .L0 
     /tmp/ccEb70is.s:359    .text:00000000000001b8 .L0 
 src/../h/kernel.hpp:33     .text:00000000000001b8 .L0 
     /tmp/ccEb70is.s:367    .text:00000000000001c0 .L0 
     /tmp/ccEb70is.s:368    .text:00000000000001c0 .L0 
     /tmp/ccEb70is.s:374    .text:00000000000001c4 .L0 
     /tmp/ccEb70is.s:382    .text:00000000000001d4 .L0 
     /tmp/ccEb70is.s:392    .text:00000000000001e4 .L0 
     /tmp/ccEb70is.s:393    .text:00000000000001e4 .L0 
     /tmp/ccEb70is.s:396    .text:00000000000001e8 .L0 
     /tmp/ccEb70is.s:404    .text:00000000000001f0 .L0 
     /tmp/ccEb70is.s:405    .text:00000000000001f4 .L0 
     /tmp/ccEb70is.s:406    .text:00000000000001f4 .L0 
     /tmp/ccEb70is.s:408    .text:00000000000001f8 .L0 
     /tmp/ccEb70is.s:409    .text:00000000000001f8 .L0 
     /tmp/ccEb70is.s:411    .text:00000000000001fc .L0 
     /tmp/ccEb70is.s:413    .text:0000000000000200 .L0 
     /tmp/ccEb70is.s:415    .text:0000000000000204 .L0 
     /tmp/ccEb70is.s:417    .text:0000000000000208 .L0 
     /tmp/ccEb70is.s:421    .text:000000000000020c .L0 
     /tmp/ccEb70is.s:426    .text:000000000000020c .L0 
     /tmp/ccEb70is.s:427    .text:000000000000020c .L0 
     /tmp/ccEb70is.s:428    .text:000000000000020c .L0 
     /tmp/ccEb70is.s:438    .text:0000000000000214 .L0 
     /tmp/ccEb70is.s:439    .text:0000000000000214 .L0 
     /tmp/ccEb70is.s:447    .text:0000000000000220 .L0 
     /tmp/ccEb70is.s:448    .text:0000000000000220 .L0 
     /tmp/ccEb70is.s:454    .text:000000000000022c .L0 
     /tmp/ccEb70is.s:460    .text:0000000000000234 .L0 
     /tmp/ccEb70is.s:461    .text:0000000000000234 .L0 
     /tmp/ccEb70is.s:472    .text:0000000000000244 .L0 
     /tmp/ccEb70is.s:473    .text:0000000000000244 .L0 
     /tmp/ccEb70is.s:477    .text:0000000000000254 .L0 
     /tmp/ccEb70is.s:483    .text:000000000000025c .L0 
     /tmp/ccEb70is.s:484    .text:000000000000025c .L0 
     /tmp/ccEb70is.s:490    .text:000000000000026c .L0 
     /tmp/ccEb70is.s:491    .text:000000000000026c .L0 
     /tmp/ccEb70is.s:496    .text:0000000000000278 .L0 
     /tmp/ccEb70is.s:497    .text:0000000000000278 .L0 
     /tmp/ccEb70is.s:499    .text:000000000000027c .L0 
     /tmp/ccEb70is.s:504    .text:0000000000000280 .L0 
     /tmp/ccEb70is.s:505    .text:0000000000000280 .L0 
     /tmp/ccEb70is.s:506    .text:0000000000000280 .L0 
     /tmp/ccEb70is.s:508    .text:0000000000000284 .L0 
     /tmp/ccEb70is.s:512    .text:000000000000028c .L0 
     /tmp/ccEb70is.s:513    .text:000000000000028c .L0 
     /tmp/ccEb70is.s:516    .text:0000000000000298 .L0 
     /tmp/ccEb70is.s:519    .text:000000000000029c .L0 
     /tmp/ccEb70is.s:520    .text:000000000000029c .L0 
     /tmp/ccEb70is.s:525    .text:00000000000002a4 .L0 
     /tmp/ccEb70is.s:526    .text:00000000000002a4 .L0 
     /tmp/ccEb70is.s:528    .text:00000000000002a8 .L0 
     /tmp/ccEb70is.s:533    .text:00000000000002ac .L0 
     /tmp/ccEb70is.s:536    .text:00000000000002b0 .L0 
     /tmp/ccEb70is.s:537    .text:00000000000002b0 .L0 
     /tmp/ccEb70is.s:542    .text:00000000000002b8 .L0 
     /tmp/ccEb70is.s:543    .text:00000000000002b8 .L0 
GAS LISTING /tmp/ccEb70is.s 			page 38


     /tmp/ccEb70is.s:545    .text:00000000000002bc .L0 
     /tmp/ccEb70is.s:550    .text:00000000000002c0 .L0 
     /tmp/ccEb70is.s:563    .text:00000000000002c8 .L0 
     /tmp/ccEb70is.s:564    .text:00000000000002c8 .L0 
     /tmp/ccEb70is.s:565    .text:00000000000002c8 .L0 
 src/../h/kernel.hpp:53     .text:00000000000002c8 .L0 
     /tmp/ccEb70is.s:573    .text:00000000000002d0 .L0 
     /tmp/ccEb70is.s:574    .text:00000000000002d0 .L0 
     /tmp/ccEb70is.s:578    .text:00000000000002d4 .L0 
     /tmp/ccEb70is.s:580    .text:00000000000002d8 .L0 
     /tmp/ccEb70is.s:584    .text:00000000000002dc .L0 
     /tmp/ccEb70is.s:585    .text:00000000000002dc .L0 
     /tmp/ccEb70is.s:586    .text:00000000000002dc .L0 
 src/../h/kernel.hpp:63     .text:00000000000002dc .L0 
     /tmp/ccEb70is.s:594    .text:00000000000002e4 .L0 
     /tmp/ccEb70is.s:595    .text:00000000000002e4 .L0 
     /tmp/ccEb70is.s:599    .text:00000000000002e8 .L0 
     /tmp/ccEb70is.s:603    .text:00000000000002ec .L0 
     /tmp/ccEb70is.s:604    .text:00000000000002ec .L0 
     /tmp/ccEb70is.s:605    .text:00000000000002ec .L0 
 src/../h/kernel.hpp:39     .text:00000000000002ec .L0 
     /tmp/ccEb70is.s:613    .text:00000000000002f4 .L0 
     /tmp/ccEb70is.s:614    .text:00000000000002f4 .L0 
     /tmp/ccEb70is.s:618    .text:00000000000002f8 .L0 
     /tmp/ccEb70is.s:620    .text:00000000000002fc .L0 
     /tmp/ccEb70is.s:621    .text:00000000000002fc .L0 
     /tmp/ccEb70is.s:622    .text:00000000000002fc .L0 
     /tmp/ccEb70is.s:623    .text:00000000000002fc .L0 
     /tmp/ccEb70is.s:625    .text:00000000000002fc .L0 
     /tmp/ccEb70is.s:626    .text:00000000000002fc .L0 
     /tmp/ccEb70is.s:711    .text:0000000000000324 .L0 
     /tmp/ccEb70is.s:712    .text:0000000000000324 .L0 
     /tmp/ccEb70is.s:713    .text:0000000000000324 .L0 
      src/kernel.cpp:85     .text:0000000000000324 .L0 
     /tmp/ccEb70is.s:720    .text:0000000000000328 .L0 
     /tmp/ccEb70is.s:722    .text:0000000000000328 .L0 
     /tmp/ccEb70is.s:725    .text:0000000000000330 .L0 
     /tmp/ccEb70is.s:729    .text:000000000000033c .L0 
      src/kernel.cpp:89     .text:000000000000033c .L0 
     /tmp/ccEb70is.s:735    .text:0000000000000340 .L0 
      src/kernel.cpp:90     .text:0000000000000340 .L0 
     /tmp/ccEb70is.s:745    .text:0000000000000344 .L0 
     /tmp/ccEb70is.s:746    .text:0000000000000344 .L0 
     /tmp/ccEb70is.s:747    .text:0000000000000344 .L0 
     /tmp/ccEb70is.s:752    .text:0000000000000348 .L0 
 src/../h/kernel.hpp:68     .text:0000000000000348 .L0 
     /tmp/ccEb70is.s:762    .text:000000000000034c .L0 
     /tmp/ccEb70is.s:763    .text:000000000000034c .L0 
     /tmp/ccEb70is.s:768    .text:0000000000000350 .L0 
 src/../h/kernel.hpp:58     .text:0000000000000350 .L0 
     /tmp/ccEb70is.s:782    .text:0000000000000354 .L0 
     /tmp/ccEb70is.s:791    .text:0000000000000358 .L0 
     /tmp/ccEb70is.s:792    .text:0000000000000358 .L0 
      src/kernel.cpp:94     .text:0000000000000358 .L0 
     /tmp/ccEb70is.s:799    .text:000000000000035c .L0 
     /tmp/ccEb70is.s:801    .text:000000000000035c .L0 
     /tmp/ccEb70is.s:804    .text:0000000000000364 .L0 
GAS LISTING /tmp/ccEb70is.s 			page 39


     /tmp/ccEb70is.s:808    .text:0000000000000370 .L0 
      src/kernel.cpp:98     .text:0000000000000370 .L0 
     /tmp/ccEb70is.s:814    .text:0000000000000374 .L0 
      src/kernel.cpp:99     .text:0000000000000374 .L0 
     /tmp/ccEb70is.s:820    .text:0000000000000378 .L0 
     /tmp/ccEb70is.s:824    .text:000000000000037c .L0 
     /tmp/ccEb70is.s:825    .text:000000000000037c .L0 
     /tmp/ccEb70is.s:826    .text:000000000000037c .L0 
     /tmp/ccEb70is.s:827    .text:000000000000037c .L0 
     /tmp/ccEb70is.s:828    .text:000000000000037c .L0 
      src/kernel.cpp:105    .text:000000000000037c .L0 
     /tmp/ccEb70is.s:835    .text:0000000000000380 .L0 
      src/kernel.cpp:106    .text:0000000000000380 .L0 
     /tmp/ccEb70is.s:841    .text:0000000000000384 .L0 
      src/kernel.cpp:107    .text:0000000000000384 .L0 
     /tmp/ccEb70is.s:847    .text:0000000000000388 .L0 
     /tmp/ccEb70is.s:849    .text:0000000000000388 .L0 
     /tmp/ccEb70is.s:852    .text:0000000000000390 .L0 
     /tmp/ccEb70is.s:854    .text:0000000000000394 .L0 
     /tmp/ccEb70is.s:856    .text:0000000000000398 .L0 
      src/kernel.cpp:111    .text:0000000000000398 .L0 
     /tmp/ccEb70is.s:862    .text:000000000000039c .L0 
      src/kernel.cpp:112    .text:000000000000039c .L0 
     /tmp/ccEb70is.s:870    .text:00000000000003a4 .L0 
      src/kernel.cpp:116    .text:00000000000003a4 .L0 
     /tmp/ccEb70is.s:876    .text:00000000000003a8 .L0 
      src/kernel.cpp:117    .text:00000000000003a8 .L0 
     /tmp/ccEb70is.s:885    .text:00000000000003b0 .L0 
     /tmp/ccEb70is.s:886    .text:00000000000003b0 .L0 
     /tmp/ccEb70is.s:887    .text:00000000000003b0 .L0 
     /tmp/ccEb70is.s:894    .text:00000000000003bc .L0 
     /tmp/ccEb70is.s:895    .text:00000000000003bc .L0 
     /tmp/ccEb70is.s:901    .text:00000000000003c4 .L0 
     /tmp/ccEb70is.s:902    .text:00000000000003c4 .L0 
     /tmp/ccEb70is.s:905    .text:00000000000003cc .L0 
      src/kernel.cpp:123    .text:00000000000003cc .L0 
     /tmp/ccEb70is.s:911    .text:00000000000003d0 .L0 
      src/kernel.cpp:124    .text:00000000000003d0 .L0 
     /tmp/ccEb70is.s:917    .text:00000000000003d4 .L0 
     /tmp/ccEb70is.s:920    .text:00000000000003d8 .L0 
     /tmp/ccEb70is.s:921    .text:00000000000003d8 .L0 
     /tmp/ccEb70is.s:922    .text:00000000000003d8 .L0 
     /tmp/ccEb70is.s:925    .text:00000000000003e0 .L0 
     /tmp/ccEb70is.s:928    .text:00000000000003e4 .L0 
     /tmp/ccEb70is.s:929    .text:00000000000003e4 .L0 
     /tmp/ccEb70is.s:930    .text:00000000000003e4 .L0 
     /tmp/ccEb70is.s:931    .text:00000000000003e4 .L0 
      src/kernel.cpp:133    .text:00000000000003e4 .L0 
     /tmp/ccEb70is.s:940    .text:00000000000003ec .L0 
      src/kernel.cpp:134    .text:00000000000003ec .L0 
     /tmp/ccEb70is.s:947    .text:00000000000003f0 .L0 
     /tmp/ccEb70is.s:949    .text:00000000000003f0 .L0 
     /tmp/ccEb70is.s:952    .text:00000000000003f8 .L0 
     /tmp/ccEb70is.s:954    .text:00000000000003fc .L0 
     /tmp/ccEb70is.s:956    .text:0000000000000400 .L0 
      src/kernel.cpp:138    .text:0000000000000400 .L0 
     /tmp/ccEb70is.s:962    .text:0000000000000404 .L0 
GAS LISTING /tmp/ccEb70is.s 			page 40


      src/kernel.cpp:139    .text:0000000000000404 .L0 
     /tmp/ccEb70is.s:970    .text:000000000000040c .L0 
      src/kernel.cpp:142    .text:000000000000040c .L0 
     /tmp/ccEb70is.s:976    .text:0000000000000410 .L0 
      src/kernel.cpp:143    .text:0000000000000410 .L0 
     /tmp/ccEb70is.s:985    .text:0000000000000418 .L0 
     /tmp/ccEb70is.s:986    .text:0000000000000418 .L0 
      src/kernel.cpp:147    .text:0000000000000418 .L0 
     /tmp/ccEb70is.s:994    .text:000000000000041c .L0 
     /tmp/ccEb70is.s:996    .text:0000000000000420 .L0 
     /tmp/ccEb70is.s:997    .text:0000000000000420 .L0 
     /tmp/ccEb70is.s:1001   .text:0000000000000428 .L0 
      src/kernel.cpp:153    .text:0000000000000428 .L0 
     /tmp/ccEb70is.s:1007   .text:000000000000042c .L0 
      src/kernel.cpp:154    .text:000000000000042c .L0 
     /tmp/ccEb70is.s:1013   .text:0000000000000430 .L0 
     /tmp/ccEb70is.s:1017   .text:0000000000000434 .L0 
     /tmp/ccEb70is.s:1022   .text:000000000000043c .L0 
     /tmp/ccEb70is.s:1023   .text:000000000000043c .L0 
      src/kernel.cpp:157    .text:000000000000043c .L0 
     /tmp/ccEb70is.s:1031   .text:0000000000000440 .L0 
     /tmp/ccEb70is.s:1033   .text:0000000000000444 .L0 
     /tmp/ccEb70is.s:1034   .text:0000000000000444 .L0 
     /tmp/ccEb70is.s:1039   .text:0000000000000450 .L0 
      src/kernel.cpp:163    .text:0000000000000450 .L0 
     /tmp/ccEb70is.s:1045   .text:0000000000000454 .L0 
      src/kernel.cpp:164    .text:0000000000000454 .L0 
     /tmp/ccEb70is.s:1051   .text:0000000000000458 .L0 
     /tmp/ccEb70is.s:1055   .text:000000000000045c .L0 
     /tmp/ccEb70is.s:1060   .text:0000000000000464 .L0 
     /tmp/ccEb70is.s:1061   .text:0000000000000464 .L0 
      src/kernel.cpp:167    .text:0000000000000464 .L0 
     /tmp/ccEb70is.s:1069   .text:0000000000000468 .L0 
     /tmp/ccEb70is.s:1071   .text:000000000000046c .L0 
     /tmp/ccEb70is.s:1072   .text:000000000000046c .L0 
     /tmp/ccEb70is.s:1077   .text:0000000000000478 .L0 
      src/kernel.cpp:173    .text:0000000000000478 .L0 
     /tmp/ccEb70is.s:1083   .text:000000000000047c .L0 
      src/kernel.cpp:174    .text:000000000000047c .L0 
     /tmp/ccEb70is.s:1089   .text:0000000000000480 .L0 
     /tmp/ccEb70is.s:1093   .text:0000000000000484 .L0 
     /tmp/ccEb70is.s:1098   .text:000000000000048c .L0 
     /tmp/ccEb70is.s:1099   .text:000000000000048c .L0 
      src/kernel.cpp:177    .text:000000000000048c .L0 
     /tmp/ccEb70is.s:1106   .text:0000000000000490 .L0 
      src/kernel.cpp:178    .text:0000000000000490 .L0 
     /tmp/ccEb70is.s:1113   .text:0000000000000494 .L0 
     /tmp/ccEb70is.s:1115   .text:0000000000000498 .L0 
     /tmp/ccEb70is.s:1116   .text:0000000000000498 .L0 
     /tmp/ccEb70is.s:1121   .text:00000000000004a4 .L0 
      src/kernel.cpp:184    .text:00000000000004a4 .L0 
     /tmp/ccEb70is.s:1127   .text:00000000000004a8 .L0 
      src/kernel.cpp:185    .text:00000000000004a8 .L0 
     /tmp/ccEb70is.s:1133   .text:00000000000004ac .L0 
     /tmp/ccEb70is.s:1137   .text:00000000000004b0 .L0 
     /tmp/ccEb70is.s:1143   .text:00000000000004b8 .L0 
     /tmp/ccEb70is.s:1144   .text:00000000000004b8 .L0 
GAS LISTING /tmp/ccEb70is.s 			page 41


      src/kernel.cpp:188    .text:00000000000004b8 .L0 
     /tmp/ccEb70is.s:1151   .text:00000000000004bc .L0 
      src/kernel.cpp:189    .text:00000000000004bc .L0 
     /tmp/ccEb70is.s:1158   .text:00000000000004c0 .L0 
     /tmp/ccEb70is.s:1160   .text:00000000000004c4 .L0 
     /tmp/ccEb70is.s:1161   .text:00000000000004c4 .L0 
     /tmp/ccEb70is.s:1167   .text:00000000000004d4 .L0 
     /tmp/ccEb70is.s:1168   .text:00000000000004d4 .L0 
      src/kernel.cpp:196    .text:00000000000004d4 .L0 
     /tmp/ccEb70is.s:1175   .text:00000000000004d8 .L0 
     /tmp/ccEb70is.s:1177   .text:00000000000004d8 .L0 
     /tmp/ccEb70is.s:1181   .text:00000000000004e4 .L0 
      src/kernel.cpp:198    .text:00000000000004e4 .L0 
     /tmp/ccEb70is.s:1187   .text:00000000000004e8 .L0 
      src/kernel.cpp:199    .text:00000000000004e8 .L0 
     /tmp/ccEb70is.s:1193   .text:00000000000004ec .L0 
     /tmp/ccEb70is.s:1197   .text:00000000000004f0 .L0 
     /tmp/ccEb70is.s:1198   .text:00000000000004f0 .L0 
     /tmp/ccEb70is.s:1199   .text:00000000000004f0 .L0 
     /tmp/ccEb70is.s:1203   .text:0000000000000500 .L0 
      src/kernel.cpp:203    .text:0000000000000500 .L0 
     /tmp/ccEb70is.s:1209   .text:0000000000000504 .L0 
      src/kernel.cpp:204    .text:0000000000000504 .L0 
     /tmp/ccEb70is.s:1215   .text:0000000000000508 .L0 
     /tmp/ccEb70is.s:1219   .text:000000000000050c .L0 
     /tmp/ccEb70is.s:1220   .text:000000000000050c .L0 
     /tmp/ccEb70is.s:1221   .text:000000000000050c .L0 
      src/kernel.cpp:208    .text:000000000000050c .L0 
     /tmp/ccEb70is.s:1228   .text:0000000000000510 .L0 
     /tmp/ccEb70is.s:1230   .text:0000000000000510 .L0 
     /tmp/ccEb70is.s:1235   .text:0000000000000524 .L0 
     /tmp/ccEb70is.s:1242   .text:0000000000000528 .L0 
     /tmp/ccEb70is.s:1252   .bss:0000000000000000 _ZN6Kernel7buffOUTE
     /tmp/ccEb70is.s:1256   .bss:0000000000000008 _ZN6Kernel6buffINE
     /tmp/ccEb70is.s:1249   .bss:0000000000000000 .LANCHOR0
     /tmp/ccEb70is.s:1265   .text:0000000000000528 .L0 
     /tmp/ccEb70is.s:37     .text:000000000000001c .L0 
     /tmp/ccEb70is.s:47     .text:0000000000000038 .L0 
     /tmp/ccEb70is.s:52     .text:0000000000000048 .L0 
     /tmp/ccEb70is.s:161    .text:00000000000000c0 .L0 
     /tmp/ccEb70is.s:187    .text:00000000000000ec .L0 
     /tmp/ccEb70is.s:301    .text:000000000000016c .L0 
     /tmp/ccEb70is.s:318    .text:000000000000017c .L0 
     /tmp/ccEb70is.s:473    .text:0000000000000244 .L0 
     /tmp/ccEb70is.s:513    .text:000000000000028c .L0 
     /tmp/ccEb70is.s:520    .text:000000000000029c .L0 
     /tmp/ccEb70is.s:537    .text:00000000000002b0 .L0 
     /tmp/ccEb70is.s:639    .rodata:0000000000000000 .L27
     /tmp/ccEb70is.s:631    .text:000000000000030c .L0 
     /tmp/ccEb70is.s:887    .text:00000000000003b0 .L0 
     /tmp/ccEb70is.s:1199   .text:00000000000004f0 .L0 
     /tmp/ccEb70is.s:1231   .text:0000000000000514 .L0 
     /tmp/ccEb70is.s:31     .text:000000000000001c .L2
     /tmp/ccEb70is.s:23     .text:0000000000000014 .L3
     /tmp/ccEb70is.s:420    .text:000000000000020c .L52
     /tmp/ccEb70is.s:443    .text:0000000000000220 .L53
     /tmp/ccEb70is.s:553    .text:00000000000002c8 .L54
GAS LISTING /tmp/ccEb70is.s 			page 42


     /tmp/ccEb70is.s:399    .text:00000000000001f0 .L17
     /tmp/ccEb70is.s:467    .text:0000000000000244 .L55
     /tmp/ccEb70is.s:501    .text:0000000000000280 .L24
     /tmp/ccEb70is.s:534    .text:00000000000002b0 .L22
     /tmp/ccEb70is.s:457    .text:0000000000000234 .L21
     /tmp/ccEb70is.s:480    .text:000000000000025c .L56
     /tmp/ccEb70is.s:494    .text:0000000000000278 .L23
     /tmp/ccEb70is.s:488    .text:000000000000026c .L57
     /tmp/ccEb70is.s:742    .text:0000000000000344 .L25
     /tmp/ccEb70is.s:868    .text:00000000000003a4 .L41
     /tmp/ccEb70is.s:968    .text:000000000000040c .L42
     /tmp/ccEb70is.s:1015   .text:0000000000000434 .L47
     /tmp/ccEb70is.s:999    .text:0000000000000428 .L43
     /tmp/ccEb70is.s:1053   .text:000000000000045c .L48
     /tmp/ccEb70is.s:1037   .text:0000000000000450 .L44
     /tmp/ccEb70is.s:1091   .text:0000000000000484 .L49
     /tmp/ccEb70is.s:1075   .text:0000000000000478 .L45
     /tmp/ccEb70is.s:1135   .text:00000000000004b0 .L50
     /tmp/ccEb70is.s:1119   .text:00000000000004a4 .L46
     /tmp/ccEb70is.s:141    .text:000000000000009c .LEHB0
     /tmp/ccEb70is.s:118    .text:0000000000000084 .LFB67
     /tmp/ccEb70is.s:149    .text:00000000000000b0 .LEHE0
     /tmp/ccEb70is.s:156    .text:00000000000000b8 .LEHB1
     /tmp/ccEb70is.s:159    .text:00000000000000c0 .LEHE1
     /tmp/ccEb70is.s:202    .text:000000000000010c .L11
     /tmp/ccEb70is.s:167    .text:00000000000000c8 .LEHB2
     /tmp/ccEb70is.s:175    .text:00000000000000dc .LEHE2
     /tmp/ccEb70is.s:182    .text:00000000000000e4 .LEHB3
     /tmp/ccEb70is.s:185    .text:00000000000000ec .LEHE3
     /tmp/ccEb70is.s:222    .text:0000000000000130 .L12
     /tmp/ccEb70is.s:218    .text:0000000000000128 .LEHB4
     /tmp/ccEb70is.s:221    .text:0000000000000130 .LEHE4
     /tmp/ccEb70is.s:239    .text:000000000000014c .LEHB5
     /tmp/ccEb70is.s:242    .text:0000000000000154 .LEHE5
     /tmp/ccEb70is.s:708    .text:0000000000000324 .L40
     /tmp/ccEb70is.s:783    .text:0000000000000358 .L39
     /tmp/ccEb70is.s:822    .text:000000000000037c .L38
     /tmp/ccEb70is.s:883    .text:00000000000003b0 .L37
     /tmp/ccEb70is.s:918    .text:00000000000003d8 .L36
     /tmp/ccEb70is.s:926    .text:00000000000003e4 .L35
     /tmp/ccEb70is.s:983    .text:0000000000000418 .L34
     /tmp/ccEb70is.s:1020   .text:000000000000043c .L33
     /tmp/ccEb70is.s:1058   .text:0000000000000464 .L32
     /tmp/ccEb70is.s:1096   .text:000000000000048c .L31
     /tmp/ccEb70is.s:1141   .text:00000000000004b8 .L30
     /tmp/ccEb70is.s:1165   .text:00000000000004d4 .L29
     /tmp/ccEb70is.s:1195   .text:00000000000004f0 .L28
     /tmp/ccEb70is.s:1217   .text:000000000000050c .L26
     /tmp/ccEb70is.s:3918   .debug_abbrev:0000000000000000 .Ldebug_abbrev0
     /tmp/ccEb70is.s:5937   .debug_str:0000000000000d90 .LASF247
     /tmp/ccEb70is.s:5597   .debug_str:0000000000000236 .LASF248
     /tmp/ccEb70is.s:5695   .debug_str:0000000000000634 .LASF249
     /tmp/ccEb70is.s:5      .text:0000000000000000 .Ltext0
     /tmp/ccEb70is.s:1259   .text:0000000000000528 .Letext0
     /tmp/ccEb70is.s:5537   .debug_line:0000000000000000 .Ldebug_line0
     /tmp/ccEb70is.s:5691   .debug_str:000000000000061e .LASF0
     /tmp/ccEb70is.s:5721   .debug_str:0000000000000719 .LASF1
GAS LISTING /tmp/ccEb70is.s 			page 43


     /tmp/ccEb70is.s:5849   .debug_str:0000000000000b0f .LASF2
     /tmp/ccEb70is.s:5669   .debug_str:0000000000000555 .LASF3
     /tmp/ccEb70is.s:5859   .debug_str:0000000000000b53 .LASF4
     /tmp/ccEb70is.s:5699   .debug_str:000000000000066c .LASF5
     /tmp/ccEb70is.s:5553   .debug_str:0000000000000076 .LASF6
     /tmp/ccEb70is.s:5817   .debug_str:0000000000000a15 .LASF7
     /tmp/ccEb70is.s:5807   .debug_str:000000000000096f .LASF8
     /tmp/ccEb70is.s:5713   .debug_str:00000000000006ed .LASF9
     /tmp/ccEb70is.s:5667   .debug_str:0000000000000545 .LASF10
     /tmp/ccEb70is.s:5677   .debug_str:0000000000000586 .LASF11
     /tmp/ccEb70is.s:5603   .debug_str:000000000000028d .LASF12
     /tmp/ccEb70is.s:5657   .debug_str:00000000000004ce .LASF13
     /tmp/ccEb70is.s:5617   .debug_str:0000000000000325 .LASF14
     /tmp/ccEb70is.s:5601   .debug_str:000000000000027d .LASF15
     /tmp/ccEb70is.s:5907   .debug_str:0000000000000ce6 .LASF16
     /tmp/ccEb70is.s:5637   .debug_str:00000000000003cf .LASF17
     /tmp/ccEb70is.s:5891   .debug_str:0000000000000c85 .LASF18
     /tmp/ccEb70is.s:5801   .debug_str:000000000000094b .LASF28
     /tmp/ccEb70is.s:5683   .debug_str:00000000000005e4 .LASF60
     /tmp/ccEb70is.s:5867   .debug_str:0000000000000b86 .LASF19
     /tmp/ccEb70is.s:5719   .debug_str:0000000000000714 .LASF20
     /tmp/ccEb70is.s:5571   .debug_str:0000000000000139 .LASF21
     /tmp/ccEb70is.s:5605   .debug_str:000000000000029c .LASF22
     /tmp/ccEb70is.s:5959   .debug_str:0000000000000ec8 .LASF23
     /tmp/ccEb70is.s:5613   .debug_str:00000000000002e1 .LASF180
     /tmp/ccEb70is.s:5985   .debug_str:0000000000000f7d .LASF182
     /tmp/ccEb70is.s:5913   .debug_str:0000000000000d09 .LASF24
     /tmp/ccEb70is.s:5595   .debug_str:0000000000000213 .LASF26
     /tmp/ccEb70is.s:5969   .debug_str:0000000000000f05 .LASF25
     /tmp/ccEb70is.s:5639   .debug_str:00000000000003e5 .LASF27
     /tmp/ccEb70is.s:5569   .debug_str:0000000000000120 .LASF30
     /tmp/ccEb70is.s:5771   .debug_str:0000000000000875 .LASF29
     /tmp/ccEb70is.s:6021   .debug_str:0000000000001072 .LASF31
     /tmp/ccEb70is.s:5705   .debug_str:000000000000069d .LASF32
     /tmp/ccEb70is.s:5853   .debug_str:0000000000000b2a .LASF33
     /tmp/ccEb70is.s:5973   .debug_str:0000000000000f14 .LASF34
     /tmp/ccEb70is.s:5949   .debug_str:0000000000000e8a .LASF35
     /tmp/ccEb70is.s:6013   .debug_str:0000000000001034 .LASF37
     /tmp/ccEb70is.s:6019   .debug_str:0000000000001069 .LASF36
     /tmp/ccEb70is.s:5819   .debug_str:0000000000000a1c .LASF38
     /tmp/ccEb70is.s:5899   .debug_str:0000000000000cbb .LASF39
     /tmp/ccEb70is.s:5943   .debug_str:0000000000000e6d .LASF113
     /tmp/ccEb70is.s:5745   .debug_str:00000000000007be .LASF40
     /tmp/ccEb70is.s:5987   .debug_str:0000000000000f9d .LASF41
     /tmp/ccEb70is.s:5971   .debug_str:0000000000000f0f .LASF139
     /tmp/ccEb70is.s:5777   .debug_str:00000000000008a5 .LASF42
     /tmp/ccEb70is.s:5765   .debug_str:0000000000000850 .LASF43
     /tmp/ccEb70is.s:5893   .debug_str:0000000000000c9b .LASF44
     /tmp/ccEb70is.s:5653   .debug_str:000000000000049f .LASF45
     /tmp/ccEb70is.s:5839   .debug_str:0000000000000acb .LASF142
     /tmp/ccEb70is.s:5717   .debug_str:000000000000070b .LASF46
     /tmp/ccEb70is.s:5591   .debug_str:00000000000001e1 .LASF47
     /tmp/ccEb70is.s:5737   .debug_str:000000000000078e .LASF48
     /tmp/ccEb70is.s:5697   .debug_str:0000000000000650 .LASF49
     /tmp/ccEb70is.s:5803   .debug_str:000000000000095b .LASF50
     /tmp/ccEb70is.s:5989   .debug_str:0000000000000fa7 .LASF51
     /tmp/ccEb70is.s:6047   .debug_str:0000000000001150 .LASF52
GAS LISTING /tmp/ccEb70is.s 			page 44


     /tmp/ccEb70is.s:6027   .debug_str:00000000000010ac .LASF53
     /tmp/ccEb70is.s:5879   .debug_str:0000000000000c04 .LASF54
     /tmp/ccEb70is.s:5711   .debug_str:00000000000006d0 .LASF55
     /tmp/ccEb70is.s:5831   .debug_str:0000000000000aa5 .LASF56
     /tmp/ccEb70is.s:5547   .debug_str:0000000000000028 .LASF57
     /tmp/ccEb70is.s:5869   .debug_str:0000000000000b8c .LASF58
     /tmp/ccEb70is.s:5829   .debug_str:0000000000000a8c .LASF59
     /tmp/ccEb70is.s:5917   .debug_str:0000000000000d1d .LASF61
     /tmp/ccEb70is.s:5861   .debug_str:0000000000000b5a .LASF62
     /tmp/ccEb70is.s:5551   .debug_str:000000000000006a .LASF63
     /tmp/ccEb70is.s:5919   .debug_str:0000000000000d25 .LASF64
     /tmp/ccEb70is.s:5773   .debug_str:0000000000000886 .LASF65
     /tmp/ccEb70is.s:5583   .debug_str:00000000000001b2 .LASF66
     /tmp/ccEb70is.s:5961   .debug_str:0000000000000ecd .LASF67
     /tmp/ccEb70is.s:6005   .debug_str:000000000000100c .LASF68
     /tmp/ccEb70is.s:5593   .debug_str:00000000000001fe .LASF69
     /tmp/ccEb70is.s:5923   .debug_str:0000000000000d45 .LASF70
     /tmp/ccEb70is.s:5565   .debug_str:0000000000000104 .LASF71
     /tmp/ccEb70is.s:5955   .debug_str:0000000000000eb4 .LASF72
     /tmp/ccEb70is.s:5799   .debug_str:0000000000000934 .LASF73
     /tmp/ccEb70is.s:5767   .debug_str:0000000000000855 .LASF74
     /tmp/ccEb70is.s:5739   .debug_str:0000000000000796 .LASF75
     /tmp/ccEb70is.s:5825   .debug_str:0000000000000a6d .LASF76
     /tmp/ccEb70is.s:5881   .debug_str:0000000000000c0f .LASF77
     /tmp/ccEb70is.s:5905   .debug_str:0000000000000cd9 .LASF78
     /tmp/ccEb70is.s:5975   .debug_str:0000000000000f30 .LASF79
     /tmp/ccEb70is.s:5797   .debug_str:000000000000092f .LASF231
     /tmp/ccEb70is.s:5725   .debug_str:0000000000000735 .LASF82
     /tmp/ccEb70is.s:5945   .debug_str:0000000000000e73 .LASF84
     /tmp/ccEb70is.s:5841   .debug_str:0000000000000ae2 .LASF80
     /tmp/ccEb70is.s:5863   .debug_str:0000000000000b5f .LASF81
     /tmp/ccEb70is.s:5763   .debug_str:0000000000000846 .LASF83
     /tmp/ccEb70is.s:5855   .debug_str:0000000000000b34 .LASF85
     /tmp/ccEb70is.s:5933   .debug_str:0000000000000d7b .LASF86
     /tmp/ccEb70is.s:6025   .debug_str:000000000000109c .LASF87
     /tmp/ccEb70is.s:6033   .debug_str:00000000000010eb .LASF88
     /tmp/ccEb70is.s:5671   .debug_str:000000000000055c .LASF89
     /tmp/ccEb70is.s:5751   .debug_str:00000000000007f1 .LASF90
     /tmp/ccEb70is.s:5663   .debug_str:0000000000000527 .LASF91
     /tmp/ccEb70is.s:5545   .debug_str:0000000000000018 .LASF92
     /tmp/ccEb70is.s:5789   .debug_str:00000000000008f6 .LASF93
     /tmp/ccEb70is.s:5889   .debug_str:0000000000000c72 .LASF94
     /tmp/ccEb70is.s:5851   .debug_str:0000000000000b1d .LASF95
     /tmp/ccEb70is.s:5939   .debug_str:0000000000000e54 .LASF250
     /tmp/ccEb70is.s:5543   .debug_str:0000000000000013 .LASF96
     /tmp/ccEb70is.s:5885   .debug_str:0000000000000c36 .LASF97
     /tmp/ccEb70is.s:5957   .debug_str:0000000000000ec0 .LASF98
     /tmp/ccEb70is.s:5915   .debug_str:0000000000000d14 .LASF99
     /tmp/ccEb70is.s:5791   .debug_str:0000000000000903 .LASF100
     /tmp/ccEb70is.s:5953   .debug_str:0000000000000eaa .LASF101
     /tmp/ccEb70is.s:5947   .debug_str:0000000000000e83 .LASF102
     /tmp/ccEb70is.s:5589   .debug_str:00000000000001d3 .LASF107
     /tmp/ccEb70is.s:5729   .debug_str:0000000000000744 .LASF109
     /tmp/ccEb70is.s:5621   .debug_str:000000000000033a .LASF103
     /tmp/ccEb70is.s:5549   .debug_str:0000000000000042 .LASF105
     /tmp/ccEb70is.s:5927   .debug_str:0000000000000d55 .LASF104
     /tmp/ccEb70is.s:5659   .debug_str:00000000000004dd .LASF106
GAS LISTING /tmp/ccEb70is.s 			page 45


     /tmp/ccEb70is.s:5629   .debug_str:0000000000000371 .LASF108
     /tmp/ccEb70is.s:5609   .debug_str:00000000000002ab .LASF110
     /tmp/ccEb70is.s:5577   .debug_str:0000000000000168 .LASF111
     /tmp/ccEb70is.s:5731   .debug_str:000000000000075d .LASF112
     /tmp/ccEb70is.s:5873   .debug_str:0000000000000ba9 .LASF190
     /tmp/ccEb70is.s:5857   .debug_str:0000000000000b48 .LASF114
     /tmp/ccEb70is.s:6015   .debug_str:0000000000001055 .LASF115
     /tmp/ccEb70is.s:5835   .debug_str:0000000000000ab4 .LASF116
     /tmp/ccEb70is.s:5931   .debug_str:0000000000000d69 .LASF117
     /tmp/ccEb70is.s:5843   .debug_str:0000000000000aed .LASF118
     /tmp/ccEb70is.s:5963   .debug_str:0000000000000ee4 .LASF119
     /tmp/ccEb70is.s:5815   .debug_str:00000000000009e9 .LASF120
     /tmp/ccEb70is.s:5675   .debug_str:0000000000000572 .LASF121
     /tmp/ccEb70is.s:5967   .debug_str:0000000000000efd .LASF122
     /tmp/ccEb70is.s:5647   .debug_str:000000000000045f .LASF123
     /tmp/ccEb70is.s:5703   .debug_str:0000000000000693 .LASF124
     /tmp/ccEb70is.s:5631   .debug_str:000000000000037a .LASF125
     /tmp/ccEb70is.s:5845   .debug_str:0000000000000af4 .LASF126
     /tmp/ccEb70is.s:5611   .debug_str:00000000000002be .LASF127
     /tmp/ccEb70is.s:5635   .debug_str:00000000000003c6 .LASF128
     /tmp/ccEb70is.s:5809   .debug_str:0000000000000982 .LASF129
     /tmp/ccEb70is.s:5567   .debug_str:000000000000011a .LASF130
     /tmp/ccEb70is.s:5655   .debug_str:00000000000004b6 .LASF131
     /tmp/ccEb70is.s:5747   .debug_str:00000000000007c3 .LASF132
     /tmp/ccEb70is.s:5735   .debug_str:000000000000077a .LASF133
     /tmp/ccEb70is.s:5689   .debug_str:0000000000000609 .LASF134
     /tmp/ccEb70is.s:5921   .debug_str:0000000000000d30 .LASF135
     /tmp/ccEb70is.s:5991   .debug_str:0000000000000fc5 .LASF136
     /tmp/ccEb70is.s:5895   .debug_str:0000000000000cae .LASF137
     /tmp/ccEb70is.s:5563   .debug_str:00000000000000e0 .LASF138
     /tmp/ccEb70is.s:5633   .debug_str:0000000000000396 .LASF140
     /tmp/ccEb70is.s:5679   .debug_str:0000000000000594 .LASF141
     /tmp/ccEb70is.s:5875   .debug_str:0000000000000bba .LASF143
     /tmp/ccEb70is.s:5641   .debug_str:0000000000000407 .LASF144
     /tmp/ccEb70is.s:5661   .debug_str:00000000000004ee .LASF145
     /tmp/ccEb70is.s:5615   .debug_str:00000000000002ea .LASF146
     /tmp/ccEb70is.s:5599   .debug_str:0000000000000245 .LASF147
     /tmp/ccEb70is.s:5579   .debug_str:0000000000000173 .LASF148
     /tmp/ccEb70is.s:5813   .debug_str:00000000000009b2 .LASF149
     /tmp/ccEb70is.s:5887   .debug_str:0000000000000c3c .LASF150
     /tmp/ccEb70is.s:5979   .debug_str:0000000000000f58 .LASF151
     /tmp/ccEb70is.s:5793   .debug_str:000000000000090b .LASF251
     /tmp/ccEb70is.s:5865   .debug_str:0000000000000b75 .LASF252
     /tmp/ccEb70is.s:6009   .debug_str:000000000000101e .LASF152
     /tmp/ccEb70is.s:5977   .debug_str:0000000000000f50 .LASF153
     /tmp/ccEb70is.s:5965   .debug_str:0000000000000eee .LASF154
     /tmp/ccEb70is.s:5587   .debug_str:00000000000001c4 .LASF155
     /tmp/ccEb70is.s:6029   .debug_str:00000000000010c7 .LASF156
     /tmp/ccEb70is.s:5787   .debug_str:00000000000008f1 .LASF157
     /tmp/ccEb70is.s:5665   .debug_str:0000000000000533 .LASF158
     /tmp/ccEb70is.s:5585   .debug_str:00000000000001be .LASF159
     /tmp/ccEb70is.s:5795   .debug_str:000000000000091c .LASF160
     /tmp/ccEb70is.s:5539   .debug_str:0000000000000000 .LASF161
     /tmp/ccEb70is.s:6037   .debug_str:0000000000001115 .LASF162
     /tmp/ccEb70is.s:5753   .debug_str:0000000000000801 .LASF163
     /tmp/ccEb70is.s:5649   .debug_str:0000000000000479 .LASF164
     /tmp/ccEb70is.s:5619   .debug_str:0000000000000335 .LASF165
GAS LISTING /tmp/ccEb70is.s 			page 46


     /tmp/ccEb70is.s:5925   .debug_str:0000000000000d50 .LASF166
     /tmp/ccEb70is.s:5909   .debug_str:0000000000000cf2 .LASF167
     /tmp/ccEb70is.s:5995   .debug_str:0000000000000fd6 .LASF171
     /tmp/ccEb70is.s:5837   .debug_str:0000000000000abf .LASF168
     /tmp/ccEb70is.s:5935   .debug_str:0000000000000d83 .LASF169
     /tmp/ccEb70is.s:5625   .debug_str:000000000000034d .LASF170
     /tmp/ccEb70is.s:5715   .debug_str:0000000000000700 .LASF172
     /tmp/ccEb70is.s:5727   .debug_str:000000000000073b .LASF173
     /tmp/ccEb70is.s:5645   .debug_str:0000000000000456 .LASF174
     /tmp/ccEb70is.s:6017   .debug_str:0000000000001060 .LASF175
     /tmp/ccEb70is.s:5581   .debug_str:00000000000001ad .LASF176
     /tmp/ccEb70is.s:5903   .debug_str:0000000000000cc7 .LASF177
     /tmp/ccEb70is.s:6023   .debug_str:000000000000108b .LASF178
     /tmp/ccEb70is.s:5561   .debug_str:00000000000000c0 .LASF179
     /tmp/ccEb70is.s:5687   .debug_str:00000000000005fb .LASF181
     /tmp/ccEb70is.s:5681   .debug_str:00000000000005c8 .LASF183
     /tmp/ccEb70is.s:5951   .debug_str:0000000000000e94 .LASF184
     /tmp/ccEb70is.s:5559   .debug_str:000000000000009c .LASF185
     /tmp/ccEb70is.s:6003   .debug_str:0000000000000ffd .LASF186
     /tmp/ccEb70is.s:6035   .debug_str:00000000000010f8 .LASF187
     /tmp/ccEb70is.s:6041   .debug_str:0000000000001135 .LASF188
     /tmp/ccEb70is.s:5749   .debug_str:00000000000007d7 .LASF189
     /tmp/ccEb70is.s:5741   .debug_str:00000000000007ac .LASF191
     /tmp/ccEb70is.s:5755   .debug_str:000000000000080f .LASF192
     /tmp/ccEb70is.s:5723   .debug_str:000000000000072c .LASF193
     /tmp/ccEb70is.s:5877   .debug_str:0000000000000bee .LASF194
     /tmp/ccEb70is.s:5999   .debug_str:0000000000000fea .LASF195
     /tmp/ccEb70is.s:5761   .debug_str:0000000000000834 .LASF196
     /tmp/ccEb70is.s:5707   .debug_str:00000000000006b9 .LASF197
     /tmp/ccEb70is.s:5709   .debug_str:00000000000006be .LASF198
     /tmp/ccEb70is.s:5693   .debug_str:000000000000062b .LASF199
     /tmp/ccEb70is.s:5827   .debug_str:0000000000000a76 .LASF200
     /tmp/ccEb70is.s:5821   .debug_str:0000000000000a4d .LASF201
     /tmp/ccEb70is.s:5783   .debug_str:00000000000008ca .LASF202
     /tmp/ccEb70is.s:5781   .debug_str:00000000000008c3 .LASF203
     /tmp/ccEb70is.s:6031   .debug_str:00000000000010d7 .LASF204
     /tmp/ccEb70is.s:5993   .debug_str:0000000000000fcc .LASF205
     /tmp/ccEb70is.s:5651   .debug_str:0000000000000488 .LASF206
     /tmp/ccEb70is.s:5607   .debug_str:00000000000002a1 .LASF207
     /tmp/ccEb70is.s:5573   .debug_str:000000000000013e .LASF208
     /tmp/ccEb70is.s:5555   .debug_str:000000000000007d .LASF209
     /tmp/ccEb70is.s:5983   .debug_str:0000000000000f64 .LASF210
     /tmp/ccEb70is.s:5847   .debug_str:0000000000000b04 .LASF211
     /tmp/ccEb70is.s:5779   .debug_str:00000000000008aa .LASF212
     /tmp/ccEb70is.s:5833   .debug_str:0000000000000aae .LASF213
     /tmp/ccEb70is.s:5785   .debug_str:00000000000008de .LASF214
     /tmp/ccEb70is.s:5901   .debug_str:0000000000000cc0 .LASF215
     /tmp/ccEb70is.s:5811   .debug_str:000000000000099e .LASF216
     /tmp/ccEb70is.s:6011   .debug_str:000000000000102d .LASF217
     /tmp/ccEb70is.s:5557   .debug_str:0000000000000088 .LASF218
     /tmp/ccEb70is.s:6007   .debug_str:0000000000001016 .LASF219
     /tmp/ccEb70is.s:5871   .debug_str:0000000000000b94 .LASF220
     /tmp/ccEb70is.s:5775   .debug_str:000000000000089d .LASF221
     /tmp/ccEb70is.s:5701   .debug_str:000000000000067e .LASF222
     /tmp/ccEb70is.s:5759   .debug_str:000000000000082c .LASF223
     /tmp/ccEb70is.s:5769   .debug_str:0000000000000860 .LASF224
     /tmp/ccEb70is.s:6043   .debug_str:0000000000001141 .LASF225
GAS LISTING /tmp/ccEb70is.s 			page 47


     /tmp/ccEb70is.s:5643   .debug_str:0000000000000441 .LASF226
     /tmp/ccEb70is.s:5685   .debug_str:00000000000005f0 .LASF227
     /tmp/ccEb70is.s:5823   .debug_str:0000000000000a54 .LASF228
     /tmp/ccEb70is.s:5575   .debug_str:0000000000000155 .LASF229
     /tmp/ccEb70is.s:5883   .debug_str:0000000000000c22 .LASF230
     /tmp/ccEb70is.s:337    .text:000000000000019c .LFB68
     /tmp/ccEb70is.s:1243   .text:0000000000000528 .LFE68
     /tmp/ccEb70is.s:5897   .debug_str:0000000000000cb4 .LASF232
     /tmp/ccEb70is.s:5208   .debug_loc:0000000000000000 .LLST5
     /tmp/ccEb70is.s:5511   .debug_ranges:0000000000000000 .Ldebug_ranges0
     /tmp/ccEb70is.s:5235   .debug_loc:0000000000000073 .LLST21
     /tmp/ccEb70is.s:470    .text:0000000000000244 .LBB84
     /tmp/ccEb70is.s:555    .text:00000000000002c8 .LBE84
     /tmp/ccEb70is.s:5733   .debug_str:0000000000000773 .LASF233
     /tmp/ccEb70is.s:5246   .debug_loc:00000000000000a9 .LLST22
     /tmp/ccEb70is.s:522    .text:00000000000002a4 .LBB86
     /tmp/ccEb70is.s:531    .text:00000000000002ac .LBE86
     /tmp/ccEb70is.s:5257   .debug_loc:00000000000000df .LLST23
     /tmp/ccEb70is.s:539    .text:00000000000002b8 .LBB88
     /tmp/ccEb70is.s:548    .text:00000000000002c0 .LBE88
     /tmp/ccEb70is.s:5264   .debug_loc:0000000000000102 .LLST24
     /tmp/ccEb70is.s:486    .text:0000000000000268 .LVL39
     /tmp/ccEb70is.s:493    .text:0000000000000278 .LVL40
     /tmp/ccEb70is.s:449    .text:0000000000000228 .LVL33
     /tmp/ccEb70is.s:463    .text:0000000000000240 .LVL36
     /tmp/ccEb70is.s:5941   .debug_str:0000000000000e68 .LASF234
     /tmp/ccEb70is.s:5997   .debug_str:0000000000000fe2 .LASF235
     /tmp/ccEb70is.s:6045   .debug_str:0000000000001149 .LASF236
     /tmp/ccEb70is.s:5541   .debug_str:0000000000000006 .LASF237
     /tmp/ccEb70is.s:5271   .debug_loc:0000000000000125 .LLST6
     /tmp/ccEb70is.s:6039   .debug_str:0000000000001129 .LASF238
     /tmp/ccEb70is.s:5310   .debug_loc:00000000000001e0 .LLST7
     /tmp/ccEb70is.s:5337   .debug_loc:0000000000000262 .LLST8
     /tmp/ccEb70is.s:5805   .debug_str:0000000000000967 .LASF239
     /tmp/ccEb70is.s:5360   .debug_loc:00000000000002d1 .LLST9
     /tmp/ccEb70is.s:5371   .debug_loc:0000000000000307 .LLST10
     /tmp/ccEb70is.s:5378   .debug_loc:000000000000032a .LLST11
     /tmp/ccEb70is.s:5385   .debug_loc:000000000000034d .LLST12
     /tmp/ccEb70is.s:5392   .debug_loc:0000000000000370 .LLST13
     /tmp/ccEb70is.s:5399   .debug_loc:0000000000000393 .LLST14
     /tmp/ccEb70is.s:5673   .debug_str:0000000000000568 .LASF240
     /tmp/ccEb70is.s:5406   .debug_loc:00000000000003b6 .LLST15
     /tmp/ccEb70is.s:5413   .debug_loc:00000000000003d9 .LLST16
     /tmp/ccEb70is.s:890    .text:00000000000003bc .LBB73
     /tmp/ccEb70is.s:899    .text:00000000000003c4 .LBE73
     /tmp/ccEb70is.s:5420   .debug_loc:00000000000003fc .LLST17
     /tmp/ccEb70is.s:5428   .debug_loc:0000000000000420 .LLST18
     /tmp/ccEb70is.s:723    .text:0000000000000330 .LVL50
     /tmp/ccEb70is.s:727    .text:000000000000033c .LVL51
     /tmp/ccEb70is.s:802    .text:0000000000000364 .LVL58
     /tmp/ccEb70is.s:806    .text:0000000000000370 .LVL59
     /tmp/ccEb70is.s:850    .text:0000000000000390 .LVL64
     /tmp/ccEb70is.s:903    .text:00000000000003cc .LVL68
     /tmp/ccEb70is.s:923    .text:00000000000003e0 .LVL69
     /tmp/ccEb70is.s:950    .text:00000000000003f8 .LVL72
     /tmp/ccEb70is.s:998    .text:0000000000000428 .LVL75
     /tmp/ccEb70is.s:1036   .text:0000000000000450 .LVL79
GAS LISTING /tmp/ccEb70is.s 			page 48


     /tmp/ccEb70is.s:1074   .text:0000000000000478 .LVL83
     /tmp/ccEb70is.s:1118   .text:00000000000004a4 .LVL88
     /tmp/ccEb70is.s:1163   .text:00000000000004d0 .LVL94
     /tmp/ccEb70is.s:1179   .text:00000000000004e4 .LVL96
     /tmp/ccEb70is.s:1201   .text:0000000000000500 .LVL98
     /tmp/ccEb70is.s:1233   .text:0000000000000524 .LVL101
     /tmp/ccEb70is.s:561    .text:00000000000002c8 .LBB65
     /tmp/ccEb70is.s:576    .text:00000000000002d4 .LBE65
     /tmp/ccEb70is.s:582    .text:00000000000002dc .LBB67
     /tmp/ccEb70is.s:597    .text:00000000000002e8 .LBE67
     /tmp/ccEb70is.s:601    .text:00000000000002ec .LBB69
     /tmp/ccEb70is.s:616    .text:00000000000002f8 .LBE69
     /tmp/ccEb70is.s:749    .text:0000000000000348 .LBB76
     /tmp/ccEb70is.s:760    .text:000000000000034c .LBE76
     /tmp/ccEb70is.s:5435   .debug_loc:0000000000000443 .LLST19
     /tmp/ccEb70is.s:765    .text:0000000000000350 .LBB78
     /tmp/ccEb70is.s:776    .text:0000000000000354 .LBE78
     /tmp/ccEb70is.s:5442   .debug_loc:0000000000000466 .LLST20
     /tmp/ccEb70is.s:355    .text:00000000000001b8 .LBB59
     /tmp/ccEb70is.s:371    .text:00000000000001c4 .LBE59
     /tmp/ccEb70is.s:424    .text:000000000000020c .LBB96
     /tmp/ccEb70is.s:436    .text:0000000000000214 .LBE96
     /tmp/ccEb70is.s:5449   .debug_loc:0000000000000489 .LLST25
     /tmp/ccEb70is.s:440    .text:000000000000021c .LVL31
     /tmp/ccEb70is.s:246    .text:0000000000000154 .LFE67
     /tmp/ccEb70is.s:137    .text:000000000000009c .LBB49
     /tmp/ccEb70is.s:153    .text:00000000000000b4 .LBE49
     /tmp/ccEb70is.s:5457   .debug_loc:00000000000004ad .LLST1
     /tmp/ccEb70is.s:144    .text:00000000000000a4 .LVL5
     /tmp/ccEb70is.s:148    .text:00000000000000b0 .LVL6
     /tmp/ccEb70is.s:164    .text:00000000000000c8 .LBB51
     /tmp/ccEb70is.s:179    .text:00000000000000e0 .LBE51
     /tmp/ccEb70is.s:5466   .debug_loc:00000000000004d2 .LLST2
     /tmp/ccEb70is.s:170    .text:00000000000000d0 .LVL10
     /tmp/ccEb70is.s:174    .text:00000000000000dc .LVL11
     /tmp/ccEb70is.s:206    .text:0000000000000110 .LBB53
     /tmp/ccEb70is.s:226    .text:0000000000000134 .LBE53
     /tmp/ccEb70is.s:5475   .debug_loc:00000000000004f7 .LLST3
     /tmp/ccEb70is.s:211    .text:0000000000000118 .LVL15
     /tmp/ccEb70is.s:215    .text:0000000000000124 .LVL16
     /tmp/ccEb70is.s:227    .text:0000000000000134 .LBB55
     /tmp/ccEb70is.s:244    .text:0000000000000154 .LBE55
     /tmp/ccEb70is.s:5482   .debug_loc:000000000000051a .LLST4
     /tmp/ccEb70is.s:232    .text:000000000000013c .LVL19
     /tmp/ccEb70is.s:236    .text:0000000000000148 .LVL20
     /tmp/ccEb70is.s:158    .text:00000000000000c0 .LVL8
     /tmp/ccEb70is.s:184    .text:00000000000000ec .LVL13
     /tmp/ccEb70is.s:220    .text:0000000000000130 .LVL17
     /tmp/ccEb70is.s:241    .text:0000000000000154 .LVL21
     /tmp/ccEb70is.s:67     .text:000000000000005c .LFB66
     /tmp/ccEb70is.s:112    .text:0000000000000084 .LFE66
     /tmp/ccEb70is.s:78     .text:0000000000000068 .LBB47
     /tmp/ccEb70is.s:91     .text:0000000000000070 .LBE47
     /tmp/ccEb70is.s:5489   .debug_loc:000000000000053d .LLST0
     /tmp/ccEb70is.s:10     .text:0000000000000000 .LFB65
     /tmp/ccEb70is.s:61     .text:000000000000005c .LFE65
     /tmp/ccEb70is.s:44     .text:0000000000000038 .LBB45
GAS LISTING /tmp/ccEb70is.s 			page 49


     /tmp/ccEb70is.s:56     .text:0000000000000058 .LBE45
     /tmp/ccEb70is.s:49     .text:0000000000000048 .LVL1
     /tmp/ccEb70is.s:28     .text:000000000000001c .LVL0
     /tmp/ccEb70is.s:284    .text:0000000000000154 .LFB64
     /tmp/ccEb70is.s:331    .text:000000000000019c .LFE64
     /tmp/ccEb70is.s:303    .text:0000000000000174 .LBB57
     /tmp/ccEb70is.s:314    .text:0000000000000178 .LBE57
     /tmp/ccEb70is.s:298    .text:000000000000016c .LVL22
     /tmp/ccEb70is.s:320    .text:000000000000018c .LVL25
     /tmp/ccEb70is.s:5981   .debug_str:0000000000000f5f .LASF241
     /tmp/ccEb70is.s:5623   .debug_str:0000000000000348 .LASF242
     /tmp/ccEb70is.s:5743   .debug_str:00000000000007b3 .LASF243
     /tmp/ccEb70is.s:6001   .debug_str:0000000000000fef .LASF244
     /tmp/ccEb70is.s:5929   .debug_str:0000000000000d5a .LASF253
     /tmp/ccEb70is.s:5627   .debug_str:0000000000000359 .LASF254
     /tmp/ccEb70is.s:5757   .debug_str:0000000000000817 .LASF245
     /tmp/ccEb70is.s:5911   .debug_str:0000000000000cf9 .LASF246
     /tmp/ccEb70is.s:369    .text:00000000000001c4 .LVL26
     /tmp/ccEb70is.s:394    .text:00000000000001e8 .LVL27
     /tmp/ccEb70is.s:398    .text:00000000000001f0 .LVL28
     /tmp/ccEb70is.s:419    .text:000000000000020c .LVL29
     /tmp/ccEb70is.s:442    .text:0000000000000220 .LVL32
     /tmp/ccEb70is.s:552    .text:00000000000002c8 .LVL47
     /tmp/ccEb70is.s:628    .text:0000000000000304 .LVL48
     /tmp/ccEb70is.s:451    .text:000000000000022c .LVL34
     /tmp/ccEb70is.s:456    .text:0000000000000234 .LVL35
     /tmp/ccEb70is.s:466    .text:0000000000000244 .LVL37
     /tmp/ccEb70is.s:479    .text:000000000000025c .LVL38
     /tmp/ccEb70is.s:500    .text:0000000000000280 .LVL41
     /tmp/ccEb70is.s:517    .text:000000000000029c .LVL42
     /tmp/ccEb70is.s:521    .text:00000000000002a4 .LVL43
     /tmp/ccEb70is.s:529    .text:00000000000002ac .LVL44
     /tmp/ccEb70is.s:538    .text:00000000000002b8 .LVL45
     /tmp/ccEb70is.s:546    .text:00000000000002c0 .LVL46
     /tmp/ccEb70is.s:991    .text:000000000000041c .LVL74
     /tmp/ccEb70is.s:1014   .text:0000000000000434 .LVL76
     /tmp/ccEb70is.s:1018   .text:0000000000000438 .LVL77
     /tmp/ccEb70is.s:1028   .text:0000000000000440 .LVL78
     /tmp/ccEb70is.s:1052   .text:000000000000045c .LVL80
     /tmp/ccEb70is.s:1056   .text:0000000000000460 .LVL81
     /tmp/ccEb70is.s:1066   .text:0000000000000468 .LVL82
     /tmp/ccEb70is.s:1090   .text:0000000000000484 .LVL84
     /tmp/ccEb70is.s:1094   .text:0000000000000488 .LVL85
     /tmp/ccEb70is.s:1104   .text:0000000000000490 .LVL86
     /tmp/ccEb70is.s:1134   .text:00000000000004b0 .LVL89
     /tmp/ccEb70is.s:1138   .text:00000000000004b4 .LVL90
     /tmp/ccEb70is.s:1149   .text:00000000000004bc .LVL92
     /tmp/ccEb70is.s:1194   .text:00000000000004f0 .LVL97
     /tmp/ccEb70is.s:1216   .text:000000000000050c .LVL99
     /tmp/ccEb70is.s:821    .text:000000000000037c .LVL60
     /tmp/ccEb70is.s:1110   .text:0000000000000494 .LVL87
     /tmp/ccEb70is.s:1140   .text:00000000000004b8 .LVL91
     /tmp/ccEb70is.s:1155   .text:00000000000004c0 .LVL93
     /tmp/ccEb70is.s:1173   .text:00000000000004d8 .LVL95
     /tmp/ccEb70is.s:740    .text:0000000000000344 .LVL52
     /tmp/ccEb70is.s:797    .text:000000000000035c .LVL57
     /tmp/ccEb70is.s:718    .text:0000000000000328 .LVL49
GAS LISTING /tmp/ccEb70is.s 			page 50


     /tmp/ccEb70is.s:833    .text:0000000000000380 .LVL61
     /tmp/ccEb70is.s:882    .text:00000000000003b0 .LVL65
     /tmp/ccEb70is.s:839    .text:0000000000000384 .LVL62
     /tmp/ccEb70is.s:845    .text:0000000000000388 .LVL63
     /tmp/ccEb70is.s:938    .text:00000000000003ec .LVL70
     /tmp/ccEb70is.s:945    .text:00000000000003f0 .LVL71
     /tmp/ccEb70is.s:982    .text:0000000000000418 .LVL73
     /tmp/ccEb70is.s:1226   .text:0000000000000510 .LVL100
     /tmp/ccEb70is.s:889    .text:00000000000003bc .LVL66
     /tmp/ccEb70is.s:897    .text:00000000000003c4 .LVL67
     /tmp/ccEb70is.s:748    .text:0000000000000348 .LVL53
     /tmp/ccEb70is.s:757    .text:000000000000034c .LVL54
     /tmp/ccEb70is.s:764    .text:0000000000000350 .LVL55
     /tmp/ccEb70is.s:773    .text:0000000000000354 .LVL56
     /tmp/ccEb70is.s:433    .text:0000000000000214 .LVL30
     /tmp/ccEb70is.s:136    .text:000000000000009c .LVL4
     /tmp/ccEb70is.s:151    .text:00000000000000b4 .LVL7
     /tmp/ccEb70is.s:163    .text:00000000000000c8 .LVL9
     /tmp/ccEb70is.s:177    .text:00000000000000e0 .LVL12
     /tmp/ccEb70is.s:205    .text:0000000000000110 .LVL14
     /tmp/ccEb70is.s:224    .text:0000000000000134 .LVL18
     /tmp/ccEb70is.s:77     .text:0000000000000068 .LVL2
     /tmp/ccEb70is.s:88     .text:0000000000000070 .LVL3
     /tmp/ccEb70is.s:1266   .debug_info:0000000000000000 .Ldebug_info0
     /tmp/ccEb70is.s:559    .text:00000000000002c8 .LBB64
     /tmp/ccEb70is.s:777    .text:0000000000000354 .LBE64
     /tmp/ccEb70is.s:787    .text:0000000000000358 .LBB81
     /tmp/ccEb70is.s:1238   .text:0000000000000528 .LBE81
     /tmp/ccEb70is.s:709    .text:0000000000000324 .LBB72
     /tmp/ccEb70is.s:743    .text:0000000000000344 .LBE72
     /tmp/ccEb70is.s:789    .text:0000000000000358 .LBB75
     /tmp/ccEb70is.s:1236   .text:0000000000000528 .LBE75
     /tmp/ccEb70is.s:445    .text:0000000000000220 .LBB82
     /tmp/ccEb70is.s:464    .text:0000000000000240 .LBE82
     /tmp/ccEb70is.s:468    .text:0000000000000244 .LBB92
     /tmp/ccEb70is.s:557    .text:00000000000002c8 .LBE92
     /tmp/ccEb70is.s:481    .text:000000000000025c .LBB85
     /tmp/ccEb70is.s:502    .text:0000000000000280 .LBE85
     /tmp/ccEb70is.s:510    .text:000000000000028c .LBB90
     /tmp/ccEb70is.s:554    .text:00000000000002c8 .LBE90
     /tmp/ccEb70is.s:249    .gcc_except_table:0000000000000000 .LLSDA67

UNDEFINED SYMBOLS
_Z15thread_dispatchv
CONSOLE_STATUS
_ZN6Buffer3getEv
CONSOLE_TX_DATA
_ZN15MemoryAllocator8instanceEv
_ZN15MemoryAllocator10kmem_allocEm
_ZN6BufferC1Ei
_ZN15MemoryAllocator9kmem_freeEPv
_Unwind_Resume
__gxx_personality_v0
_ZN6Kernel14supervisorTrapEv
_ZN3TCB12createThreadEPFvPvES0_
_ZN3TCB9time_tickEv
plic_claim
GAS LISTING /tmp/ccEb70is.s 			page 51


plic_complete
_ZN6Buffer3putEc
CONSOLE_RX_DATA
_ZN3TCB7runningE
_ZN3TCB8dispatchEv
_ZN10KSemaphore15createSemaphoreEj
_ZN10KSemaphore5closeEv
_ZN10KSemaphore7kwait_nEj
_ZN10KSemaphore9ksignal_nEj
_ZN3TCB10time_sleepEm
