GAS LISTING /tmp/ccT3mO0I.s 			page 1


   1              		.file	"kernel.cpp"
   2              		.option pic
   3              		.option norelax
   4              		.text
   5              	.Ltext0:
   6              		.align	2
   7              		.globl	_ZN6Kernel4initEv
   9              	_ZN6Kernel4initEv:
  10              	.LFB37:
  11              		.file 1 "src/kernel.cpp"
   1:src/kernel.cpp **** #include "../h/kernel.hpp"
   2:src/kernel.cpp **** #include "../h/memory_allocator.hpp"
   3:src/kernel.cpp **** #include "../lib/console.h"
   4:src/kernel.cpp **** #include "../h/tcb.hpp"
   5:src/kernel.cpp **** 
   6:src/kernel.cpp **** void Kernel::init() {
  12              		.loc 1 6 21
  13              		.cfi_startproc
  14 0000 130101FF 		addi	sp,sp,-16
  15              		.cfi_def_cfa_offset 16
  16 0004 23348100 		sd	s0,8(sp)
  17              		.cfi_offset 8, -8
  18 0008 13040101 		addi	s0,sp,16
  19              		.cfi_def_cfa 8, 0
   7:src/kernel.cpp ****     // set trap routine
   8:src/kernel.cpp ****     w_stvec((uint64)&supervisorTrap);
  20              		.loc 1 8 5
  21              		.loc 1 8 12 is_stmt 0
  22 000c 97070000 		la	a5,_ZN6Kernel14supervisorTrapEv
  22      83B70700 
  23              	.LVL0:
  24              	.LBB22:
  25              	.LBB23:
  26              		.file 2 "src/../h/kernel.hpp"
   1:src/../h/kernel.hpp **** #ifndef KERNEL_HPP
   2:src/../h/kernel.hpp **** #define KERNEL_HPP
   3:src/../h/kernel.hpp **** 
   4:src/../h/kernel.hpp **** #include "../lib/hw.h"
   5:src/../h/kernel.hpp **** #include "../lib/console.h"
   6:src/../h/kernel.hpp **** class Kernel {
   7:src/../h/kernel.hpp **** public:
   8:src/../h/kernel.hpp ****     // entry point init
   9:src/../h/kernel.hpp ****     static void init();
  10:src/../h/kernel.hpp **** 
  11:src/../h/kernel.hpp ****     inline static void print_int(int xx, int base, int sgn)
  12:src/../h/kernel.hpp ****     {
  13:src/../h/kernel.hpp ****         char my_digits[] = "0123456789ABCDEF";
  14:src/../h/kernel.hpp ****         char buf[16];
  15:src/../h/kernel.hpp ****         int i, neg;
  16:src/../h/kernel.hpp ****         uint x;
  17:src/../h/kernel.hpp **** 
  18:src/../h/kernel.hpp ****         neg = 0;
  19:src/../h/kernel.hpp ****         if(sgn && xx < 0){
  20:src/../h/kernel.hpp ****             neg = 1;
  21:src/../h/kernel.hpp ****             x = -xx;
  22:src/../h/kernel.hpp ****         } else {
  23:src/../h/kernel.hpp ****             x = xx;
GAS LISTING /tmp/ccT3mO0I.s 			page 2


  24:src/../h/kernel.hpp ****         }
  25:src/../h/kernel.hpp **** 
  26:src/../h/kernel.hpp ****         i = 0;
  27:src/../h/kernel.hpp ****         do{
  28:src/../h/kernel.hpp ****             buf[i++] = my_digits[x % base];
  29:src/../h/kernel.hpp ****         }while((x /= base) != 0);
  30:src/../h/kernel.hpp ****         if(neg)
  31:src/../h/kernel.hpp ****             buf[i++] = '-';
  32:src/../h/kernel.hpp **** 
  33:src/../h/kernel.hpp ****         while(--i >= 0)
  34:src/../h/kernel.hpp ****             __putc(buf[i]);
  35:src/../h/kernel.hpp **** 
  36:src/../h/kernel.hpp ****     }
  37:src/../h/kernel.hpp **** 
  38:src/../h/kernel.hpp **** private:
  39:src/../h/kernel.hpp ****     static void supervisorTrapHandler();
  40:src/../h/kernel.hpp ****     static void supervisorTrap();
  41:src/../h/kernel.hpp **** public:
  42:src/../h/kernel.hpp ****     static inline uint64 r_scause() {
  43:src/../h/kernel.hpp ****         uint64 volatile x;
  44:src/../h/kernel.hpp ****         __asm__ volatile("csrr %0, scause" : "=r"(x));
  45:src/../h/kernel.hpp ****         return x;
  46:src/../h/kernel.hpp ****     }
  47:src/../h/kernel.hpp **** 
  48:src/../h/kernel.hpp ****     static inline uint64 r_a0() {
  49:src/../h/kernel.hpp ****         uint64 volatile x;
  50:src/../h/kernel.hpp ****         __asm__ volatile("mv %0, a0" : "=r"(x));
  51:src/../h/kernel.hpp ****         return x;
  52:src/../h/kernel.hpp ****     }
  53:src/../h/kernel.hpp **** 
  54:src/../h/kernel.hpp ****     static inline void w_scause(uint64 x) {
  55:src/../h/kernel.hpp ****         __asm__ volatile("csrw scause, %0" : : "r"(x));
  56:src/../h/kernel.hpp ****     }
  57:src/../h/kernel.hpp **** 
  58:src/../h/kernel.hpp ****     static inline uint64 r_sepc() {
  59:src/../h/kernel.hpp ****         uint64 volatile x;
  60:src/../h/kernel.hpp ****         __asm__ volatile("csrr %0, sepc" : "=r"(x));
  61:src/../h/kernel.hpp ****         return x;
  62:src/../h/kernel.hpp ****     }
  63:src/../h/kernel.hpp **** 
  64:src/../h/kernel.hpp ****     static inline void w_sepc(uint64 x) {
  65:src/../h/kernel.hpp ****         __asm__ volatile("csrw sepc, %0" : : "r"(x));
  66:src/../h/kernel.hpp ****     }
  67:src/../h/kernel.hpp **** 
  68:src/../h/kernel.hpp ****     static inline uint64 r_sstatus() {
  69:src/../h/kernel.hpp ****         uint64 volatile x;
  70:src/../h/kernel.hpp ****         __asm__ volatile("csrr %0, sstatus" : "=r"(x));
  71:src/../h/kernel.hpp ****         return x;
  72:src/../h/kernel.hpp ****     }
  73:src/../h/kernel.hpp **** 
  74:src/../h/kernel.hpp ****     static inline void w_sstatus(uint64 x) {
  75:src/../h/kernel.hpp ****         __asm__ volatile("csrw sstatus, %0" : : "r"(x));
  76:src/../h/kernel.hpp ****     }
  77:src/../h/kernel.hpp **** 
  78:src/../h/kernel.hpp ****     static inline void ms_sstatus(uint64 mask) {
  79:src/../h/kernel.hpp ****         __asm__ volatile("csrs sstatus, %0" : : "r"(mask));
  80:src/../h/kernel.hpp ****     }
GAS LISTING /tmp/ccT3mO0I.s 			page 3


  81:src/../h/kernel.hpp **** 
  82:src/../h/kernel.hpp ****     static inline void mc_sstatus(uint64 mask) {
  83:src/../h/kernel.hpp ****         __asm__ volatile("csrc sstatus, %0" : : "r"(mask));
  84:src/../h/kernel.hpp ****     }
  85:src/../h/kernel.hpp **** 
  86:src/../h/kernel.hpp ****     static inline uint64 r_sip() { //koji prekid postoji? bit 0 softver; bit 9 spoljasni hardverski
  87:src/../h/kernel.hpp ****         uint64 volatile x;
  88:src/../h/kernel.hpp ****         __asm__ volatile("csrr %0, sip" : "=r"(x));
  89:src/../h/kernel.hpp ****         return x;
  90:src/../h/kernel.hpp ****     }
  91:src/../h/kernel.hpp **** 
  92:src/../h/kernel.hpp ****     static inline void ms_sip(uint64 mask) {
  93:src/../h/kernel.hpp ****         __asm__ volatile("csrs sip, %0" : : "r"(mask));
  94:src/../h/kernel.hpp ****     }
  95:src/../h/kernel.hpp **** 
  96:src/../h/kernel.hpp ****     static inline void mc_sip(uint64 mask) {
  97:src/../h/kernel.hpp ****         __asm__ volatile("csrc sip, %0" : : "r"(mask));
  98:src/../h/kernel.hpp ****     }
  99:src/../h/kernel.hpp **** 
 100:src/../h/kernel.hpp ****     static inline uint64 r_stvec() {
 101:src/../h/kernel.hpp ****         uint64 volatile x;
 102:src/../h/kernel.hpp ****         __asm__ volatile("csrr %0, stvec" : "=r"(x));
 103:src/../h/kernel.hpp ****         return x;
 104:src/../h/kernel.hpp ****     }
 105:src/../h/kernel.hpp **** 
 106:src/../h/kernel.hpp ****     static inline void w_stvec(uint64 x) {
 107:src/../h/kernel.hpp ****         __asm__ volatile("csrw stvec, %0" : : "r"(x));
  27              		.loc 2 107 9 is_stmt 1
  28              		.loc 2 107 54 is_stmt 0
  29              	#APP
  30              	# 107 "src/../h/kernel.hpp" 1
 108              	    }
  31              		csrw stvec, a5
  32              	# 0 "" 2
  33              	.LVL1:
  34              	#NO_APP
  35              	.LBE23:
  36              	.LBE22:
   9:src/kernel.cpp ****     //ms_sstatus(SstatusBits::SSTATUS_SIE);
  10:src/kernel.cpp **** }
  37              		.loc 1 10 1
  38 0018 03348100 		ld	s0,8(sp)
  39              		.cfi_restore 8
  40              		.cfi_def_cfa 2, 16
  41 001c 13010101 		addi	sp,sp,16
  42              		.cfi_def_cfa_offset 0
  43 0020 67800000 		jr	ra
  44              		.cfi_endproc
  45              	.LFE37:
  47              		.align	2
  48              		.globl	_ZN6Kernel21supervisorTrapHandlerEv
  50              	_ZN6Kernel21supervisorTrapHandlerEv:
  51              	.LFB38:
  11:src/kernel.cpp **** 
  12:src/kernel.cpp **** using Body = void (*)(void*);
  13:src/kernel.cpp **** 
  14:src/kernel.cpp **** void Kernel::supervisorTrapHandler()
GAS LISTING /tmp/ccT3mO0I.s 			page 4


  15:src/kernel.cpp **** {
  52              		.loc 1 15 1 is_stmt 1
  53              		.cfi_startproc
  54 0024 130101FA 		addi	sp,sp,-96
  55              		.cfi_def_cfa_offset 96
  56 0028 233C1104 		sd	ra,88(sp)
  57 002c 23388104 		sd	s0,80(sp)
  58 0030 23349104 		sd	s1,72(sp)
  59              		.cfi_offset 1, -8
  60              		.cfi_offset 8, -16
  61              		.cfi_offset 9, -24
  62 0034 13040106 		addi	s0,sp,96
  63              		.cfi_def_cfa 8, 0
  16:src/kernel.cpp ****     uint32 scause = r_scause();
  64              		.loc 1 16 5
  65              	.LBB24:
  66              	.LBB25:
  43:src/../h/kernel.hpp ****         __asm__ volatile("csrr %0, scause" : "=r"(x));
  67              		.loc 2 43 9
  44:src/../h/kernel.hpp ****         return x;
  68              		.loc 2 44 9
  44:src/../h/kernel.hpp ****         return x;
  69              		.loc 2 44 54 is_stmt 0
  70              	#APP
  71              	# 44 "src/../h/kernel.hpp" 1
  72              		csrr a5, scause
  73              	# 0 "" 2
  74              	#NO_APP
  75 003c 2330F4FC 		sd	a5,-64(s0)
  45:src/../h/kernel.hpp ****     }
  76              		.loc 2 45 9 is_stmt 1
  45:src/../h/kernel.hpp ****     }
  77              		.loc 2 45 16 is_stmt 0
  78 0040 833704FC 		ld	a5,-64(s0)
  79              	.LVL2:
  80              	.LBE25:
  81              	.LBE24:
  17:src/kernel.cpp **** 
  18:src/kernel.cpp ****     if (scause == 0x0000000000000008UL || scause == 0x0000000000000009UL)
  82              		.loc 1 18 5 is_stmt 1
  83              	.LBB26:
  84              		.loc 1 18 40 is_stmt 0
  85 0044 9B8787FF 		addiw	a5,a5,-8
  86              	.LVL3:
  87              		.loc 1 18 5
  88 0048 13071000 		li	a4,1
  89 004c 637CF700 		bleu	a5,a4,.L15
  90              	.L3:
  91              	.LBE26:
  19:src/kernel.cpp ****     {
  20:src/kernel.cpp ****         // Not external interupt
  21:src/kernel.cpp ****         // ecall from user or supervisor mode
  22:src/kernel.cpp **** 
  23:src/kernel.cpp ****         uint64 volatile sepc = r_sepc() + 4;
  24:src/kernel.cpp ****         uint64 volatile sstatus =  r_sstatus();
  25:src/kernel.cpp ****         
  26:src/kernel.cpp ****         uint64 volatile opcode = r_a0();
GAS LISTING /tmp/ccT3mO0I.s 			page 5


  27:src/kernel.cpp ****         
  28:src/kernel.cpp ****         int value;
  29:src/kernel.cpp ****         void* pointer;
  30:src/kernel.cpp ****         switch (opcode) {
  31:src/kernel.cpp ****             case 0x01: //mem_alloc
  32:src/kernel.cpp ****                 size_t size;
  33:src/kernel.cpp ****                 __asm__ volatile("mv %0, a1" : "=r" (size));
  34:src/kernel.cpp **** 
  35:src/kernel.cpp ****                 pointer = MemoryAllocator::instance().kmem_alloc(size);
  36:src/kernel.cpp **** 
  37:src/kernel.cpp ****                 __asm__ volatile("mv t0, %0" : : "r"(pointer));
  38:src/kernel.cpp ****                 __asm__ volatile ("sw t0, 80(x8)"); //override previously stored a0 in memory to re
  39:src/kernel.cpp ****                 break;
  40:src/kernel.cpp **** 
  41:src/kernel.cpp ****             case 0x02: //mem_free
  42:src/kernel.cpp ****                 __asm__ volatile("mv %0, a1" : "=r" (pointer));
  43:src/kernel.cpp **** 
  44:src/kernel.cpp ****                 value = MemoryAllocator::instance().kmem_free(pointer);
  45:src/kernel.cpp **** 
  46:src/kernel.cpp ****                 __asm__ volatile("mv t0, %0" : : "r"(value));
  47:src/kernel.cpp ****                 __asm__ volatile ("sw t0, 80(x8)"); //override previously stored a0 in memory to re
  48:src/kernel.cpp ****                 break;
  49:src/kernel.cpp ****             case 0x11: // thread_create(*handle, start_routine, arg)
  50:src/kernel.cpp ****                 TCB** tcb; //handle is pointer to TCB, so we need pointer to pointer to TCB to writ
  51:src/kernel.cpp ****                 Body body; // pointer to function that takes a void pointer as an argument and retu
  52:src/kernel.cpp ****                 void* arg;
  53:src/kernel.cpp ****                 __asm__ volatile ("mv %0, a1" : "=r" (tcb));
  54:src/kernel.cpp ****                 __asm__ volatile ("mv %0, a2" : "=r" (body));
  55:src/kernel.cpp ****                 __asm__ volatile ("mv %0, a7" : "=r" (arg));
  56:src/kernel.cpp ****                 *tcb = TCB::createThread(body, arg);
  57:src/kernel.cpp ****                 if(*tcb != nullptr) {
  58:src/kernel.cpp ****                     //__asm__ volatile ("li a0, 0");
  59:src/kernel.cpp ****                     __asm__ volatile ("li t0, 0"); //load immediate 0 into t0 (success)
  60:src/kernel.cpp ****                     __asm__ volatile ("sw t0, 80(x8)"); //override previously stored a0 in memory t
  61:src/kernel.cpp ****                 }
  62:src/kernel.cpp ****                 else {
  63:src/kernel.cpp ****                     //__asm__ volatile ("li a0, -1");
  64:src/kernel.cpp ****                     __asm__ volatile ("li t0, -1"); //-1 = error
  65:src/kernel.cpp ****                     __asm__ volatile ("sw t0, 80(x8)"); //override previously stored a0 in memory t
  66:src/kernel.cpp ****                 }
  67:src/kernel.cpp ****                 break;
  68:src/kernel.cpp ****             case 0x12: // thread_exit
  69:src/kernel.cpp ****                 TCB::running->setFinished(true);
  70:src/kernel.cpp ****                 TCB::dispatch();
  71:src/kernel.cpp ****                 __asm__ volatile ("li t0, 0");
  72:src/kernel.cpp ****                 __asm__ volatile ("sw t0, 80(x8)");
  73:src/kernel.cpp ****                 break;
  74:src/kernel.cpp ****             case 0x13: // thread_dispatch
  75:src/kernel.cpp ****                 TCB::dispatch();
  76:src/kernel.cpp ****                 break;
  77:src/kernel.cpp ****             case 0x14: // thread_join
  78:src/kernel.cpp ****                 TCB* handle;
  79:src/kernel.cpp ****                 __asm__ volatile ("mv %0, a1" : "=r" (handle));
  80:src/kernel.cpp ****                 TCB::join(handle);
  81:src/kernel.cpp ****                 TCB::dispatch();
  82:src/kernel.cpp ****                 break;
  83:src/kernel.cpp ****             default:
GAS LISTING /tmp/ccT3mO0I.s 			page 6


  84:src/kernel.cpp ****                 break;
  85:src/kernel.cpp ****         }
  86:src/kernel.cpp **** 
  87:src/kernel.cpp ****         w_sstatus(sstatus);
  88:src/kernel.cpp ****         w_sepc(sepc);
  89:src/kernel.cpp ****     }
  90:src/kernel.cpp ****     
  91:src/kernel.cpp ****     return;
  92:src/kernel.cpp **** }...
  92              		.loc 1 92 1
  93 0050 83308105 		ld	ra,88(sp)
  94              		.cfi_remember_state
  95              		.cfi_restore 1
  96 0054 03340105 		ld	s0,80(sp)
  97              		.cfi_restore 8
  98              		.cfi_def_cfa 2, 96
  99 0058 83348104 		ld	s1,72(sp)
 100              		.cfi_restore 9
 101 005c 13010106 		addi	sp,sp,96
 102              		.cfi_def_cfa_offset 0
 103 0060 67800000 		jr	ra
 104              	.L15:
 105              		.cfi_restore_state
 106              	.LBB45:
 107              	.LBB27:
  23:src/kernel.cpp ****         uint64 volatile sepc = r_sepc() + 4;
 108              		.loc 1 23 9 is_stmt 1
 109              	.LBB28:
 110              	.LBB29:
  59:src/../h/kernel.hpp ****         __asm__ volatile("csrr %0, sepc" : "=r"(x));
 111              		.loc 2 59 9
  60:src/../h/kernel.hpp ****         return x;
 112              		.loc 2 60 9
  60:src/../h/kernel.hpp ****         return x;
 113              		.loc 2 60 52 is_stmt 0
 114              	#APP
 115              	# 60 "src/../h/kernel.hpp" 1
 116              		csrr a5, sepc
 117              	# 0 "" 2
 118              	#NO_APP
 119 0068 233CF4FC 		sd	a5,-40(s0)
  61:src/../h/kernel.hpp ****     }
 120              		.loc 2 61 9 is_stmt 1
  61:src/../h/kernel.hpp ****     }
 121              		.loc 2 61 16 is_stmt 0
 122 006c 833784FD 		ld	a5,-40(s0)
 123              	.LBE29:
 124              	.LBE28:
  23:src/kernel.cpp ****         uint64 volatile sepc = r_sepc() + 4;
 125              		.loc 1 23 41
 126 0070 93874700 		addi	a5,a5,4
  23:src/kernel.cpp ****         uint64 volatile sepc = r_sepc() + 4;
 127              		.loc 1 23 43
 128 0074 2334F4FA 		sd	a5,-88(s0)
  24:src/kernel.cpp ****         uint64 volatile sstatus =  r_sstatus();
 129              		.loc 1 24 9 is_stmt 1
 130              	.LBB30:
GAS LISTING /tmp/ccT3mO0I.s 			page 7


 131              	.LBB31:
  69:src/../h/kernel.hpp ****         __asm__ volatile("csrr %0, sstatus" : "=r"(x));
 132              		.loc 2 69 9
  70:src/../h/kernel.hpp ****         return x;
 133              		.loc 2 70 9
  70:src/../h/kernel.hpp ****         return x;
 134              		.loc 2 70 55 is_stmt 0
 135              	#APP
 136              	# 70 "src/../h/kernel.hpp" 1
 137              		csrr a5, sstatus
 138              	# 0 "" 2
 139              	#NO_APP
 140 007c 2338F4FC 		sd	a5,-48(s0)
  71:src/../h/kernel.hpp ****     }
 141              		.loc 2 71 9 is_stmt 1
  71:src/../h/kernel.hpp ****     }
 142              		.loc 2 71 16 is_stmt 0
 143 0080 833704FD 		ld	a5,-48(s0)
 144              	.LBE31:
 145              	.LBE30:
  24:src/kernel.cpp ****         uint64 volatile sstatus =  r_sstatus();
 146              		.loc 1 24 46
 147 0084 2338F4FA 		sd	a5,-80(s0)
  26:src/kernel.cpp ****         uint64 volatile opcode = r_a0();
 148              		.loc 1 26 9 is_stmt 1
 149              	.LBB32:
 150              	.LBB33:
  49:src/../h/kernel.hpp ****         __asm__ volatile("mv %0, a0" : "=r"(x));
 151              		.loc 2 49 9
  50:src/../h/kernel.hpp ****         return x;
 152              		.loc 2 50 9
  50:src/../h/kernel.hpp ****         return x;
 153              		.loc 2 50 48 is_stmt 0
 154              	#APP
 155              	# 50 "src/../h/kernel.hpp" 1
 156              		mv a5, a0
 157              	# 0 "" 2
 158              	#NO_APP
 159 008c 2334F4FC 		sd	a5,-56(s0)
  51:src/../h/kernel.hpp ****     }
 160              		.loc 2 51 9 is_stmt 1
  51:src/../h/kernel.hpp ****     }
 161              		.loc 2 51 16 is_stmt 0
 162 0090 833784FC 		ld	a5,-56(s0)
 163              	.LBE33:
 164              	.LBE32:
  26:src/kernel.cpp ****         uint64 volatile opcode = r_a0();
 165              		.loc 1 26 39
 166 0094 233CF4FA 		sd	a5,-72(s0)
  28:src/kernel.cpp ****         int value;
 167              		.loc 1 28 9 is_stmt 1
  29:src/kernel.cpp ****         void* pointer;
 168              		.loc 1 29 9
  30:src/kernel.cpp ****         switch (opcode) {
 169              		.loc 1 30 9
 170              	.LBB34:
  30:src/kernel.cpp ****         switch (opcode) {
GAS LISTING /tmp/ccT3mO0I.s 			page 8


 171              		.loc 1 30 17 is_stmt 0
 172 0098 833784FB 		ld	a5,-72(s0)
 173 009c 13074001 		li	a4,20
 174 00a0 6360F704 		bgtu	a5,a4,.L5
 175 00a4 93972700 		slli	a5,a5,2
 176 00a8 17070000 		lla	a4,.L7
 176      13070700 
 177 00b0 B387E700 		add	a5,a5,a4
 178 00b4 83A70700 		lw	a5,0(a5)
 179 00b8 B387E700 		add	a5,a5,a4
 180 00bc 67800700 		jr	a5
 181              		.section	.rodata
 182              		.align	2
 183              		.align	2
 184              	.L7:
 185 0000 00000000 		.word	.L5-.L7
 186 0004 00000000 		.word	.L12-.L7
 187 0008 00000000 		.word	.L11-.L7
 188 000c 00000000 		.word	.L5-.L7
 189 0010 00000000 		.word	.L5-.L7
 190 0014 00000000 		.word	.L5-.L7
 191 0018 00000000 		.word	.L5-.L7
 192 001c 00000000 		.word	.L5-.L7
 193 0020 00000000 		.word	.L5-.L7
 194 0024 00000000 		.word	.L5-.L7
 195 0028 00000000 		.word	.L5-.L7
 196 002c 00000000 		.word	.L5-.L7
 197 0030 00000000 		.word	.L5-.L7
 198 0034 00000000 		.word	.L5-.L7
 199 0038 00000000 		.word	.L5-.L7
 200 003c 00000000 		.word	.L5-.L7
 201 0040 00000000 		.word	.L5-.L7
 202 0044 00000000 		.word	.L10-.L7
 203 0048 00000000 		.word	.L9-.L7
 204 004c 00000000 		.word	.L8-.L7
 205 0050 00000000 		.word	.L6-.L7
 206              		.text
 207              	.L12:
 208              	.LBB35:
  31:src/kernel.cpp ****             case 0x01: //mem_alloc
 209              		.loc 1 31 13 is_stmt 1
  32:src/kernel.cpp ****                 size_t size;
 210              		.loc 1 32 17
  33:src/kernel.cpp ****                 __asm__ volatile("mv %0, a1" : "=r" (size));
 211              		.loc 1 33 17
  33:src/kernel.cpp ****                 __asm__ volatile("mv %0, a1" : "=r" (size));
 212              		.loc 1 33 60 is_stmt 0
 213              	#APP
 214              	# 33 "src/kernel.cpp" 1
 215              		mv s1, a1
 216              	# 0 "" 2
 217              	.LVL4:
  35:src/kernel.cpp ****                 pointer = MemoryAllocator::instance().kmem_alloc(size);
 218              		.loc 1 35 17 is_stmt 1
  35:src/kernel.cpp ****                 pointer = MemoryAllocator::instance().kmem_alloc(size);
 219              		.loc 1 35 53 is_stmt 0
 220              	#NO_APP
GAS LISTING /tmp/ccT3mO0I.s 			page 9


 221 00c4 97000000 		call	_ZN15MemoryAllocator8instanceEv@plt
 221      E7800000 
 222              	.LVL5:
  35:src/kernel.cpp ****                 pointer = MemoryAllocator::instance().kmem_alloc(size);
 223              		.loc 1 35 65
 224 00cc 93850400 		mv	a1,s1
 225 00d0 97000000 		call	_ZN15MemoryAllocator10kmem_allocEm@plt
 225      E7800000 
 226              	.LVL6:
  37:src/kernel.cpp ****                 __asm__ volatile("mv t0, %0" : : "r"(pointer));
 227              		.loc 1 37 17 is_stmt 1
  37:src/kernel.cpp ****                 __asm__ volatile("mv t0, %0" : : "r"(pointer));
 228              		.loc 1 37 63 is_stmt 0
 229              	#APP
 230              	# 37 "src/kernel.cpp" 1
  38:src/kernel.cpp ****                 __asm__ volatile ("sw t0, 80(x8)"); //override previously stored a0 in memory to re
 231              		mv t0, a0
 232              	# 0 "" 2
 233              		.loc 1 38 17 is_stmt 1
  38:src/kernel.cpp ****                 __asm__ volatile ("sw t0, 80(x8)"); //override previously stored a0 in memory to re
 234              		.loc 1 38 51 is_stmt 0
 235              	# 38 "src/kernel.cpp" 1
  39:src/kernel.cpp ****                 break;
 236              		sw t0, 80(x8)
 237              	# 0 "" 2
 238              		.loc 1 39 17 is_stmt 1
 239              	.LVL7:
 240              	#NO_APP
 241              	.L5:
 242              	.LBE35:
 243              	.LBE34:
  87:src/kernel.cpp ****         w_sstatus(sstatus);
 244              		.loc 1 87 9
  87:src/kernel.cpp ****         w_sstatus(sstatus);
 245              		.loc 1 87 18 is_stmt 0
 246 00e0 833704FB 		ld	a5,-80(s0)
 247              	.LVL8:
 248              	.LBB39:
 249              	.LBB40:
  75:src/../h/kernel.hpp ****     }
 250              		.loc 2 75 9 is_stmt 1
  75:src/../h/kernel.hpp ****     }
 251              		.loc 2 75 56 is_stmt 0
 252              	#APP
 253              	# 75 "src/../h/kernel.hpp" 1
 254              		csrw sstatus, a5
 255              	# 0 "" 2
 256              	.LVL9:
 257              	#NO_APP
 258              	.LBE40:
 259              	.LBE39:
  88:src/kernel.cpp ****         w_sepc(sepc);
 260              		.loc 1 88 9 is_stmt 1
  88:src/kernel.cpp ****         w_sepc(sepc);
 261              		.loc 1 88 15 is_stmt 0
 262 00e8 833784FA 		ld	a5,-88(s0)
 263              	.LVL10:
GAS LISTING /tmp/ccT3mO0I.s 			page 10


 264              	.LBB41:
 265              	.LBB42:
  65:src/../h/kernel.hpp ****     }
 266              		.loc 2 65 9 is_stmt 1
  65:src/../h/kernel.hpp ****     }
 267              		.loc 2 65 53 is_stmt 0
 268              	#APP
 269              	# 65 "src/../h/kernel.hpp" 1
 270              		csrw sepc, a5
 271              	# 0 "" 2
 272              	.LVL11:
 273              	#NO_APP
 274              	.LBE42:
 275              	.LBE41:
 276              	.LBE27:
 277              	.LBE45:
  91:src/kernel.cpp ****     return;
 278              		.loc 1 91 5 is_stmt 1
 279 00f0 6FF01FF6 		j	.L3
 280              	.L11:
 281              	.LBB46:
 282              	.LBB44:
 283              	.LBB43:
 284              	.LBB38:
  41:src/kernel.cpp ****             case 0x02: //mem_free
 285              		.loc 1 41 13
  42:src/kernel.cpp ****                 __asm__ volatile("mv %0, a1" : "=r" (pointer));
 286              		.loc 1 42 17
  42:src/kernel.cpp ****                 __asm__ volatile("mv %0, a1" : "=r" (pointer));
 287              		.loc 1 42 63 is_stmt 0
 288              	#APP
 289              	# 42 "src/kernel.cpp" 1
 290              		mv s1, a1
 291              	# 0 "" 2
 292              	.LVL12:
  44:src/kernel.cpp ****                 value = MemoryAllocator::instance().kmem_free(pointer);
 293              		.loc 1 44 17 is_stmt 1
  44:src/kernel.cpp ****                 value = MemoryAllocator::instance().kmem_free(pointer);
 294              		.loc 1 44 51 is_stmt 0
 295              	#NO_APP
 296 00f8 97000000 		call	_ZN15MemoryAllocator8instanceEv@plt
 296      E7800000 
 297              	.LVL13:
  44:src/kernel.cpp ****                 value = MemoryAllocator::instance().kmem_free(pointer);
 298              		.loc 1 44 62
 299 0100 93850400 		mv	a1,s1
 300 0104 97000000 		call	_ZN15MemoryAllocator9kmem_freeEPv@plt
 300      E7800000 
 301              	.LVL14:
  46:src/kernel.cpp ****                 __asm__ volatile("mv t0, %0" : : "r"(value));
 302              		.loc 1 46 17 is_stmt 1
  46:src/kernel.cpp ****                 __asm__ volatile("mv t0, %0" : : "r"(value));
 303              		.loc 1 46 61 is_stmt 0
 304              	#APP
 305              	# 46 "src/kernel.cpp" 1
  47:src/kernel.cpp ****                 __asm__ volatile ("sw t0, 80(x8)"); //override previously stored a0 in memory to re
 306              		mv t0, a0
GAS LISTING /tmp/ccT3mO0I.s 			page 11


 307              	# 0 "" 2
 308              		.loc 1 47 17 is_stmt 1
  47:src/kernel.cpp ****                 __asm__ volatile ("sw t0, 80(x8)"); //override previously stored a0 in memory to re
 309              		.loc 1 47 51 is_stmt 0
 310              	# 47 "src/kernel.cpp" 1
  48:src/kernel.cpp ****                 break;
 311              		sw t0, 80(x8)
 312              	# 0 "" 2
 313              		.loc 1 48 17 is_stmt 1
 314              	#NO_APP
 315 0114 6FF0DFFC 		j	.L5
 316              	.LVL15:
 317              	.L10:
  49:src/kernel.cpp ****             case 0x11: // thread_create(*handle, start_routine, arg)
 318              		.loc 1 49 13
  50:src/kernel.cpp ****                 TCB** tcb; //handle is pointer to TCB, so we need pointer to pointer to TCB to writ
 319              		.loc 1 50 17
  51:src/kernel.cpp ****                 Body body; // pointer to function that takes a void pointer as an argument and retu
 320              		.loc 1 51 17
  52:src/kernel.cpp ****                 void* arg;
 321              		.loc 1 52 17
  53:src/kernel.cpp ****                 __asm__ volatile ("mv %0, a1" : "=r" (tcb));
 322              		.loc 1 53 17
  53:src/kernel.cpp ****                 __asm__ volatile ("mv %0, a1" : "=r" (tcb));
 323              		.loc 1 53 60 is_stmt 0
 324              	#APP
 325              	# 53 "src/kernel.cpp" 1
 326              		mv s1, a1
 327              	# 0 "" 2
 328              	.LVL16:
  54:src/kernel.cpp ****                 __asm__ volatile ("mv %0, a2" : "=r" (body));
 329              		.loc 1 54 17 is_stmt 1
  54:src/kernel.cpp ****                 __asm__ volatile ("mv %0, a2" : "=r" (body));
 330              		.loc 1 54 61 is_stmt 0
 331              	# 54 "src/kernel.cpp" 1
 332              		mv a0, a2
 333              	# 0 "" 2
 334              	.LVL17:
  55:src/kernel.cpp ****                 __asm__ volatile ("mv %0, a7" : "=r" (arg));
 335              		.loc 1 55 17 is_stmt 1
  55:src/kernel.cpp ****                 __asm__ volatile ("mv %0, a7" : "=r" (arg));
 336              		.loc 1 55 60 is_stmt 0
 337              	# 55 "src/kernel.cpp" 1
 338              		mv a1, a7
 339              	# 0 "" 2
 340              	.LVL18:
  56:src/kernel.cpp ****                 *tcb = TCB::createThread(body, arg);
 341              		.loc 1 56 17 is_stmt 1
  56:src/kernel.cpp ****                 *tcb = TCB::createThread(body, arg);
 342              		.loc 1 56 41 is_stmt 0
 343              	#NO_APP
 344 0124 97000000 		call	_ZN3TCB12createThreadEPFvPvES0_@plt
 344      E7800000 
 345              	.LVL19:
  56:src/kernel.cpp ****                 *tcb = TCB::createThread(body, arg);
 346              		.loc 1 56 22
 347 012c 23B0A400 		sd	a0,0(s1)
GAS LISTING /tmp/ccT3mO0I.s 			page 12


  57:src/kernel.cpp ****                 if(*tcb != nullptr) {
 348              		.loc 1 57 17 is_stmt 1
 349 0130 63080500 		beqz	a0,.L13
  59:src/kernel.cpp ****                     __asm__ volatile ("li t0, 0"); //load immediate 0 into t0 (success)
 350              		.loc 1 59 21
  59:src/kernel.cpp ****                     __asm__ volatile ("li t0, 0"); //load immediate 0 into t0 (success)
 351              		.loc 1 59 50 is_stmt 0
 352              	#APP
 353              	# 59 "src/kernel.cpp" 1
  60:src/kernel.cpp ****                     __asm__ volatile ("sw t0, 80(x8)"); //override previously stored a0 in memory t
 354              		li t0, 0
 355              	# 0 "" 2
 356              		.loc 1 60 21 is_stmt 1
  60:src/kernel.cpp ****                     __asm__ volatile ("sw t0, 80(x8)"); //override previously stored a0 in memory t
 357              		.loc 1 60 55 is_stmt 0
 358              	# 60 "src/kernel.cpp" 1
 359              		sw t0, 80(x8)
 360              	# 0 "" 2
 361              	#NO_APP
 362 013c 6FF05FFA 		j	.L5
 363              	.L13:
  64:src/kernel.cpp ****                     __asm__ volatile ("li t0, -1"); //-1 = error
 364              		.loc 1 64 21 is_stmt 1
  64:src/kernel.cpp ****                     __asm__ volatile ("li t0, -1"); //-1 = error
 365              		.loc 1 64 51 is_stmt 0
 366              	#APP
 367              	# 64 "src/kernel.cpp" 1
  65:src/kernel.cpp ****                     __asm__ volatile ("sw t0, 80(x8)"); //override previously stored a0 in memory t
 368              		li t0, -1
 369              	# 0 "" 2
 370              		.loc 1 65 21 is_stmt 1
  65:src/kernel.cpp ****                     __asm__ volatile ("sw t0, 80(x8)"); //override previously stored a0 in memory t
 371              		.loc 1 65 55 is_stmt 0
 372              	# 65 "src/kernel.cpp" 1
 373              		sw t0, 80(x8)
 374              	# 0 "" 2
 375              	#NO_APP
 376 0148 6FF09FF9 		j	.L5
 377              	.LVL20:
 378              	.L9:
  68:src/kernel.cpp ****             case 0x12: // thread_exit
 379              		.loc 1 68 13 is_stmt 1
  69:src/kernel.cpp ****                 TCB::running->setFinished(true);
 380              		.loc 1 69 17
  69:src/kernel.cpp ****                 TCB::running->setFinished(true);
 381              		.loc 1 69 42 is_stmt 0
 382 014c 97070000 		la	a5,_ZN3TCB7runningE
 382      83B70700 
 383 0154 83B70700 		ld	a5,0(a5)
 384              	.LVL21:
 385              	.LBB36:
 386              	.LBB37:
 387              		.file 3 "src/../h/tcb.hpp"
   1:src/../h/tcb.hpp **** #ifndef OS1_VEZBE07_RISCV_CONTEXT_SWITCH_2_INTERRUPT_TCB_HPP
   2:src/../h/tcb.hpp **** #define OS1_VEZBE07_RISCV_CONTEXT_SWITCH_2_INTERRUPT_TCB_HPP
   3:src/../h/tcb.hpp **** 
   4:src/../h/tcb.hpp **** #include "../lib/hw.h"
GAS LISTING /tmp/ccT3mO0I.s 			page 13


   5:src/../h/tcb.hpp **** #include "scheduler.hpp"
   6:src/../h/tcb.hpp **** 
   7:src/../h/tcb.hpp **** // Thread Control Block
   8:src/../h/tcb.hpp **** class TCB
   9:src/../h/tcb.hpp **** {
  10:src/../h/tcb.hpp **** public:
  11:src/../h/tcb.hpp ****     ~TCB() { delete[] stack; }
  12:src/../h/tcb.hpp **** 
  13:src/../h/tcb.hpp ****     bool isFinished() const { return finished; }
  14:src/../h/tcb.hpp **** 
  15:src/../h/tcb.hpp ****     void setFinished(bool value) { finished = value; }
 388              		.loc 3 15 36 is_stmt 1
 389              		.loc 3 15 45 is_stmt 0
 390 0158 13071000 		li	a4,1
 391 015c 2384E702 		sb	a4,40(a5)
 392              	.LVL22:
 393              	.LBE37:
 394              	.LBE36:
  70:src/kernel.cpp ****                 TCB::dispatch();
 395              		.loc 1 70 17 is_stmt 1
  70:src/kernel.cpp ****                 TCB::dispatch();
 396              		.loc 1 70 30 is_stmt 0
 397 0160 97000000 		call	_ZN3TCB8dispatchEv@plt
 397      E7800000 
 398              	.LVL23:
  71:src/kernel.cpp ****                 __asm__ volatile ("li t0, 0");
 399              		.loc 1 71 17 is_stmt 1
  71:src/kernel.cpp ****                 __asm__ volatile ("li t0, 0");
 400              		.loc 1 71 46 is_stmt 0
 401              	#APP
 402              	# 71 "src/kernel.cpp" 1
  72:src/kernel.cpp ****                 __asm__ volatile ("sw t0, 80(x8)");
 403              		li t0, 0
 404              	# 0 "" 2
 405              		.loc 1 72 17 is_stmt 1
  72:src/kernel.cpp ****                 __asm__ volatile ("sw t0, 80(x8)");
 406              		.loc 1 72 51 is_stmt 0
 407              	# 72 "src/kernel.cpp" 1
  73:src/kernel.cpp ****                 break;
 408              		sw t0, 80(x8)
 409              	# 0 "" 2
 410              		.loc 1 73 17 is_stmt 1
 411              	#NO_APP
 412 0170 6FF01FF7 		j	.L5
 413              	.L8:
  74:src/kernel.cpp ****             case 0x13: // thread_dispatch
 414              		.loc 1 74 13
  75:src/kernel.cpp ****                 TCB::dispatch();
 415              		.loc 1 75 17
  75:src/kernel.cpp ****                 TCB::dispatch();
 416              		.loc 1 75 30 is_stmt 0
 417 0174 97000000 		call	_ZN3TCB8dispatchEv@plt
 417      E7800000 
 418              	.LVL24:
  76:src/kernel.cpp ****                 break;
 419              		.loc 1 76 17 is_stmt 1
 420 017c 6FF05FF6 		j	.L5
GAS LISTING /tmp/ccT3mO0I.s 			page 14


 421              	.L6:
  77:src/kernel.cpp ****             case 0x14: // thread_join
 422              		.loc 1 77 13
  78:src/kernel.cpp ****                 TCB* handle;
 423              		.loc 1 78 17
  79:src/kernel.cpp ****                 __asm__ volatile ("mv %0, a1" : "=r" (handle));
 424              		.loc 1 79 17
  79:src/kernel.cpp ****                 __asm__ volatile ("mv %0, a1" : "=r" (handle));
 425              		.loc 1 79 63 is_stmt 0
 426              	#APP
 427              	# 79 "src/kernel.cpp" 1
 428              		mv a0, a1
 429              	# 0 "" 2
 430              	.LVL25:
  80:src/kernel.cpp ****                 TCB::join(handle);
 431              		.loc 1 80 17 is_stmt 1
  80:src/kernel.cpp ****                 TCB::join(handle);
 432              		.loc 1 80 26 is_stmt 0
 433              	#NO_APP
 434 0184 97000000 		call	_ZN3TCB4joinEPS_@plt
 434      E7800000 
 435              	.LVL26:
  81:src/kernel.cpp ****                 TCB::dispatch();
 436              		.loc 1 81 17 is_stmt 1
  81:src/kernel.cpp ****                 TCB::dispatch();
 437              		.loc 1 81 30 is_stmt 0
 438 018c 97000000 		call	_ZN3TCB8dispatchEv@plt
 438      E7800000 
 439              	.LVL27:
  82:src/kernel.cpp ****                 break;
 440              		.loc 1 82 17 is_stmt 1
 441 0194 6FF0DFF4 		j	.L5
 442              	.LBE38:
 443              	.LBE43:
 444              	.LBE44:
 445              	.LBE46:
 446              		.cfi_endproc
 447              	.LFE38:
 449              	.Letext0:
 450              		.file 4 "src/../h/../lib/hw.h"
 451              		.file 5 "src/../h/memory_allocator.hpp"
 452              		.file 6 "src/../h/list.hpp"
GAS LISTING /tmp/ccT3mO0I.s 			page 15

