GAS LISTING /tmp/ccq5PjM8.s 			page 1


   1              		.file	"main.cpp"
   2              		.option pic
   3              		.option norelax
   4              		.text
   5              	.Ltext0:
   6              		.align	2
   7              		.globl	main
   9              	main:
  10              	.LFB64:
  11              		.file 1 "src/main.cpp"
   1:src/main.cpp  **** #include "../lib/console.h"
   2:src/main.cpp  **** #include "../lib/hw.h"
   3:src/main.cpp  **** #include "../h/syscall_c.hpp"
   4:src/main.cpp  **** #include "../h/kernel.hpp"
   5:src/main.cpp  **** #include "../h/memory_allocator.hpp"
   6:src/main.cpp  **** 
   7:src/main.cpp  **** extern void userMain();
   8:src/main.cpp  **** 
   9:src/main.cpp  **** void main()
  10:src/main.cpp  **** {
  12              		.loc 1 10 1
  13              		.cfi_startproc
  14 0000 130101FC 		addi	sp,sp,-64
  15              		.cfi_def_cfa_offset 64
  16 0004 233C1102 		sd	ra,56(sp)
  17 0008 23388102 		sd	s0,48(sp)
  18              		.cfi_offset 1, -8
  19              		.cfi_offset 8, -16
  20 000c 13040104 		addi	s0,sp,64
  21              		.cfi_def_cfa 8, 0
  11:src/main.cpp  **** 
  12:src/main.cpp  ****     Kernel::init();
  22              		.loc 1 12 5
  23              		.loc 1 12 17 is_stmt 0
  24 0010 97000000 		call	_ZN6Kernel4initEv@plt
  24      E7800000 
  25              	.LVL0:
  13:src/main.cpp  ****     Kernel::ms_sstatus(Kernel::SSTATUS_SIE);
  26              		.loc 1 13 5 is_stmt 1
  27              	.LBB12:
  28              	.LBB13:
  29              		.file 2 "src/../h/kernel.hpp"
   1:src/../h/kernel.hpp **** #ifndef KERNEL_HPP
   2:src/../h/kernel.hpp **** #define KERNEL_HPP
   3:src/../h/kernel.hpp **** 
   4:src/../h/kernel.hpp **** #include "../lib/hw.h"
   5:src/../h/kernel.hpp **** #include "../lib/console.h"
   6:src/../h/kernel.hpp **** #include "buffer.hpp"
   7:src/../h/kernel.hpp **** 
   8:src/../h/kernel.hpp **** class Kernel {
   9:src/../h/kernel.hpp **** public:
  10:src/../h/kernel.hpp ****     // entry point init
  11:src/../h/kernel.hpp ****     static void init();
  12:src/../h/kernel.hpp **** 
  13:src/../h/kernel.hpp ****     // Posebna, uvek-aktivna nit koja prazni buffOUT na konzolu. Blokiranje na
  14:src/../h/kernel.hpp ****     // semaforu unutar Buffer::get() sme da se desi samo u kontekstu obicne niti
  15:src/../h/kernel.hpp ****     // (ne unutar prekidne rutine), zato ovo mora biti nit, a ne deo
GAS LISTING /tmp/ccq5PjM8.s 			page 2


  16:src/../h/kernel.hpp ****     // supervisorTrapHandler-a.
  17:src/../h/kernel.hpp ****     static void outputThreadBody(void* arg);
  18:src/../h/kernel.hpp **** 
  19:src/../h/kernel.hpp ****     // Da li jos ima karaktera koje output nit nije stigla da isprazni na konzolu.
  20:src/../h/kernel.hpp ****     // Koristi se da se pozivalac (npr. main()) ne vrati pre nego sto se sav
  21:src/../h/kernel.hpp ****     // ispis stvarno prenese, jer je pra_njenje buffOUT-a asinhrono (u posebnoj niti).
  22:src/../h/kernel.hpp ****     static bool outputPending() { return !buffOUT->empty(); }
  23:src/../h/kernel.hpp **** 
  24:src/../h/kernel.hpp **** private:
  25:src/../h/kernel.hpp ****     static void supervisorTrapHandler();
  26:src/../h/kernel.hpp ****     static void supervisorTrap();
  27:src/../h/kernel.hpp ****     static void initBuffers();
  28:src/../h/kernel.hpp ****     static Buffer *buffIN;
  29:src/../h/kernel.hpp ****     static Buffer *buffOUT;
  30:src/../h/kernel.hpp **** public:
  31:src/../h/kernel.hpp ****     static inline uint64 r_scause() {
  32:src/../h/kernel.hpp ****         uint64 volatile x;
  33:src/../h/kernel.hpp ****         __asm__ volatile("csrr %0, scause" : "=r"(x));
  34:src/../h/kernel.hpp ****         return x;
  35:src/../h/kernel.hpp ****     }
  36:src/../h/kernel.hpp **** 
  37:src/../h/kernel.hpp ****     static inline uint64 r_a0() {
  38:src/../h/kernel.hpp ****         uint64 volatile x;
  39:src/../h/kernel.hpp ****         __asm__ volatile("mv %0, a0" : "=r"(x));
  40:src/../h/kernel.hpp ****         return x;
  41:src/../h/kernel.hpp ****     }
  42:src/../h/kernel.hpp **** 
  43:src/../h/kernel.hpp ****     static inline void w_a0(uint64 x) {
  44:src/../h/kernel.hpp ****         __asm__ volatile("mv a0, %0" : : "r"(x));
  45:src/../h/kernel.hpp ****     }
  46:src/../h/kernel.hpp **** 
  47:src/../h/kernel.hpp ****     static inline void w_scause(uint64 x) {
  48:src/../h/kernel.hpp ****         __asm__ volatile("csrw scause, %0" : : "r"(x));
  49:src/../h/kernel.hpp ****     }
  50:src/../h/kernel.hpp **** 
  51:src/../h/kernel.hpp ****     static inline uint64 r_sepc() {
  52:src/../h/kernel.hpp ****         uint64 volatile x;
  53:src/../h/kernel.hpp ****         __asm__ volatile("csrr %0, sepc" : "=r"(x));
  54:src/../h/kernel.hpp ****         return x;
  55:src/../h/kernel.hpp ****     }
  56:src/../h/kernel.hpp **** 
  57:src/../h/kernel.hpp ****     static inline void w_sepc(uint64 x) {
  58:src/../h/kernel.hpp ****         __asm__ volatile("csrw sepc, %0" : : "r"(x));
  59:src/../h/kernel.hpp ****     }
  60:src/../h/kernel.hpp **** 
  61:src/../h/kernel.hpp ****     static inline uint64 r_sstatus() {
  62:src/../h/kernel.hpp ****         uint64 volatile x;
  63:src/../h/kernel.hpp ****         __asm__ volatile("csrr %0, sstatus" : "=r"(x));
  64:src/../h/kernel.hpp ****         return x;
  65:src/../h/kernel.hpp ****     }
  66:src/../h/kernel.hpp **** 
  67:src/../h/kernel.hpp ****     static inline void w_sstatus(uint64 x) {
  68:src/../h/kernel.hpp ****         __asm__ volatile("csrw sstatus, %0" : : "r"(x));
  69:src/../h/kernel.hpp ****     }
  70:src/../h/kernel.hpp **** 
  71:src/../h/kernel.hpp ****     static inline void ms_sstatus(uint64 mask) {
  72:src/../h/kernel.hpp ****         __asm__ volatile("csrs sstatus, %0" : : "r"(mask));
GAS LISTING /tmp/ccq5PjM8.s 			page 3


  30              		.loc 2 72 9
  31              		.loc 2 72 59 is_stmt 0
  32 0018 93072000 		li	a5,2
  33              	#APP
  34              	# 72 "src/../h/kernel.hpp" 1
  73              	    }
  35              		csrs sstatus, a5
  36              	# 0 "" 2
  37              	.LVL1:
  38              	#NO_APP
  39              	.LBE13:
  40              	.LBE12:
  14:src/main.cpp  **** 
  15:src/main.cpp  ****     TCB *threads[5];
  41              		.loc 1 15 5 is_stmt 1
  16:src/main.cpp  **** 
  17:src/main.cpp  ****     threads[0] = TCB::createThread(nullptr,nullptr);
  42              		.loc 1 17 5
  43              		.loc 1 17 35 is_stmt 0
  44 0020 93050000 		li	a1,0
  45 0024 13050000 		li	a0,0
  46 0028 97000000 		call	_ZN3TCB12createThreadEPFvPvES0_@plt
  46      E7800000 
  47              	.LVL2:
  48              		.loc 1 17 16
  49 0030 2334A4FC 		sd	a0,-56(s0)
  18:src/main.cpp  ****     TCB::running = threads[0];
  50              		.loc 1 18 5 is_stmt 1
  51              		.loc 1 18 18 is_stmt 0
  52 0034 97070000 		la	a5,_ZN3TCB7runningE
  52      83B70700 
  53 003c 23B0A700 		sd	a0,0(a5)
  19:src/main.cpp  **** 
  20:src/main.cpp  ****     thread_create(&threads[1], reinterpret_cast<void (*)(void *)>(userMain), nullptr);
  54              		.loc 1 20 5 is_stmt 1
  55              		.loc 1 20 18 is_stmt 0
  56 0040 13060000 		li	a2,0
  57 0044 97050000 		la	a1,_Z8userMainv
  57      83B50500 
  58 004c 130504FD 		addi	a0,s0,-48
  59 0050 97000000 		call	_Z13thread_createPP3TCBPFvPvES2_@plt
  59      E7800000 
  60              	.LVL3:
  61 0058 6F00C000 		j	.L4
  62              	.L2:
  21:src/main.cpp  **** 
  22:src/main.cpp  ****     while(!threads[1]->isFinished() || Kernel::outputPending()) {
  23:src/main.cpp  ****         thread_dispatch();
  63              		.loc 1 23 9 is_stmt 1 discriminator 3
  64              		.loc 1 23 24 is_stmt 0 discriminator 3
  65 005c 97000000 		call	_Z15thread_dispatchv@plt
  65      E7800000 
  66              	.LVL4:
  67              	.L4:
  22:src/main.cpp  ****         thread_dispatch();
  68              		.loc 1 22 5 is_stmt 1
  22:src/main.cpp  ****         thread_dispatch();
GAS LISTING /tmp/ccq5PjM8.s 			page 4


  69              		.loc 1 22 37
  22:src/main.cpp  ****         thread_dispatch();
  70              		.loc 1 22 21 is_stmt 0
  71 0064 833704FD 		ld	a5,-48(s0)
  72              	.LVL5:
  73              	.LBB14:
  74              	.LBB15:
  75              		.file 3 "src/../h/tcb.hpp"
   1:src/../h/tcb.hpp **** #ifndef OS1_VEZBE07_RISCV_CONTEXT_SWITCH_2_INTERRUPT_TCB_HPP
   2:src/../h/tcb.hpp **** #define OS1_VEZBE07_RISCV_CONTEXT_SWITCH_2_INTERRUPT_TCB_HPP
   3:src/../h/tcb.hpp **** 
   4:src/../h/tcb.hpp **** #include "../lib/hw.h"
   5:src/../h/tcb.hpp **** #include "scheduler.hpp"
   6:src/../h/tcb.hpp **** 
   7:src/../h/tcb.hpp **** // Thread Control Block
   8:src/../h/tcb.hpp **** class TCB
   9:src/../h/tcb.hpp **** {
  10:src/../h/tcb.hpp **** public:
  11:src/../h/tcb.hpp ****     ~TCB() { delete[] stack; }
  12:src/../h/tcb.hpp **** 
  13:src/../h/tcb.hpp ****     bool isFinished() const { return finished; }
  76              		.loc 3 13 31 is_stmt 1
  77              		.loc 3 13 38 is_stmt 0
  78 0068 83C70702 		lbu	a5,32(a5)
  79              	.LVL6:
  80              	.LBE15:
  81              	.LBE14:
  22:src/main.cpp  ****         thread_dispatch();
  82              		.loc 1 22 37
  83 006c E38807FE 		beqz	a5,.L2
  84              	.LBB16:
  85              	.LBB17:
  22:src/../h/kernel.hpp **** 
  86              		.loc 2 22 35 is_stmt 1
  22:src/../h/kernel.hpp **** 
  87              		.loc 2 22 57 is_stmt 0
  88 0070 97070000 		la	a5,_ZN6Kernel7buffOUTE
  88      83B70700 
  89 0078 83B70700 		ld	a5,0(a5)
  90              	.LVL7:
  91              	.LBB18:
  92              	.LBB19:
  93              		.file 4 "src/../h/buffer.hpp"
   1:src/../h/buffer.hpp **** //
   2:src/../h/buffer.hpp **** // Created by os on 6/7/24.
   3:src/../h/buffer.hpp **** //
   4:src/../h/buffer.hpp **** 
   5:src/../h/buffer.hpp **** #ifndef BUFFER
   6:src/../h/buffer.hpp **** #define BUFFER
   7:src/../h/buffer.hpp **** 
   8:src/../h/buffer.hpp **** #include "semaphore.hpp"
   9:src/../h/buffer.hpp **** 
  10:src/../h/buffer.hpp **** 
  11:src/../h/buffer.hpp **** class Buffer
  12:src/../h/buffer.hpp **** {
  13:src/../h/buffer.hpp **** public:
  14:src/../h/buffer.hpp ****         void put(char item);
GAS LISTING /tmp/ccq5PjM8.s 			page 5


  15:src/../h/buffer.hpp ****         char get();
  16:src/../h/buffer.hpp ****         Buffer(int cap);
  17:src/../h/buffer.hpp ****         ~Buffer();
  18:src/../h/buffer.hpp ****         void* operator new(size_t size)
  19:src/../h/buffer.hpp ****         {
  20:src/../h/buffer.hpp ****             return MemoryAllocator::instance().kmem_alloc(size);
  21:src/../h/buffer.hpp ****         }
  22:src/../h/buffer.hpp ****         void operator delete(void* ptr)
  23:src/../h/buffer.hpp ****         {
  24:src/../h/buffer.hpp ****             MemoryAllocator::instance().kmem_free(ptr);
  25:src/../h/buffer.hpp ****             return;
  26:src/../h/buffer.hpp ****         }
  27:src/../h/buffer.hpp ****         bool full() { return cnt==cap;}
  28:src/../h/buffer.hpp ****         bool empty() { return cnt==0;}
  94              		.loc 4 28 24 is_stmt 1
  95              		.loc 4 28 31 is_stmt 0
  96 007c 83A78702 		lw	a5,40(a5)
  97              	.LVL8:
  98              	.LBE19:
  99              	.LBE18:
 100              	.LBE17:
 101              	.LBE16:
  22:src/main.cpp  ****         thread_dispatch();
 102              		.loc 1 22 37
 103 0080 E39E07FC 		bnez	a5,.L2
  24:src/main.cpp  ****     }
  25:src/main.cpp  **** 
  26:src/main.cpp  ****     return;
  27:src/main.cpp  **** }...
 104              		.loc 1 27 1
 105 0084 83308103 		ld	ra,56(sp)
 106              		.cfi_restore 1
 107 0088 03340103 		ld	s0,48(sp)
 108              		.cfi_restore 8
 109              		.cfi_def_cfa 2, 64
 110 008c 13010104 		addi	sp,sp,64
 111              		.cfi_def_cfa_offset 0
 112 0090 67800000 		jr	ra
 113              		.cfi_endproc
 114              	.LFE64:
 116              	.Letext0:
 117              		.file 5 "src/../lib/hw.h"
 118              		.file 6 "src/../h/list.hpp"
 119              		.file 7 "src/../h/semaphore.hpp"
 120              		.file 8 "src/../h/syscall_c.hpp"
GAS LISTING /tmp/ccq5PjM8.s 			page 6


DEFINED SYMBOLS
                            *ABS*:0000000000000000 main.cpp
     /tmp/ccq5PjM8.s:9      .text:0000000000000000 main
     /tmp/ccq5PjM8.s:13     .text:0000000000000000 .L0 
     /tmp/ccq5PjM8.s:14     .text:0000000000000000 .L0 
     /tmp/ccq5PjM8.s:15     .text:0000000000000004 .L0 
     /tmp/ccq5PjM8.s:18     .text:000000000000000c .L0 
     /tmp/ccq5PjM8.s:19     .text:000000000000000c .L0 
     /tmp/ccq5PjM8.s:21     .text:0000000000000010 .L0 
     /tmp/ccq5PjM8.s:23     .text:0000000000000010 .L0 
     /tmp/ccq5PjM8.s:24     .text:0000000000000010 .L0 
     /tmp/ccq5PjM8.s:30     .text:0000000000000018 .L0 
     /tmp/ccq5PjM8.s:31     .text:0000000000000018 .L0 
     /tmp/ccq5PjM8.s:32     .text:0000000000000018 .L0 
     /tmp/ccq5PjM8.s:42     .text:0000000000000020 .L0 
     /tmp/ccq5PjM8.s:43     .text:0000000000000020 .L0 
     /tmp/ccq5PjM8.s:44     .text:0000000000000020 .L0 
     /tmp/ccq5PjM8.s:49     .text:0000000000000030 .L0 
     /tmp/ccq5PjM8.s:51     .text:0000000000000034 .L0 
     /tmp/ccq5PjM8.s:52     .text:0000000000000034 .L0 
     /tmp/ccq5PjM8.s:55     .text:0000000000000040 .L0 
     /tmp/ccq5PjM8.s:56     .text:0000000000000040 .L0 
     /tmp/ccq5PjM8.s:64     .text:000000000000005c .L0 
     /tmp/ccq5PjM8.s:65     .text:000000000000005c .L0 
     /tmp/ccq5PjM8.s:69     .text:0000000000000064 .L0 
     /tmp/ccq5PjM8.s:70     .text:0000000000000064 .L0 
     /tmp/ccq5PjM8.s:71     .text:0000000000000064 .L0 
     /tmp/ccq5PjM8.s:77     .text:0000000000000068 .L0 
     /tmp/ccq5PjM8.s:78     .text:0000000000000068 .L0 
     /tmp/ccq5PjM8.s:83     .text:000000000000006c .L0 
     /tmp/ccq5PjM8.s:87     .text:0000000000000070 .L0 
     /tmp/ccq5PjM8.s:88     .text:0000000000000070 .L0 
     /tmp/ccq5PjM8.s:95     .text:000000000000007c .L0 
     /tmp/ccq5PjM8.s:96     .text:000000000000007c .L0 
     /tmp/ccq5PjM8.s:103    .text:0000000000000080 .L0 
     /tmp/ccq5PjM8.s:105    .text:0000000000000084 .L0 
     /tmp/ccq5PjM8.s:106    .text:0000000000000088 .L0 
     /tmp/ccq5PjM8.s:108    .text:000000000000008c .L0 
     /tmp/ccq5PjM8.s:109    .text:000000000000008c .L0 
     /tmp/ccq5PjM8.s:111    .text:0000000000000090 .L0 
     /tmp/ccq5PjM8.s:113    .text:0000000000000094 .L0 
     /tmp/ccq5PjM8.s:121    .text:0000000000000094 .L0 
     /tmp/ccq5PjM8.s:52     .text:0000000000000034 .L0 
     /tmp/ccq5PjM8.s:57     .text:0000000000000044 .L0 
     /tmp/ccq5PjM8.s:88     .text:0000000000000070 .L0 
     /tmp/ccq5PjM8.s:67     .text:0000000000000064 .L4
     /tmp/ccq5PjM8.s:62     .text:000000000000005c .L2
     /tmp/ccq5PjM8.s:1833   .debug_abbrev:0000000000000000 .Ldebug_abbrev0
     /tmp/ccq5PjM8.s:3236   .debug_str:0000000000000bfd .LASF207
     /tmp/ccq5PjM8.s:2990   .debug_str:000000000000043e .LASF208
     /tmp/ccq5PjM8.s:3026   .debug_str:00000000000005ab .LASF209
     /tmp/ccq5PjM8.s:5      .text:0000000000000000 .Ltext0
     /tmp/ccq5PjM8.s:116    .text:0000000000000094 .Letext0
     /tmp/ccq5PjM8.s:2886   .debug_line:0000000000000000 .Ldebug_line0
     /tmp/ccq5PjM8.s:3022   .debug_str:0000000000000595 .LASF0
     /tmp/ccq5PjM8.s:3046   .debug_str:000000000000064d .LASF1
     /tmp/ccq5PjM8.s:3158   .debug_str:00000000000009c2 .LASF2
GAS LISTING /tmp/ccq5PjM8.s 			page 7


     /tmp/ccq5PjM8.s:3168   .debug_str:0000000000000a06 .LASF4
     /tmp/ccq5PjM8.s:3028   .debug_str:00000000000005c7 .LASF3
     /tmp/ccq5PjM8.s:2900   .debug_str:0000000000000069 .LASF5
     /tmp/ccq5PjM8.s:3130   .debug_str:0000000000000905 .LASF6
     /tmp/ccq5PjM8.s:3120   .debug_str:000000000000085f .LASF7
     /tmp/ccq5PjM8.s:3040   .debug_str:000000000000062c .LASF8
     /tmp/ccq5PjM8.s:3002   .debug_str:00000000000004b8 .LASF9
     /tmp/ccq5PjM8.s:3010   .debug_str:0000000000000509 .LASF10
     /tmp/ccq5PjM8.s:2940   .debug_str:0000000000000211 .LASF11
     /tmp/ccq5PjM8.s:2988   .debug_str:000000000000042f .LASF12
     /tmp/ccq5PjM8.s:2952   .debug_str:00000000000002b1 .LASF13
     /tmp/ccq5PjM8.s:2938   .debug_str:0000000000000201 .LASF14
     /tmp/ccq5PjM8.s:3212   .debug_str:0000000000000b7f .LASF15
     /tmp/ccq5PjM8.s:2970   .debug_str:0000000000000342 .LASF16
     /tmp/ccq5PjM8.s:3198   .debug_str:0000000000000b25 .LASF17
     /tmp/ccq5PjM8.s:3064   .debug_str:00000000000006d7 .LASF18
     /tmp/ccq5PjM8.s:3276   .debug_str:0000000000000dc6 .LASF39
     /tmp/ccq5PjM8.s:3262   .debug_str:0000000000000d66 .LASF116
     /tmp/ccq5PjM8.s:3204   .debug_str:0000000000000b54 .LASF19
     /tmp/ccq5PjM8.s:3094   .debug_str:00000000000007ad .LASF20
     /tmp/ccq5PjM8.s:3044   .debug_str:0000000000000648 .LASF21
     /tmp/ccq5PjM8.s:3084   .debug_str:0000000000000769 .LASF22
     /tmp/ccq5PjM8.s:3200   .debug_str:0000000000000b3b .LASF24
     /tmp/ccq5PjM8.s:2984   .debug_str:0000000000000400 .LASF29
     /tmp/ccq5PjM8.s:3162   .debug_str:00000000000009dd .LASF119
     /tmp/ccq5PjM8.s:3148   .debug_str:000000000000097e .LASF120
     /tmp/ccq5PjM8.s:3042   .debug_str:000000000000063f .LASF23
     /tmp/ccq5PjM8.s:2932   .debug_str:0000000000000197 .LASF25
     /tmp/ccq5PjM8.s:3058   .debug_str:00000000000006b2 .LASF26
     /tmp/ccq5PjM8.s:2972   .debug_str:0000000000000358 .LASF27
     /tmp/ccq5PjM8.s:3118   .debug_str:0000000000000853 .LASF28
     /tmp/ccq5PjM8.s:3278   .debug_str:0000000000000dd0 .LASF30
     /tmp/ccq5PjM8.s:3320   .debug_str:0000000000000f0f .LASF31
     /tmp/ccq5PjM8.s:3304   .debug_str:0000000000000e7e .LASF32
     /tmp/ccq5PjM8.s:3188   .debug_str:0000000000000ab8 .LASF33
     /tmp/ccq5PjM8.s:3038   .debug_str:000000000000060f .LASF34
     /tmp/ccq5PjM8.s:3142   .debug_str:0000000000000964 .LASF35
     /tmp/ccq5PjM8.s:2894   .debug_str:000000000000001b .LASF36
     /tmp/ccq5PjM8.s:3178   .debug_str:0000000000000a40 .LASF37
     /tmp/ccq5PjM8.s:3140   .debug_str:000000000000094b .LASF38
     /tmp/ccq5PjM8.s:3220   .debug_str:0000000000000bab .LASF210
     /tmp/ccq5PjM8.s:3170   .debug_str:0000000000000a0d .LASF40
     /tmp/ccq5PjM8.s:2898   .debug_str:000000000000005d .LASF41
     /tmp/ccq5PjM8.s:3222   .debug_str:0000000000000bb3 .LASF42
     /tmp/ccq5PjM8.s:3090   .debug_str:000000000000078e .LASF43
     /tmp/ccq5PjM8.s:2924   .debug_str:0000000000000168 .LASF44
     /tmp/ccq5PjM8.s:3256   .debug_str:0000000000000d38 .LASF45
     /tmp/ccq5PjM8.s:3290   .debug_str:0000000000000e1f .LASF46
     /tmp/ccq5PjM8.s:2934   .debug_str:00000000000001b4 .LASF47
     /tmp/ccq5PjM8.s:3226   .debug_str:0000000000000bd3 .LASF48
     /tmp/ccq5PjM8.s:2948   .debug_str:0000000000000260 .LASF49
     /tmp/ccq5PjM8.s:3250   .debug_str:0000000000000d15 .LASF50
     /tmp/ccq5PjM8.s:3116   .debug_str:000000000000083c .LASF51
     /tmp/ccq5PjM8.s:3086   .debug_str:000000000000076e .LASF52
     /tmp/ccq5PjM8.s:3060   .debug_str:00000000000006ba .LASF53
     /tmp/ccq5PjM8.s:3136   .debug_str:000000000000092c .LASF54
     /tmp/ccq5PjM8.s:3190   .debug_str:0000000000000ac3 .LASF55
GAS LISTING /tmp/ccq5PjM8.s 			page 8


     /tmp/ccq5PjM8.s:3210   .debug_str:0000000000000b72 .LASF56
     /tmp/ccq5PjM8.s:3266   .debug_str:0000000000000d79 .LASF57
     /tmp/ccq5PjM8.s:3114   .debug_str:0000000000000837 .LASF211
     /tmp/ccq5PjM8.s:3050   .debug_str:0000000000000669 .LASF60
     /tmp/ccq5PjM8.s:3240   .debug_str:0000000000000cd5 .LASF62
     /tmp/ccq5PjM8.s:3150   .debug_str:0000000000000995 .LASF58
     /tmp/ccq5PjM8.s:3172   .debug_str:0000000000000a12 .LASF59
     /tmp/ccq5PjM8.s:3082   .debug_str:000000000000075f .LASF61
     /tmp/ccq5PjM8.s:3164   .debug_str:00000000000009e7 .LASF63
     /tmp/ccq5PjM8.s:3232   .debug_str:0000000000000be8 .LASF64
     /tmp/ccq5PjM8.s:3302   .debug_str:0000000000000e6e .LASF65
     /tmp/ccq5PjM8.s:3310   .debug_str:0000000000000ebd .LASF66
     /tmp/ccq5PjM8.s:3006   .debug_str:00000000000004e9 .LASF67
     /tmp/ccq5PjM8.s:3070   .debug_str:000000000000070a .LASF68
     /tmp/ccq5PjM8.s:2998   .debug_str:000000000000049a .LASF69
     /tmp/ccq5PjM8.s:2892   .debug_str:000000000000000b .LASF70
     /tmp/ccq5PjM8.s:3106   .debug_str:00000000000007fe .LASF72
     /tmp/ccq5PjM8.s:3196   .debug_str:0000000000000b12 .LASF71
     /tmp/ccq5PjM8.s:3160   .debug_str:00000000000009d0 .LASF73
     /tmp/ccq5PjM8.s:3238   .debug_str:0000000000000cc1 .LASF212
     /tmp/ccq5PjM8.s:2890   .debug_str:0000000000000006 .LASF74
     /tmp/ccq5PjM8.s:3192   .debug_str:0000000000000ad6 .LASF75
     /tmp/ccq5PjM8.s:3252   .debug_str:0000000000000d21 .LASF76
     /tmp/ccq5PjM8.s:3218   .debug_str:0000000000000ba2 .LASF77
     /tmp/ccq5PjM8.s:3108   .debug_str:000000000000080b .LASF78
     /tmp/ccq5PjM8.s:3248   .debug_str:0000000000000d0b .LASF79
     /tmp/ccq5PjM8.s:3242   .debug_str:0000000000000ce5 .LASF80
     /tmp/ccq5PjM8.s:2930   .debug_str:0000000000000189 .LASF85
     /tmp/ccq5PjM8.s:3052   .debug_str:000000000000066f .LASF87
     /tmp/ccq5PjM8.s:2956   .debug_str:00000000000002c6 .LASF81
     /tmp/ccq5PjM8.s:2896   .debug_str:0000000000000035 .LASF83
     /tmp/ccq5PjM8.s:3230   .debug_str:0000000000000be3 .LASF82
     /tmp/ccq5PjM8.s:2992   .debug_str:000000000000044b .LASF84
     /tmp/ccq5PjM8.s:2964   .debug_str:00000000000002ed .LASF86
     /tmp/ccq5PjM8.s:2944   .debug_str:000000000000022a .LASF88
     /tmp/ccq5PjM8.s:2918   .debug_str:000000000000011e .LASF89
     /tmp/ccq5PjM8.s:3054   .debug_str:0000000000000688 .LASF90
     /tmp/ccq5PjM8.s:3182   .debug_str:0000000000000a5d .LASF159
     /tmp/ccq5PjM8.s:3166   .debug_str:00000000000009fb .LASF91
     /tmp/ccq5PjM8.s:3296   .debug_str:0000000000000e40 .LASF92
     /tmp/ccq5PjM8.s:3146   .debug_str:0000000000000973 .LASF93
     /tmp/ccq5PjM8.s:3298   .debug_str:0000000000000e4b .LASF94
     /tmp/ccq5PjM8.s:3152   .debug_str:00000000000009a0 .LASF95
     /tmp/ccq5PjM8.s:2914   .debug_str:00000000000000fd .LASF96
     /tmp/ccq5PjM8.s:3128   .debug_str:00000000000008d9 .LASF97
     /tmp/ccq5PjM8.s:3008   .debug_str:00000000000004f5 .LASF98
     /tmp/ccq5PjM8.s:3260   .debug_str:0000000000000d5e .LASF99
     /tmp/ccq5PjM8.s:2978   .debug_str:00000000000003c3 .LASF100
     /tmp/ccq5PjM8.s:3032   .debug_str:00000000000005ee .LASF101
     /tmp/ccq5PjM8.s:2966   .debug_str:00000000000002f6 .LASF102
     /tmp/ccq5PjM8.s:3154   .debug_str:00000000000009a7 .LASF103
     /tmp/ccq5PjM8.s:2946   .debug_str:000000000000023d .LASF104
     /tmp/ccq5PjM8.s:3244   .debug_str:0000000000000cec .LASF105
     /tmp/ccq5PjM8.s:3122   .debug_str:0000000000000872 .LASF106
     /tmp/ccq5PjM8.s:2912   .debug_str:00000000000000f7 .LASF107
     /tmp/ccq5PjM8.s:2986   .debug_str:0000000000000417 .LASF108
     /tmp/ccq5PjM8.s:3066   .debug_str:00000000000006dc .LASF109
GAS LISTING /tmp/ccq5PjM8.s 			page 9


     /tmp/ccq5PjM8.s:3056   .debug_str:000000000000069e .LASF110
     /tmp/ccq5PjM8.s:3020   .debug_str:0000000000000580 .LASF111
     /tmp/ccq5PjM8.s:3224   .debug_str:0000000000000bbe .LASF112
     /tmp/ccq5PjM8.s:3280   .debug_str:0000000000000dee .LASF113
     /tmp/ccq5PjM8.s:3202   .debug_str:0000000000000b4e .LASF114
     /tmp/ccq5PjM8.s:2910   .debug_str:00000000000000d3 .LASF115
     /tmp/ccq5PjM8.s:2968   .debug_str:0000000000000312 .LASF117
     /tmp/ccq5PjM8.s:3012   .debug_str:0000000000000517 .LASF118
     /tmp/ccq5PjM8.s:3184   .debug_str:0000000000000a6e .LASF121
     /tmp/ccq5PjM8.s:2974   .debug_str:0000000000000374 .LASF122
     /tmp/ccq5PjM8.s:2994   .debug_str:000000000000045c .LASF123
     /tmp/ccq5PjM8.s:2950   .debug_str:0000000000000276 .LASF124
     /tmp/ccq5PjM8.s:2936   .debug_str:00000000000001c9 .LASF125
     /tmp/ccq5PjM8.s:2920   .debug_str:0000000000000129 .LASF126
     /tmp/ccq5PjM8.s:3126   .debug_str:00000000000008a2 .LASF127
     /tmp/ccq5PjM8.s:3194   .debug_str:0000000000000adc .LASF128
     /tmp/ccq5PjM8.s:3270   .debug_str:0000000000000da1 .LASF129
     /tmp/ccq5PjM8.s:3110   .debug_str:0000000000000813 .LASF213
     /tmp/ccq5PjM8.s:3174   .debug_str:0000000000000a28 .LASF214
     /tmp/ccq5PjM8.s:3294   .debug_str:0000000000000e31 .LASF130
     /tmp/ccq5PjM8.s:3268   .debug_str:0000000000000d99 .LASF131
     /tmp/ccq5PjM8.s:3258   .debug_str:0000000000000d4f .LASF132
     /tmp/ccq5PjM8.s:2928   .debug_str:000000000000017a .LASF133
     /tmp/ccq5PjM8.s:3306   .debug_str:0000000000000e99 .LASF134
     /tmp/ccq5PjM8.s:3104   .debug_str:00000000000007f9 .LASF135
     /tmp/ccq5PjM8.s:3000   .debug_str:00000000000004a6 .LASF136
     /tmp/ccq5PjM8.s:2926   .debug_str:0000000000000174 .LASF137
     /tmp/ccq5PjM8.s:3112   .debug_str:0000000000000824 .LASF138
     /tmp/ccq5PjM8.s:2888   .debug_str:0000000000000000 .LASF139
     /tmp/ccq5PjM8.s:3314   .debug_str:0000000000000ee7 .LASF140
     /tmp/ccq5PjM8.s:3072   .debug_str:000000000000071a .LASF141
     /tmp/ccq5PjM8.s:3254   .debug_str:0000000000000d29 .LASF142
     /tmp/ccq5PjM8.s:2954   .debug_str:00000000000002c1 .LASF143
     /tmp/ccq5PjM8.s:3228   .debug_str:0000000000000bde .LASF144
     /tmp/ccq5PjM8.s:3214   .debug_str:0000000000000b8b .LASF145
     /tmp/ccq5PjM8.s:3284   .debug_str:0000000000000dff .LASF215
     /tmp/ccq5PjM8.s:2980   .debug_str:00000000000003dd .LASF146
     /tmp/ccq5PjM8.s:3234   .debug_str:0000000000000bf0 .LASF147
     /tmp/ccq5PjM8.s:2962   .debug_str:00000000000002e1 .LASF148
     /tmp/ccq5PjM8.s:2922   .debug_str:0000000000000163 .LASF149
     /tmp/ccq5PjM8.s:3208   .debug_str:0000000000000b60 .LASF150
     /tmp/ccq5PjM8.s:3300   .debug_str:0000000000000e5d .LASF151
     /tmp/ccq5PjM8.s:2908   .debug_str:00000000000000b3 .LASF152
     /tmp/ccq5PjM8.s:3018   .debug_str:0000000000000572 .LASF162
     /tmp/ccq5PjM8.s:3014   .debug_str:000000000000054b .LASF164
     /tmp/ccq5PjM8.s:3246   .debug_str:0000000000000cf5 .LASF153
     /tmp/ccq5PjM8.s:2906   .debug_str:000000000000008f .LASF154
     /tmp/ccq5PjM8.s:3288   .debug_str:0000000000000e10 .LASF155
     /tmp/ccq5PjM8.s:3312   .debug_str:0000000000000eca .LASF156
     /tmp/ccq5PjM8.s:3316   .debug_str:0000000000000efb .LASF157
     /tmp/ccq5PjM8.s:3068   .debug_str:00000000000006f0 .LASF158
     /tmp/ccq5PjM8.s:3062   .debug_str:00000000000006d0 .LASF160
     /tmp/ccq5PjM8.s:3074   .debug_str:0000000000000728 .LASF161
     /tmp/ccq5PjM8.s:3048   .debug_str:0000000000000660 .LASF163
     /tmp/ccq5PjM8.s:3186   .debug_str:0000000000000aa2 .LASF165
     /tmp/ccq5PjM8.s:3286   .debug_str:0000000000000e0b .LASF166
     /tmp/ccq5PjM8.s:3080   .debug_str:000000000000074d .LASF167
GAS LISTING /tmp/ccq5PjM8.s 			page 10


     /tmp/ccq5PjM8.s:3034   .debug_str:00000000000005f8 .LASF168
     /tmp/ccq5PjM8.s:3036   .debug_str:00000000000005fd .LASF169
     /tmp/ccq5PjM8.s:3024   .debug_str:00000000000005a2 .LASF170
     /tmp/ccq5PjM8.s:3138   .debug_str:0000000000000935 .LASF171
     /tmp/ccq5PjM8.s:3132   .debug_str:000000000000090c .LASF172
     /tmp/ccq5PjM8.s:3100   .debug_str:00000000000007d2 .LASF173
     /tmp/ccq5PjM8.s:3098   .debug_str:00000000000007cb .LASF174
     /tmp/ccq5PjM8.s:3308   .debug_str:0000000000000ea9 .LASF175
     /tmp/ccq5PjM8.s:3282   .debug_str:0000000000000df5 .LASF176
     /tmp/ccq5PjM8.s:2982   .debug_str:00000000000003e9 .LASF177
     /tmp/ccq5PjM8.s:2942   .debug_str:0000000000000220 .LASF178
     /tmp/ccq5PjM8.s:2916   .debug_str:0000000000000107 .LASF179
     /tmp/ccq5PjM8.s:2902   .debug_str:0000000000000070 .LASF180
     /tmp/ccq5PjM8.s:3274   .debug_str:0000000000000dad .LASF181
     /tmp/ccq5PjM8.s:3156   .debug_str:00000000000009b7 .LASF182
     /tmp/ccq5PjM8.s:3096   .debug_str:00000000000007b2 .LASF183
     /tmp/ccq5PjM8.s:3144   .debug_str:000000000000096d .LASF184
     /tmp/ccq5PjM8.s:3102   .debug_str:00000000000007e6 .LASF185
     /tmp/ccq5PjM8.s:3206   .debug_str:0000000000000b59 .LASF186
     /tmp/ccq5PjM8.s:3124   .debug_str:000000000000088e .LASF187
     /tmp/ccq5PjM8.s:3176   .debug_str:0000000000000a39 .LASF188
     /tmp/ccq5PjM8.s:2904   .debug_str:000000000000007b .LASF189
     /tmp/ccq5PjM8.s:3292   .debug_str:0000000000000e29 .LASF190
     /tmp/ccq5PjM8.s:3180   .debug_str:0000000000000a48 .LASF191
     /tmp/ccq5PjM8.s:3092   .debug_str:00000000000007a5 .LASF192
     /tmp/ccq5PjM8.s:3030   .debug_str:00000000000005d9 .LASF193
     /tmp/ccq5PjM8.s:3078   .debug_str:0000000000000745 .LASF194
     /tmp/ccq5PjM8.s:3088   .debug_str:0000000000000779 .LASF195
     /tmp/ccq5PjM8.s:3318   .debug_str:0000000000000f07 .LASF196
     /tmp/ccq5PjM8.s:2976   .debug_str:00000000000003ae .LASF197
     /tmp/ccq5PjM8.s:3016   .debug_str:0000000000000567 .LASF198
     /tmp/ccq5PjM8.s:3134   .debug_str:0000000000000913 .LASF199
     /tmp/ccq5PjM8.s:2996   .debug_str:0000000000000495 .LASF200
     /tmp/ccq5PjM8.s:10     .text:0000000000000000 .LFB64
     /tmp/ccq5PjM8.s:114    .text:0000000000000094 .LFE64
     /tmp/ccq5PjM8.s:2958   .debug_str:00000000000002d4 .LASF201
     /tmp/ccq5PjM8.s:27     .text:0000000000000018 .LBB12
     /tmp/ccq5PjM8.s:40     .text:0000000000000020 .LBE12
     /tmp/ccq5PjM8.s:2851   .debug_loc:0000000000000000 .LLST0
     /tmp/ccq5PjM8.s:73     .text:0000000000000068 .LBB14
     /tmp/ccq5PjM8.s:81     .text:000000000000006c .LBE14
     /tmp/ccq5PjM8.s:2859   .debug_loc:0000000000000024 .LLST1
     /tmp/ccq5PjM8.s:84     .text:0000000000000070 .LBB16
     /tmp/ccq5PjM8.s:101    .text:0000000000000080 .LBE16
     /tmp/ccq5PjM8.s:91     .text:000000000000007c .LBB18
     /tmp/ccq5PjM8.s:99     .text:0000000000000080 .LBE18
     /tmp/ccq5PjM8.s:2866   .debug_loc:0000000000000047 .LLST2
     /tmp/ccq5PjM8.s:25     .text:0000000000000018 .LVL0
     /tmp/ccq5PjM8.s:47     .text:0000000000000030 .LVL2
     /tmp/ccq5PjM8.s:60     .text:0000000000000058 .LVL3
     /tmp/ccq5PjM8.s:66     .text:0000000000000064 .LVL4
     /tmp/ccq5PjM8.s:3272   .debug_str:0000000000000da8 .LASF216
     /tmp/ccq5PjM8.s:2960   .debug_str:00000000000002dc .LASF202
     /tmp/ccq5PjM8.s:3004   .debug_str:00000000000004c8 .LASF203
     /tmp/ccq5PjM8.s:3264   .debug_str:0000000000000d6b .LASF205
     /tmp/ccq5PjM8.s:3076   .debug_str:0000000000000730 .LASF204
     /tmp/ccq5PjM8.s:3216   .debug_str:0000000000000b92 .LASF206
GAS LISTING /tmp/ccq5PjM8.s 			page 11


     /tmp/ccq5PjM8.s:37     .text:0000000000000020 .LVL1
     /tmp/ccq5PjM8.s:72     .text:0000000000000068 .LVL5
     /tmp/ccq5PjM8.s:79     .text:000000000000006c .LVL6
     /tmp/ccq5PjM8.s:90     .text:000000000000007c .LVL7
     /tmp/ccq5PjM8.s:97     .text:0000000000000080 .LVL8
     /tmp/ccq5PjM8.s:122    .debug_info:0000000000000000 .Ldebug_info0

UNDEFINED SYMBOLS
_ZN6Kernel4initEv
_ZN3TCB12createThreadEPFvPvES0_
_ZN3TCB7runningE
_Z8userMainv
_Z13thread_createPP3TCBPFvPvES2_
_Z15thread_dispatchv
_ZN6Kernel7buffOUTE
