GAS LISTING /tmp/ccq5PjM8.s 			page 1


   1              		.file	"main.cpp"
   2              		.option pic
   3              		.option norelax
   4              		.text
   5              	.Ltext0:
   6              		.align	2
   7              		.globl	main
   9              	main:
  10              	.LFB64:
  11              		.file 1 "src/main.cpp"
   1:src/main.cpp  **** #include "../lib/console.h"
   2:src/main.cpp  **** #include "../lib/hw.h"
   3:src/main.cpp  **** #include "../h/syscall_c.hpp"
   4:src/main.cpp  **** #include "../h/kernel.hpp"
   5:src/main.cpp  **** #include "../h/memory_allocator.hpp"
   6:src/main.cpp  **** 
   7:src/main.cpp  **** extern void userMain();
   8:src/main.cpp  **** 
   9:src/main.cpp  **** void main()
  10:src/main.cpp  **** {
  12              		.loc 1 10 1
  13              		.cfi_startproc
  14 0000 130101FC 		addi	sp,sp,-64
  15              		.cfi_def_cfa_offset 64
  16 0004 233C1102 		sd	ra,56(sp)
  17 0008 23388102 		sd	s0,48(sp)
  18              		.cfi_offset 1, -8
  19              		.cfi_offset 8, -16
  20 000c 13040104 		addi	s0,sp,64
  21              		.cfi_def_cfa 8, 0
  11:src/main.cpp  **** 
  12:src/main.cpp  ****     Kernel::init();
  22              		.loc 1 12 5
  23              		.loc 1 12 17 is_stmt 0
  24 0010 97000000 		call	_ZN6Kernel4initEv@plt
  24      E7800000 
  25              	.LVL0:
  13:src/main.cpp  ****     Kernel::ms_sstatus(Kernel::SSTATUS_SIE);
  26              		.loc 1 13 5 is_stmt 1
  27              	.LBB12:
  28              	.LBB13:
  29              		.file 2 "src/../h/kernel.hpp"
   1:src/../h/kernel.hpp **** #ifndef KERNEL_HPP
   2:src/../h/kernel.hpp **** #define KERNEL_HPP
   3:src/../h/kernel.hpp **** 
   4:src/../h/kernel.hpp **** #include "../lib/hw.h"
   5:src/../h/kernel.hpp **** #include "../lib/console.h"
   6:src/../h/kernel.hpp **** #include "buffer.hpp"
   7:src/../h/kernel.hpp **** 
   8:src/../h/kernel.hpp **** class Kernel {
   9:src/../h/kernel.hpp **** public:
  10:src/../h/kernel.hpp ****     // entry point init
  11:src/../h/kernel.hpp ****     static void init();
  12:src/../h/kernel.hpp **** 
  13:src/../h/kernel.hpp ****     // Posebna, uvek-aktivna nit koja prazni buffOUT na konzolu. Blokiranje na
  14:src/../h/kernel.hpp ****     // semaforu unutar Buffer::get() sme da se desi samo u kontekstu obicne niti
  15:src/../h/kernel.hpp ****     // (ne unutar prekidne rutine), zato ovo mora biti nit, a ne deo
GAS LISTING /tmp/ccq5PjM8.s 			page 2


  16:src/../h/kernel.hpp ****     // supervisorTrapHandler-a.
  17:src/../h/kernel.hpp ****     static void outputThreadBody(void* arg);
  18:src/../h/kernel.hpp **** 
  19:src/../h/kernel.hpp ****     // Da li jos ima karaktera koje output nit nije stigla da isprazni na konzolu.
  20:src/../h/kernel.hpp ****     // Koristi se da se pozivalac (npr. main()) ne vrati pre nego sto se sav
  21:src/../h/kernel.hpp ****     // ispis stvarno prenese, jer je pra_njenje buffOUT-a asinhrono (u posebnoj niti).
  22:src/../h/kernel.hpp ****     static bool outputPending() { return !buffOUT->empty(); }
  23:src/../h/kernel.hpp **** 
  24:src/../h/kernel.hpp **** private:
  25:src/../h/kernel.hpp ****     static void supervisorTrapHandler();
  26:src/../h/kernel.hpp ****     static void supervisorTrap();
  27:src/../h/kernel.hpp ****     static void initBuffers();
  28:src/../h/kernel.hpp ****     static Buffer *buffIN;
  29:src/../h/kernel.hpp ****     static Buffer *buffOUT;
  30:src/../h/kernel.hpp **** public:
  31:src/../h/kernel.hpp ****     static inline uint64 r_scause() {
  32:src/../h/kernel.hpp ****         uint64 volatile x;
  33:src/../h/kernel.hpp ****         __asm__ volatile("csrr %0, scause" : "=r"(x));
  34:src/../h/kernel.hpp ****         return x;
  35:src/../h/kernel.hpp ****     }
  36:src/../h/kernel.hpp **** 
  37:src/../h/kernel.hpp ****     static inline uint64 r_a0() {
  38:src/../h/kernel.hpp ****         uint64 volatile x;
  39:src/../h/kernel.hpp ****         __asm__ volatile("mv %0, a0" : "=r"(x));
  40:src/../h/kernel.hpp ****         return x;
  41:src/../h/kernel.hpp ****     }
  42:src/../h/kernel.hpp **** 
  43:src/../h/kernel.hpp ****     static inline void w_a0(uint64 x) {
  44:src/../h/kernel.hpp ****         __asm__ volatile("mv a0, %0" : : "r"(x));
  45:src/../h/kernel.hpp ****     }
  46:src/../h/kernel.hpp **** 
  47:src/../h/kernel.hpp ****     static inline void w_scause(uint64 x) {
  48:src/../h/kernel.hpp ****         __asm__ volatile("csrw scause, %0" : : "r"(x));
  49:src/../h/kernel.hpp ****     }
  50:src/../h/kernel.hpp **** 
  51:src/../h/kernel.hpp ****     static inline uint64 r_sepc() {
  52:src/../h/kernel.hpp ****         uint64 volatile x;
  53:src/../h/kernel.hpp ****         __asm__ volatile("csrr %0, sepc" : "=r"(x));
  54:src/../h/kernel.hpp ****         return x;
  55:src/../h/kernel.hpp ****     }
  56:src/../h/kernel.hpp **** 
  57:src/../h/kernel.hpp ****     static inline void w_sepc(uint64 x) {
  58:src/../h/kernel.hpp ****         __asm__ volatile("csrw sepc, %0" : : "r"(x));
  59:src/../h/kernel.hpp ****     }
  60:src/../h/kernel.hpp **** 
  61:src/../h/kernel.hpp ****     static inline uint64 r_sstatus() {
  62:src/../h/kernel.hpp ****         uint64 volatile x;
  63:src/../h/kernel.hpp ****         __asm__ volatile("csrr %0, sstatus" : "=r"(x));
  64:src/../h/kernel.hpp ****         return x;
  65:src/../h/kernel.hpp ****     }
  66:src/../h/kernel.hpp **** 
  67:src/../h/kernel.hpp ****     static inline void w_sstatus(uint64 x) {
  68:src/../h/kernel.hpp ****         __asm__ volatile("csrw sstatus, %0" : : "r"(x));
  69:src/../h/kernel.hpp ****     }
  70:src/../h/kernel.hpp **** 
  71:src/../h/kernel.hpp ****     static inline void ms_sstatus(uint64 mask) {
  72:src/../h/kernel.hpp ****         __asm__ volatile("csrs sstatus, %0" : : "r"(mask));
GAS LISTING /tmp/ccq5PjM8.s 			page 3


  30              		.loc 2 72 9
  31              		.loc 2 72 59 is_stmt 0
  32 0018 93072000 		li	a5,2
  33              	#APP
  34              	# 72 "src/../h/kernel.hpp" 1
  73              	    }
  35              		csrs sstatus, a5
  36              	# 0 "" 2
  37              	.LVL1:
  38              	#NO_APP
  39              	.LBE13:
  40              	.LBE12:
  14:src/main.cpp  **** 
  15:src/main.cpp  ****     TCB *threads[5];
  41              		.loc 1 15 5 is_stmt 1
  16:src/main.cpp  **** 
  17:src/main.cpp  ****     threads[0] = TCB::createThread(nullptr,nullptr);
  42              		.loc 1 17 5
  43              		.loc 1 17 35 is_stmt 0
  44 0020 93050000 		li	a1,0
  45 0024 13050000 		li	a0,0
  46 0028 97000000 		call	_ZN3TCB12createThreadEPFvPvES0_@plt
  46      E7800000 
  47              	.LVL2:
  48              		.loc 1 17 16
  49 0030 2334A4FC 		sd	a0,-56(s0)
  18:src/main.cpp  ****     TCB::running = threads[0];
  50              		.loc 1 18 5 is_stmt 1
  51              		.loc 1 18 18 is_stmt 0
  52 0034 97070000 		la	a5,_ZN3TCB7runningE
  52      83B70700 
  53 003c 23B0A700 		sd	a0,0(a5)
  19:src/main.cpp  **** 
  20:src/main.cpp  ****     thread_create(&threads[1], reinterpret_cast<void (*)(void *)>(userMain), nullptr);
  54              		.loc 1 20 5 is_stmt 1
  55              		.loc 1 20 18 is_stmt 0
  56 0040 13060000 		li	a2,0
  57 0044 97050000 		la	a1,_Z8userMainv
  57      83B50500 
  58 004c 130504FD 		addi	a0,s0,-48
  59 0050 97000000 		call	_Z13thread_createPP3TCBPFvPvES2_@plt
  59      E7800000 
  60              	.LVL3:
  61 0058 6F00C000 		j	.L4
  62              	.L2:
  21:src/main.cpp  **** 
  22:src/main.cpp  ****     while(!threads[1]->isFinished() || Kernel::outputPending()) {
  23:src/main.cpp  ****         thread_dispatch();
  63              		.loc 1 23 9 is_stmt 1 discriminator 3
  64              		.loc 1 23 24 is_stmt 0 discriminator 3
  65 005c 97000000 		call	_Z15thread_dispatchv@plt
  65      E7800000 
  66              	.LVL4:
  67              	.L4:
  22:src/main.cpp  ****         thread_dispatch();
  68              		.loc 1 22 5 is_stmt 1
  22:src/main.cpp  ****         thread_dispatch();
GAS LISTING /tmp/ccq5PjM8.s 			page 4


  69              		.loc 1 22 37
  22:src/main.cpp  ****         thread_dispatch();
  70              		.loc 1 22 21 is_stmt 0
  71 0064 833704FD 		ld	a5,-48(s0)
  72              	.LVL5:
  73              	.LBB14:
  74              	.LBB15:
  75              		.file 3 "src/../h/tcb.hpp"
   1:src/../h/tcb.hpp **** #ifndef OS1_VEZBE07_RISCV_CONTEXT_SWITCH_2_INTERRUPT_TCB_HPP
   2:src/../h/tcb.hpp **** #define OS1_VEZBE07_RISCV_CONTEXT_SWITCH_2_INTERRUPT_TCB_HPP
   3:src/../h/tcb.hpp **** 
   4:src/../h/tcb.hpp **** #include "../lib/hw.h"
   5:src/../h/tcb.hpp **** #include "scheduler.hpp"
   6:src/../h/tcb.hpp **** 
   7:src/../h/tcb.hpp **** // Thread Control Block
   8:src/../h/tcb.hpp **** class TCB
   9:src/../h/tcb.hpp **** {
  10:src/../h/tcb.hpp **** public:
  11:src/../h/tcb.hpp ****     ~TCB() { delete[] stack; }
  12:src/../h/tcb.hpp **** 
  13:src/../h/tcb.hpp ****     bool isFinished() const { return finished; }
  76              		.loc 3 13 31 is_stmt 1
  77              		.loc 3 13 38 is_stmt 0
  78 0068 83C70702 		lbu	a5,32(a5)
  79              	.LVL6:
  80              	.LBE15:
  81              	.LBE14:
  22:src/main.cpp  ****         thread_dispatch();
  82              		.loc 1 22 37
  83 006c E38807FE 		beqz	a5,.L2
  84              	.LBB16:
  85              	.LBB17:
  22:src/../h/kernel.hpp **** 
  86              		.loc 2 22 35 is_stmt 1
  22:src/../h/kernel.hpp **** 
  87              		.loc 2 22 57 is_stmt 0
  88 0070 97070000 		la	a5,_ZN6Kernel7buffOUTE
  88      83B70700 
  89 0078 83B70700 		ld	a5,0(a5)
  90              	.LVL7:
  91              	.LBB18:
  92              	.LBB19:
  93              		.file 4 "src/../h/buffer.hpp"
   1:src/../h/buffer.hpp **** //
   2:src/../h/buffer.hpp **** // Created by os on 6/7/24.
   3:src/../h/buffer.hpp **** //
   4:src/../h/buffer.hpp **** 
   5:src/../h/buffer.hpp **** #ifndef BUFFER
   6:src/../h/buffer.hpp **** #define BUFFER
   7:src/../h/buffer.hpp **** 
   8:src/../h/buffer.hpp **** #include "semaphore.hpp"
   9:src/../h/buffer.hpp **** 
  10:src/../h/buffer.hpp **** 
  11:src/../h/buffer.hpp **** class Buffer
  12:src/../h/buffer.hpp **** {
  13:src/../h/buffer.hpp **** public:
  14:src/../h/buffer.hpp ****         void put(char item);
GAS LISTING /tmp/ccq5PjM8.s 			page 5


  15:src/../h/buffer.hpp ****         char get();
  16:src/../h/buffer.hpp ****         Buffer(int cap);
  17:src/../h/buffer.hpp ****         ~Buffer();
  18:src/../h/buffer.hpp ****         void* operator new(size_t size)
  19:src/../h/buffer.hpp ****         {
  20:src/../h/buffer.hpp ****             return MemoryAllocator::instance().kmem_alloc(size);
  21:src/../h/buffer.hpp ****         }
  22:src/../h/buffer.hpp ****         void operator delete(void* ptr)
  23:src/../h/buffer.hpp ****         {
  24:src/../h/buffer.hpp ****             MemoryAllocator::instance().kmem_free(ptr);
  25:src/../h/buffer.hpp ****             return;
  26:src/../h/buffer.hpp ****         }
  27:src/../h/buffer.hpp ****         bool full() { return cnt==cap;}
  28:src/../h/buffer.hpp ****         bool empty() { return cnt==0;}
  94              		.loc 4 28 24 is_stmt 1
  95              		.loc 4 28 31 is_stmt 0
  96 007c 83A78702 		lw	a5,40(a5)
  97              	.LVL8:
  98              	.LBE19:
  99              	.LBE18:
 100              	.LBE17:
 101              	.LBE16:
  22:src/main.cpp  ****         thread_dispatch();
 102              		.loc 1 22 37
 103 0080 E39E07FC 		bnez	a5,.L2
  24:src/main.cpp  ****     }
  25:src/main.cpp  **** 
  26:src/main.cpp  ****     return;
  27:src/main.cpp  **** }...
 104              		.loc 1 27 1
 105 0084 83308103 		ld	ra,56(sp)
 106              		.cfi_restore 1
 107 0088 03340103 		ld	s0,48(sp)
 108              		.cfi_restore 8
 109              		.cfi_def_cfa 2, 64
 110 008c 13010104 		addi	sp,sp,64
 111              		.cfi_def_cfa_offset 0
 112 0090 67800000 		jr	ra
 113              		.cfi_endproc
 114              	.LFE64:
 116              	.Letext0:
 117              		.file 5 "src/../lib/hw.h"
 118              		.file 6 "src/../h/list.hpp"
 119              		.file 7 "src/../h/semaphore.hpp"
 120              		.file 8 "src/../h/syscall_c.hpp"
GAS LISTING /tmp/ccq5PjM8.s 			page 6

