GAS LISTING /tmp/ccmanPLJ.s 			page 1


   1              		.file	"main.cpp"
   2              		.option pic
   3              		.option norelax
   4              		.text
   5              	.Ltext0:
   6              		.section	.rodata._ZN6Kernel9print_intEiii.str1.8,"aMS",@progbits,1
   7              		.align	3
   8              	.LC0:
   9 0000 30313233 		.string	"0123456789ABCDEF"
   9      34353637 
   9      38394142 
   9      43444546 
   9      00
  10              		.section	.text._ZN6Kernel9print_intEiii,"axG",@progbits,_ZN6Kernel9print_intEiii,comdat
  11              		.align	2
  12              		.weak	_ZN6Kernel9print_intEiii
  14              	_ZN6Kernel9print_intEiii:
  15              	.LFB0:
  16              		.file 1 "src/../h/kernel.hpp"
   1:src/../h/kernel.hpp **** #ifndef KERNEL_HPP
   2:src/../h/kernel.hpp **** #define KERNEL_HPP
   3:src/../h/kernel.hpp **** 
   4:src/../h/kernel.hpp **** #include "../lib/hw.h"
   5:src/../h/kernel.hpp **** #include "../lib/console.h"
   6:src/../h/kernel.hpp **** class Kernel {
   7:src/../h/kernel.hpp **** public:
   8:src/../h/kernel.hpp ****     // entry point init
   9:src/../h/kernel.hpp ****     static void init();
  10:src/../h/kernel.hpp **** 
  11:src/../h/kernel.hpp ****     inline static void print_int(int xx, int base, int sgn)
  17              		.loc 1 11 24
  18              		.cfi_startproc
  19              	.LVL0:
  20 0000 130101FB 		addi	sp,sp,-80
  21              		.cfi_def_cfa_offset 80
  22 0004 23341104 		sd	ra,72(sp)
  23 0008 23308104 		sd	s0,64(sp)
  24 000c 233C9102 		sd	s1,56(sp)
  25              		.cfi_offset 1, -8
  26              		.cfi_offset 8, -16
  27              		.cfi_offset 9, -24
  28 0010 13040105 		addi	s0,sp,80
  29              		.cfi_def_cfa 8, 0
  12:src/../h/kernel.hpp ****     {
  13:src/../h/kernel.hpp ****         char my_digits[] = "0123456789ABCDEF";
  30              		.loc 1 13 9
  31              		.loc 1 13 14 is_stmt 0
  32 0014 97070000 		lla	a5,.LC0
  32      93870700 
  33 001c 03B70700 		ld	a4,0(a5)
  34 0020 2334E4FC 		sd	a4,-56(s0)
  35 0024 03B78700 		ld	a4,8(a5)
  36 0028 2338E4FC 		sd	a4,-48(s0)
  37 002c 83C70701 		lbu	a5,16(a5)
  38 0030 230CF4FC 		sb	a5,-40(s0)
  14:src/../h/kernel.hpp ****         char buf[16];
  39              		.loc 1 14 9 is_stmt 1
GAS LISTING /tmp/ccmanPLJ.s 			page 2


  15:src/../h/kernel.hpp ****         int i, neg;
  40              		.loc 1 15 9
  16:src/../h/kernel.hpp ****         uint x;
  41              		.loc 1 16 9
  17:src/../h/kernel.hpp **** 
  18:src/../h/kernel.hpp ****         neg = 0;
  42              		.loc 1 18 9
  43              	.LVL1:
  19:src/../h/kernel.hpp ****         if(sgn && xx < 0){
  44              		.loc 1 19 9
  45 0034 63040600 		beqz	a2,.L2
  46              		.loc 1 19 16 is_stmt 0 discriminator 1
  47 0038 63420508 		bltz	a0,.L9
  48              	.L2:
  20:src/../h/kernel.hpp ****             neg = 1;
  21:src/../h/kernel.hpp ****             x = -xx;
  22:src/../h/kernel.hpp ****         } else {
  23:src/../h/kernel.hpp ****             x = xx;
  49              		.loc 1 23 13 is_stmt 1
  50              		.loc 1 23 15 is_stmt 0
  51 003c 1B050500 		sext.w	a0,a0
  52              	.LVL2:
  18:src/../h/kernel.hpp ****         if(sgn && xx < 0){
  53              		.loc 1 18 13
  54 0040 13080000 		li	a6,0
  55              	.LVL3:
  56              	.L3:
  24:src/../h/kernel.hpp ****         }
  25:src/../h/kernel.hpp **** 
  26:src/../h/kernel.hpp ****         i = 0;
  57              		.loc 1 26 9 is_stmt 1
  58              		.loc 1 26 11 is_stmt 0
  59 0044 93040000 		li	s1,0
  60              	.LVL4:
  61              	.L4:
  27:src/../h/kernel.hpp ****         do{
  62              		.loc 1 27 9 is_stmt 1
  28:src/../h/kernel.hpp ****             buf[i++] = my_digits[x % base];
  63              		.loc 1 28 13
  64              		.loc 1 28 38 is_stmt 0
  65 0048 1B870500 		sext.w	a4,a1
  66              		.loc 1 28 36
  67 004c BB77B502 		remuw	a5,a0,a1
  68 0050 93860400 		mv	a3,s1
  69              		.loc 1 28 18
  70 0054 9B841400 		addiw	s1,s1,1
  71              	.LVL5:
  72              		.loc 1 28 42
  73 0058 93970702 		slli	a5,a5,32
  74 005c 93D70702 		srli	a5,a5,32
  75 0060 130604FE 		addi	a2,s0,-32
  76 0064 B307F600 		add	a5,a2,a5
  77 0068 03C687FE 		lbu	a2,-24(a5)
  78              		.loc 1 28 22
  79 006c 930704FE 		addi	a5,s0,-32
  80 0070 B387D700 		add	a5,a5,a3
  81 0074 238CC7FC 		sb	a2,-40(a5)
GAS LISTING /tmp/ccmanPLJ.s 			page 3


  29:src/../h/kernel.hpp ****         }while((x /= base) != 0);
  82              		.loc 1 29 28 is_stmt 1
  83 0078 1B060500 		sext.w	a2,a0
  84              		.loc 1 29 19 is_stmt 0
  85 007c 3B55B502 		divuw	a0,a0,a1
  86              	.LVL6:
  87              		.loc 1 29 28
  88 0080 E374E6FC 		bleu	a4,a2,.L4
  30:src/../h/kernel.hpp ****         if(neg)
  89              		.loc 1 30 9 is_stmt 1
  90 0084 630C0800 		beqz	a6,.L7
  31:src/../h/kernel.hpp ****             buf[i++] = '-';
  91              		.loc 1 31 13
  92              	.LVL7:
  93              		.loc 1 31 22 is_stmt 0
  94 0088 930704FE 		addi	a5,s0,-32
  95 008c B3849700 		add	s1,a5,s1
  96 0090 9307D002 		li	a5,45
  97 0094 238CF4FC 		sb	a5,-40(s1)
  98              		.loc 1 31 18
  99 0098 9B842600 		addiw	s1,a3,2
 100              	.LVL8:
 101              	.L7:
  32:src/../h/kernel.hpp **** 
  33:src/../h/kernel.hpp ****         while(--i >= 0)
 102              		.loc 1 33 9 is_stmt 1
 103              		.loc 1 33 19
 104 009c 9B84F4FF 		addiw	s1,s1,-1
 105              	.LVL9:
 106 00a0 63C40402 		bltz	s1,.L1
  34:src/../h/kernel.hpp ****             __putc(buf[i]);
 107              		.loc 1 34 13
 108              		.loc 1 34 19 is_stmt 0
 109 00a4 930704FE 		addi	a5,s0,-32
 110 00a8 B3879700 		add	a5,a5,s1
 111 00ac 03C587FD 		lbu	a0,-40(a5)
 112 00b0 97000000 		call	__putc@plt
 112      E7800000 
 113              	.LVL10:
 114 00b8 6FF05FFE 		j	.L7
 115              	.LVL11:
 116              	.L9:
  20:src/../h/kernel.hpp ****             x = -xx;
 117              		.loc 1 20 13 is_stmt 1
  21:src/../h/kernel.hpp ****         } else {
 118              		.loc 1 21 13
  21:src/../h/kernel.hpp ****         } else {
 119              		.loc 1 21 15 is_stmt 0
 120 00bc 3B05A040 		negw	a0,a0
 121              	.LVL12:
  20:src/../h/kernel.hpp ****             x = -xx;
 122              		.loc 1 20 17
 123 00c0 13081000 		li	a6,1
  21:src/../h/kernel.hpp ****         } else {
 124              		.loc 1 21 15
 125 00c4 6FF01FF8 		j	.L3
 126              	.LVL13:
GAS LISTING /tmp/ccmanPLJ.s 			page 4


 127              	.L1:
  35:src/../h/kernel.hpp **** 
  36:src/../h/kernel.hpp ****     }
 128              		.loc 1 36 5
 129 00c8 83308104 		ld	ra,72(sp)
 130              		.cfi_restore 1
 131 00cc 03340104 		ld	s0,64(sp)
 132              		.cfi_restore 8
 133              		.cfi_def_cfa 2, 80
 134 00d0 83348103 		ld	s1,56(sp)
 135              		.cfi_restore 9
 136 00d4 13010105 		addi	sp,sp,80
 137              		.cfi_def_cfa_offset 0
 138 00d8 67800000 		jr	ra
 139              		.cfi_endproc
 140              	.LFE0:
 142              		.text
 143              		.align	2
 144              		.globl	main
 146              	main:
 147              	.LFB18:
 148              		.file 2 "src/main.cpp"
   1:src/main.cpp  **** #include "../lib/console.h"
   2:src/main.cpp  **** #include "../lib/hw.h"
   3:src/main.cpp  **** #include "../h/syscall_c.hpp"
   4:src/main.cpp  **** #include "../h/kernel.hpp"
   5:src/main.cpp  **** #include "../h/memory_allocator.hpp"
   6:src/main.cpp  **** 
   7:src/main.cpp  **** 
   8:src/main.cpp  **** void main()
   9:src/main.cpp  **** {
 149              		.loc 2 9 1 is_stmt 1
 150              		.cfi_startproc
 151 0000 130101FF 		addi	sp,sp,-16
 152              		.cfi_def_cfa_offset 16
 153 0004 23341100 		sd	ra,8(sp)
 154 0008 23308100 		sd	s0,0(sp)
 155              		.cfi_offset 1, -8
 156              		.cfi_offset 8, -16
 157 000c 13040101 		addi	s0,sp,16
 158              		.cfi_def_cfa 8, 0
  10:src/main.cpp  ****     Kernel::init();
 159              		.loc 2 10 5
 160              		.loc 2 10 17 is_stmt 0
 161 0010 97000000 		call	_ZN6Kernel4initEv@plt
 161      E7800000 
 162              	.LVL14:
  11:src/main.cpp  ****     Kernel::print_int((long long)MEM_BLOCK_SIZE, 16, 0);
 163              		.loc 2 11 5 is_stmt 1
 164              		.loc 2 11 22 is_stmt 0
 165 0018 13060000 		li	a2,0
 166 001c 93050001 		li	a1,16
 167 0020 13050004 		li	a0,64
 168 0024 97000000 		call	_ZN6Kernel9print_intEiii
 168      E7800000 
 169              	.LVL15:
  12:src/main.cpp  ****     __putc('\n');
GAS LISTING /tmp/ccmanPLJ.s 			page 5


 170              		.loc 2 12 5 is_stmt 1
 171              		.loc 2 12 11 is_stmt 0
 172 002c 1305A000 		li	a0,10
 173 0030 97000000 		call	__putc@plt
 173      E7800000 
 174              	.LVL16:
  13:src/main.cpp  ****     Kernel::print_int((long long)HEAP_START_ADDR, 16, 0);
 175              		.loc 2 13 5 is_stmt 1
 176              		.loc 2 13 22 is_stmt 0
 177 0038 13060000 		li	a2,0
 178 003c 93050001 		li	a1,16
 179 0040 97070000 		la	a5,HEAP_START_ADDR
 179      83B70700 
 180 0048 03A50700 		lw	a0,0(a5)
 181 004c 97000000 		call	_ZN6Kernel9print_intEiii
 181      E7800000 
 182              	.LVL17:
  14:src/main.cpp  ****     __putc('\n');
 183              		.loc 2 14 5 is_stmt 1
 184              		.loc 2 14 11 is_stmt 0
 185 0054 1305A000 		li	a0,10
 186 0058 97000000 		call	__putc@plt
 186      E7800000 
 187              	.LVL18:
  15:src/main.cpp  ****     Kernel::print_int((long long)HEAP_END_ADDR, 16, 0);
 188              		.loc 2 15 5 is_stmt 1
 189              		.loc 2 15 22 is_stmt 0
 190 0060 13060000 		li	a2,0
 191 0064 93050001 		li	a1,16
 192 0068 97070000 		la	a5,HEAP_END_ADDR
 192      83B70700 
 193 0070 03A50700 		lw	a0,0(a5)
 194 0074 97000000 		call	_ZN6Kernel9print_intEiii
 194      E7800000 
 195              	.LVL19:
  16:src/main.cpp  ****     __putc('\n');
 196              		.loc 2 16 5 is_stmt 1
 197              		.loc 2 16 11 is_stmt 0
 198 007c 1305A000 		li	a0,10
 199 0080 97000000 		call	__putc@plt
 199      E7800000 
 200              	.LVL20:
  17:src/main.cpp  ****     __putc('\n');
 201              		.loc 2 17 5 is_stmt 1
 202              		.loc 2 17 11 is_stmt 0
 203 0088 1305A000 		li	a0,10
 204 008c 97000000 		call	__putc@plt
 204      E7800000 
 205              	.LVL21:
  18:src/main.cpp  **** 
  19:src/main.cpp  ****     return;
 206              		.loc 2 19 5 is_stmt 1
  20:src/main.cpp  **** }...
 207              		.loc 2 20 1 is_stmt 0
 208 0094 83308100 		ld	ra,8(sp)
 209              		.cfi_restore 1
 210 0098 03340100 		ld	s0,0(sp)
GAS LISTING /tmp/ccmanPLJ.s 			page 6


 211              		.cfi_restore 8
 212              		.cfi_def_cfa 2, 16
 213 009c 13010101 		addi	sp,sp,16
 214              		.cfi_def_cfa_offset 0
 215 00a0 67800000 		jr	ra
 216              		.cfi_endproc
 217              	.LFE18:
 219              	.Letext0:
 220              		.file 3 "src/../lib/hw.h"
 221              		.file 4 "src/../h/syscall_c.hpp"
 222              		.file 5 "src/../lib/console.h"
GAS LISTING /tmp/ccmanPLJ.s 			page 7


DEFINED SYMBOLS
                            *ABS*:0000000000000000 main.cpp
     /tmp/ccmanPLJ.s:14     .text._ZN6Kernel9print_intEiii:0000000000000000 _ZN6Kernel9print_intEiii
     /tmp/ccmanPLJ.s:18     .text._ZN6Kernel9print_intEiii:0000000000000000 .L0 
     /tmp/ccmanPLJ.s:20     .text._ZN6Kernel9print_intEiii:0000000000000000 .L0 
     /tmp/ccmanPLJ.s:21     .text._ZN6Kernel9print_intEiii:0000000000000004 .L0 
     /tmp/ccmanPLJ.s:25     .text._ZN6Kernel9print_intEiii:0000000000000010 .L0 
     /tmp/ccmanPLJ.s:26     .text._ZN6Kernel9print_intEiii:0000000000000010 .L0 
     /tmp/ccmanPLJ.s:27     .text._ZN6Kernel9print_intEiii:0000000000000010 .L0 
     /tmp/ccmanPLJ.s:29     .text._ZN6Kernel9print_intEiii:0000000000000014 .L0 
     /tmp/ccmanPLJ.s:31     .text._ZN6Kernel9print_intEiii:0000000000000014 .L0 
     /tmp/ccmanPLJ.s:32     .text._ZN6Kernel9print_intEiii:0000000000000014 .L0 
     /tmp/ccmanPLJ.s:40     .text._ZN6Kernel9print_intEiii:0000000000000034 .L0 
     /tmp/ccmanPLJ.s:41     .text._ZN6Kernel9print_intEiii:0000000000000034 .L0 
     /tmp/ccmanPLJ.s:42     .text._ZN6Kernel9print_intEiii:0000000000000034 .L0 
     /tmp/ccmanPLJ.s:44     .text._ZN6Kernel9print_intEiii:0000000000000034 .L0 
     /tmp/ccmanPLJ.s:45     .text._ZN6Kernel9print_intEiii:0000000000000034 .L0 
     /tmp/ccmanPLJ.s:47     .text._ZN6Kernel9print_intEiii:0000000000000038 .L0 
     /tmp/ccmanPLJ.s:50     .text._ZN6Kernel9print_intEiii:000000000000003c .L0 
     /tmp/ccmanPLJ.s:51     .text._ZN6Kernel9print_intEiii:000000000000003c .L0 
     /tmp/ccmanPLJ.s:54     .text._ZN6Kernel9print_intEiii:0000000000000040 .L0 
     /tmp/ccmanPLJ.s:58     .text._ZN6Kernel9print_intEiii:0000000000000044 .L0 
     /tmp/ccmanPLJ.s:59     .text._ZN6Kernel9print_intEiii:0000000000000044 .L0 
     /tmp/ccmanPLJ.s:63     .text._ZN6Kernel9print_intEiii:0000000000000048 .L0 
     /tmp/ccmanPLJ.s:64     .text._ZN6Kernel9print_intEiii:0000000000000048 .L0 
     /tmp/ccmanPLJ.s:65     .text._ZN6Kernel9print_intEiii:0000000000000048 .L0 
     /tmp/ccmanPLJ.s:67     .text._ZN6Kernel9print_intEiii:000000000000004c .L0 
     /tmp/ccmanPLJ.s:70     .text._ZN6Kernel9print_intEiii:0000000000000054 .L0 
     /tmp/ccmanPLJ.s:73     .text._ZN6Kernel9print_intEiii:0000000000000058 .L0 
     /tmp/ccmanPLJ.s:79     .text._ZN6Kernel9print_intEiii:000000000000006c .L0 
     /tmp/ccmanPLJ.s:83     .text._ZN6Kernel9print_intEiii:0000000000000078 .L0 
     /tmp/ccmanPLJ.s:85     .text._ZN6Kernel9print_intEiii:000000000000007c .L0 
     /tmp/ccmanPLJ.s:88     .text._ZN6Kernel9print_intEiii:0000000000000080 .L0 
     /tmp/ccmanPLJ.s:90     .text._ZN6Kernel9print_intEiii:0000000000000084 .L0 
     /tmp/ccmanPLJ.s:93     .text._ZN6Kernel9print_intEiii:0000000000000088 .L0 
     /tmp/ccmanPLJ.s:94     .text._ZN6Kernel9print_intEiii:0000000000000088 .L0 
     /tmp/ccmanPLJ.s:99     .text._ZN6Kernel9print_intEiii:0000000000000098 .L0 
     /tmp/ccmanPLJ.s:103    .text._ZN6Kernel9print_intEiii:000000000000009c .L0 
     /tmp/ccmanPLJ.s:104    .text._ZN6Kernel9print_intEiii:000000000000009c .L0 
     /tmp/ccmanPLJ.s:108    .text._ZN6Kernel9print_intEiii:00000000000000a4 .L0 
     /tmp/ccmanPLJ.s:109    .text._ZN6Kernel9print_intEiii:00000000000000a4 .L0 
     /tmp/ccmanPLJ.s:118    .text._ZN6Kernel9print_intEiii:00000000000000bc .L0 
     /tmp/ccmanPLJ.s:119    .text._ZN6Kernel9print_intEiii:00000000000000bc .L0 
     /tmp/ccmanPLJ.s:120    .text._ZN6Kernel9print_intEiii:00000000000000bc .L0 
     /tmp/ccmanPLJ.s:123    .text._ZN6Kernel9print_intEiii:00000000000000c0 .L0 
     /tmp/ccmanPLJ.s:125    .text._ZN6Kernel9print_intEiii:00000000000000c4 .L0 
     /tmp/ccmanPLJ.s:129    .text._ZN6Kernel9print_intEiii:00000000000000c8 .L0 
     /tmp/ccmanPLJ.s:130    .text._ZN6Kernel9print_intEiii:00000000000000cc .L0 
     /tmp/ccmanPLJ.s:132    .text._ZN6Kernel9print_intEiii:00000000000000d0 .L0 
     /tmp/ccmanPLJ.s:133    .text._ZN6Kernel9print_intEiii:00000000000000d0 .L0 
     /tmp/ccmanPLJ.s:135    .text._ZN6Kernel9print_intEiii:00000000000000d4 .L0 
     /tmp/ccmanPLJ.s:137    .text._ZN6Kernel9print_intEiii:00000000000000d8 .L0 
     /tmp/ccmanPLJ.s:139    .text._ZN6Kernel9print_intEiii:00000000000000dc .L0 
     /tmp/ccmanPLJ.s:146    .text:0000000000000000 main
     /tmp/ccmanPLJ.s:150    .text:0000000000000000 .L0 
     /tmp/ccmanPLJ.s:151    .text:0000000000000000 .L0 
     /tmp/ccmanPLJ.s:152    .text:0000000000000004 .L0 
GAS LISTING /tmp/ccmanPLJ.s 			page 8


     /tmp/ccmanPLJ.s:155    .text:000000000000000c .L0 
     /tmp/ccmanPLJ.s:156    .text:000000000000000c .L0 
     /tmp/ccmanPLJ.s:158    .text:0000000000000010 .L0 
     /tmp/ccmanPLJ.s:160    .text:0000000000000010 .L0 
     /tmp/ccmanPLJ.s:161    .text:0000000000000010 .L0 
     /tmp/ccmanPLJ.s:164    .text:0000000000000018 .L0 
     /tmp/ccmanPLJ.s:165    .text:0000000000000018 .L0 
     /tmp/ccmanPLJ.s:171    .text:000000000000002c .L0 
     /tmp/ccmanPLJ.s:172    .text:000000000000002c .L0 
     /tmp/ccmanPLJ.s:176    .text:0000000000000038 .L0 
     /tmp/ccmanPLJ.s:177    .text:0000000000000038 .L0 
     /tmp/ccmanPLJ.s:184    .text:0000000000000054 .L0 
     /tmp/ccmanPLJ.s:185    .text:0000000000000054 .L0 
     /tmp/ccmanPLJ.s:189    .text:0000000000000060 .L0 
     /tmp/ccmanPLJ.s:190    .text:0000000000000060 .L0 
     /tmp/ccmanPLJ.s:197    .text:000000000000007c .L0 
     /tmp/ccmanPLJ.s:198    .text:000000000000007c .L0 
     /tmp/ccmanPLJ.s:202    .text:0000000000000088 .L0 
     /tmp/ccmanPLJ.s:203    .text:0000000000000088 .L0 
     /tmp/ccmanPLJ.s:207    .text:0000000000000094 .L0 
     /tmp/ccmanPLJ.s:208    .text:0000000000000094 .L0 
     /tmp/ccmanPLJ.s:209    .text:0000000000000098 .L0 
     /tmp/ccmanPLJ.s:211    .text:000000000000009c .L0 
     /tmp/ccmanPLJ.s:212    .text:000000000000009c .L0 
     /tmp/ccmanPLJ.s:214    .text:00000000000000a0 .L0 
     /tmp/ccmanPLJ.s:216    .text:00000000000000a4 .L0 
     /tmp/ccmanPLJ.s:142    .text._ZN6Kernel9print_intEiii:00000000000000dc .L0 
     /tmp/ccmanPLJ.s:223    .text:00000000000000a4 .L0 
     /tmp/ccmanPLJ.s:179    .text:0000000000000040 .L0 
     /tmp/ccmanPLJ.s:192    .text:0000000000000068 .L0 
     /tmp/ccmanPLJ.s:8      .rodata._ZN6Kernel9print_intEiii.str1.8:0000000000000000 .LC0
     /tmp/ccmanPLJ.s:32     .text._ZN6Kernel9print_intEiii:0000000000000014 .L0 
     /tmp/ccmanPLJ.s:48     .text._ZN6Kernel9print_intEiii:000000000000003c .L2
     /tmp/ccmanPLJ.s:116    .text._ZN6Kernel9print_intEiii:00000000000000bc .L9
     /tmp/ccmanPLJ.s:61     .text._ZN6Kernel9print_intEiii:0000000000000048 .L4
     /tmp/ccmanPLJ.s:101    .text._ZN6Kernel9print_intEiii:000000000000009c .L7
     /tmp/ccmanPLJ.s:127    .text._ZN6Kernel9print_intEiii:00000000000000c8 .L1
     /tmp/ccmanPLJ.s:56     .text._ZN6Kernel9print_intEiii:0000000000000044 .L3
     /tmp/ccmanPLJ.s:778    .debug_abbrev:0000000000000000 .Ldebug_abbrev0
     /tmp/ccmanPLJ.s:1557   .debug_str:00000000000003bc .LASF64
     /tmp/ccmanPLJ.s:1499   .debug_str:0000000000000207 .LASF65
     /tmp/ccmanPLJ.s:1495   .debug_str:00000000000001ba .LASF66
     /tmp/ccmanPLJ.s:1421   .debug_ranges:0000000000000000 .Ldebug_ranges0
     /tmp/ccmanPLJ.s:1429   .debug_line:0000000000000000 .Ldebug_line0
     /tmp/ccmanPLJ.s:1517   .debug_str:00000000000002b7 .LASF0
     /tmp/ccmanPLJ.s:1457   .debug_str:00000000000000b0 .LASF3
     /tmp/ccmanPLJ.s:1519   .debug_str:00000000000002c4 .LASF1
     /tmp/ccmanPLJ.s:1507   .debug_str:0000000000000266 .LASF2
     /tmp/ccmanPLJ.s:1489   .debug_str:0000000000000195 .LASF4
     /tmp/ccmanPLJ.s:1543   .debug_str:0000000000000370 .LASF5
     /tmp/ccmanPLJ.s:1447   .debug_str:0000000000000075 .LASF6
     /tmp/ccmanPLJ.s:1521   .debug_str:00000000000002d7 .LASF7
     /tmp/ccmanPLJ.s:1515   .debug_str:00000000000002a4 .LASF8
     /tmp/ccmanPLJ.s:1563   .debug_str:00000000000004a3 .LASF9
     /tmp/ccmanPLJ.s:1483   .debug_str:000000000000016a .LASF10
     /tmp/ccmanPLJ.s:1529   .debug_str:00000000000002f9 .LASF11
     /tmp/ccmanPLJ.s:1559   .debug_str:0000000000000480 .LASF12
GAS LISTING /tmp/ccmanPLJ.s 			page 9


     /tmp/ccmanPLJ.s:1449   .debug_str:000000000000007c .LASF13
     /tmp/ccmanPLJ.s:1435   .debug_str:0000000000000012 .LASF14
     /tmp/ccmanPLJ.s:1455   .debug_str:00000000000000a4 .LASF15
     /tmp/ccmanPLJ.s:1541   .debug_str:000000000000035a .LASF16
     /tmp/ccmanPLJ.s:1461   .debug_str:00000000000000cb .LASF17
     /tmp/ccmanPLJ.s:1451   .debug_str:000000000000008c .LASF18
     /tmp/ccmanPLJ.s:1555   .debug_str:00000000000003af .LASF19
     /tmp/ccmanPLJ.s:1565   .debug_str:00000000000004b3 .LASF67
     /tmp/ccmanPLJ.s:1525   .debug_str:00000000000002ef .LASF24
     /tmp/ccmanPLJ.s:1441   .debug_str:000000000000003f .LASF26
     /tmp/ccmanPLJ.s:1431   .debug_str:0000000000000000 .LASF68
     /tmp/ccmanPLJ.s:1569   .debug_str:00000000000004bf .LASF69
     /tmp/ccmanPLJ.s:1573   .debug_str:00000000000004e3 .LASF20
     /tmp/ccmanPLJ.s:1501   .debug_str:0000000000000214 .LASF22
     /tmp/ccmanPLJ.s:1549   .debug_str:0000000000000394 .LASF21
     /tmp/ccmanPLJ.s:1445   .debug_str:0000000000000058 .LASF23
     /tmp/ccmanPLJ.s:1437   .debug_str:0000000000000022 .LASF25
     /tmp/ccmanPLJ.s:1465   .debug_str:00000000000000f8 .LASF27
     /tmp/ccmanPLJ.s:1553   .debug_str:00000000000003aa .LASF28
     /tmp/ccmanPLJ.s:1511   .debug_str:000000000000027e .LASF29
     /tmp/ccmanPLJ.s:1469   .debug_str:0000000000000127 .LASF32
     /tmp/ccmanPLJ.s:1459   .debug_str:00000000000000b5 .LASF34
     /tmp/ccmanPLJ.s:1545   .debug_str:0000000000000382 .LASF30
     /tmp/ccmanPLJ.s:1513   .debug_str:0000000000000290 .LASF31
     /tmp/ccmanPLJ.s:1539   .debug_str:0000000000000353 .LASF33
     /tmp/ccmanPLJ.s:1439   .debug_str:000000000000002b .LASF35
     /tmp/ccmanPLJ.s:1453   .debug_str:000000000000009a .LASF36
     /tmp/ccmanPLJ.s:1463   .debug_str:00000000000000e1 .LASF37
     /tmp/ccmanPLJ.s:1509   .debug_str:0000000000000274 .LASF38
     /tmp/ccmanPLJ.s:1537   .debug_str:000000000000033c .LASF39
     /tmp/ccmanPLJ.s:1571   .debug_str:00000000000004d8 .LASF40
     /tmp/ccmanPLJ.s:1505   .debug_str:000000000000024d .LASF41
     /tmp/ccmanPLJ.s:1493   .debug_str:00000000000001af .LASF42
     /tmp/ccmanPLJ.s:1467   .debug_str:000000000000010e .LASF43
     /tmp/ccmanPLJ.s:1481   .debug_str:0000000000000164 .LASF44
     /tmp/ccmanPLJ.s:1491   .debug_str:000000000000019c .LASF45
     /tmp/ccmanPLJ.s:1533   .debug_str:0000000000000321 .LASF46
     /tmp/ccmanPLJ.s:1561   .debug_str:000000000000048f .LASF47
     /tmp/ccmanPLJ.s:1443   .debug_str:0000000000000051 .LASF48
     /tmp/ccmanPLJ.s:1535   .debug_str:0000000000000328 .LASF49
     /tmp/ccmanPLJ.s:1479   .debug_str:000000000000015c .LASF50
     /tmp/ccmanPLJ.s:1475   .debug_str:0000000000000142 .LASF51
     /tmp/ccmanPLJ.s:1433   .debug_str:000000000000000a .LASF52
     /tmp/ccmanPLJ.s:1497   .debug_str:00000000000001f2 .LASF53
     /tmp/ccmanPLJ.s:1473   .debug_str:000000000000013a .LASF54
     /tmp/ccmanPLJ.s:1503   .debug_str:0000000000000238 .LASF55
     /tmp/ccmanPLJ.s:1487   .debug_str:000000000000018d .LASF56
     /tmp/ccmanPLJ.s:1485   .debug_str:0000000000000178 .LASF57
     /tmp/ccmanPLJ.s:1547   .debug_str:0000000000000389 .LASF58
     /tmp/ccmanPLJ.s:1531   .debug_str:0000000000000308 .LASF59
     /tmp/ccmanPLJ.s:1477   .debug_str:0000000000000157 .LASF60
     /tmp/ccmanPLJ.s:1527   .debug_str:00000000000002f4 .LASF70
     /tmp/ccmanPLJ.s:147    .text:0000000000000000 .LFB18
     /tmp/ccmanPLJ.s:217    .text:00000000000000a4 .LFE18
     /tmp/ccmanPLJ.s:162    .text:0000000000000018 .LVL14
     /tmp/ccmanPLJ.s:169    .text:000000000000002c .LVL15
     /tmp/ccmanPLJ.s:174    .text:0000000000000038 .LVL16
GAS LISTING /tmp/ccmanPLJ.s 			page 10


     /tmp/ccmanPLJ.s:182    .text:0000000000000054 .LVL17
     /tmp/ccmanPLJ.s:187    .text:0000000000000060 .LVL18
     /tmp/ccmanPLJ.s:195    .text:000000000000007c .LVL19
     /tmp/ccmanPLJ.s:200    .text:0000000000000088 .LVL20
     /tmp/ccmanPLJ.s:205    .text:0000000000000094 .LVL21
     /tmp/ccmanPLJ.s:15     .text._ZN6Kernel9print_intEiii:0000000000000000 .LFB0
     /tmp/ccmanPLJ.s:140    .text._ZN6Kernel9print_intEiii:00000000000000dc .LFE0
     /tmp/ccmanPLJ.s:1262   .debug_loc:0000000000000000 .LLST0
     /tmp/ccmanPLJ.s:1567   .debug_str:00000000000004ba .LASF61
     /tmp/ccmanPLJ.s:1287   .debug_loc:0000000000000062 .LLST1
     /tmp/ccmanPLJ.s:1312   .debug_loc:00000000000000c4 .LLST2
     /tmp/ccmanPLJ.s:1471   .debug_str:0000000000000130 .LASF62
     /tmp/ccmanPLJ.s:1337   .debug_loc:0000000000000126 .LLST3
     /tmp/ccmanPLJ.s:1359   .debug_loc:0000000000000185 .LLST4
     /tmp/ccmanPLJ.s:1376   .debug_loc:00000000000001d0 .LLST5
     /tmp/ccmanPLJ.s:113    .text._ZN6Kernel9print_intEiii:00000000000000b8 .LVL10
     /tmp/ccmanPLJ.s:1523   .debug_str:00000000000002ea .LASF63
     /tmp/ccmanPLJ.s:1551   .debug_str:00000000000003a3 .LASF71
     /tmp/ccmanPLJ.s:19     .text._ZN6Kernel9print_intEiii:0000000000000000 .LVL0
     /tmp/ccmanPLJ.s:55     .text._ZN6Kernel9print_intEiii:0000000000000044 .LVL3
     /tmp/ccmanPLJ.s:115    .text._ZN6Kernel9print_intEiii:00000000000000bc .LVL11
     /tmp/ccmanPLJ.s:121    .text._ZN6Kernel9print_intEiii:00000000000000c0 .LVL12
     /tmp/ccmanPLJ.s:100    .text._ZN6Kernel9print_intEiii:000000000000009c .LVL8
     /tmp/ccmanPLJ.s:126    .text._ZN6Kernel9print_intEiii:00000000000000c8 .LVL13
     /tmp/ccmanPLJ.s:60     .text._ZN6Kernel9print_intEiii:0000000000000048 .LVL4
     /tmp/ccmanPLJ.s:71     .text._ZN6Kernel9print_intEiii:0000000000000058 .LVL5
     /tmp/ccmanPLJ.s:92     .text._ZN6Kernel9print_intEiii:0000000000000088 .LVL7
     /tmp/ccmanPLJ.s:105    .text._ZN6Kernel9print_intEiii:00000000000000a0 .LVL9
     /tmp/ccmanPLJ.s:43     .text._ZN6Kernel9print_intEiii:0000000000000034 .LVL1
     /tmp/ccmanPLJ.s:52     .text._ZN6Kernel9print_intEiii:0000000000000040 .LVL2
     /tmp/ccmanPLJ.s:86     .text._ZN6Kernel9print_intEiii:0000000000000080 .LVL6
     /tmp/ccmanPLJ.s:224    .debug_info:0000000000000000 .Ldebug_info0
     /tmp/ccmanPLJ.s:5      .text:0000000000000000 .Ltext0
     /tmp/ccmanPLJ.s:219    .text:00000000000000a4 .Letext0

UNDEFINED SYMBOLS
__putc
_ZN6Kernel4initEv
HEAP_START_ADDR
HEAP_END_ADDR
