GAS LISTING /tmp/cckDSt0P.s 			page 1


   1              		.file	"memoryAllocator.cpp"
   2              		.option pic
   3              		.option norelax
   4              		.text
   5              	.Ltext0:
   6              		.align	2
   7              		.globl	_ZN15MemoryAllocator8instanceEv
   9              	_ZN15MemoryAllocator8instanceEv:
  10              	.LFB0:
  11              		.file 1 "src/memoryAllocator.cpp"
   1:src/memoryAllocator.cpp **** #include "../h/memory_allocator.hpp"
   2:src/memoryAllocator.cpp **** 
   3:src/memoryAllocator.cpp **** MemoryAllocator& MemoryAllocator::instance() {
  12              		.loc 1 3 46
  13              		.cfi_startproc
  14 0000 130101FF 		addi	sp,sp,-16
  15              		.cfi_def_cfa_offset 16
  16 0004 23348100 		sd	s0,8(sp)
  17              		.cfi_offset 8, -8
  18 0008 13040101 		addi	s0,sp,16
  19              		.cfi_def_cfa 8, 0
   4:src/memoryAllocator.cpp ****     static MemoryAllocator inst;
  20              		.loc 1 4 5
   5:src/memoryAllocator.cpp ****     return inst;
  21              		.loc 1 5 5
   6:src/memoryAllocator.cpp **** }
  22              		.loc 1 6 1 is_stmt 0
  23 000c 17050000 		lla	a0,.LANCHOR0
  23      13050500 
  24 0014 03348100 		ld	s0,8(sp)
  25              		.cfi_restore 8
  26              		.cfi_def_cfa 2, 16
  27 0018 13010101 		addi	sp,sp,16
  28              		.cfi_def_cfa_offset 0
  29 001c 67800000 		jr	ra
  30              		.cfi_endproc
  31              	.LFE0:
  33              		.align	2
  34              		.globl	_ZN15MemoryAllocator9kmem_initEv
  36              	_ZN15MemoryAllocator9kmem_initEv:
  37              	.LFB4:
   7:src/memoryAllocator.cpp **** 
   8:src/memoryAllocator.cpp **** // Initializes heap memory as a one free chunk
   9:src/memoryAllocator.cpp **** void MemoryAllocator::kmem_init(){
  38              		.loc 1 9 34 is_stmt 1
  39              		.cfi_startproc
  40              	.LVL0:
  41 0020 130101FF 		addi	sp,sp,-16
  42              		.cfi_def_cfa_offset 16
  43 0024 23348100 		sd	s0,8(sp)
  44              		.cfi_offset 8, -8
  45 0028 13040101 		addi	s0,sp,16
  46              		.cfi_def_cfa 8, 0
  10:src/memoryAllocator.cpp ****     head = (ChunkHeader*) HEAP_START_ADDR;
  47              		.loc 1 10 5
  48              		.loc 1 10 10 is_stmt 0
  49 002c 97070000 		la	a5,HEAP_START_ADDR
GAS LISTING /tmp/cckDSt0P.s 			page 2


  49      83B70700 
  50 0034 03B70700 		ld	a4,0(a5)
  51 0038 2330E500 		sd	a4,0(a0)
  11:src/memoryAllocator.cpp ****     head->next = nullptr;
  52              		.loc 1 11 5 is_stmt 1
  53              		.loc 1 11 16 is_stmt 0
  54 003c 233C0700 		sd	zero,24(a4)
  12:src/memoryAllocator.cpp ****     head->prev = nullptr;
  55              		.loc 1 12 5 is_stmt 1
  56 0040 83370500 		ld	a5,0(a0)
  57              		.loc 1 12 16 is_stmt 0
  58 0044 23B80700 		sd	zero,16(a5)
  13:src/memoryAllocator.cpp ****     head->size =  ((size_t)HEAP_END_ADDR - (size_t)HEAP_START_ADDR - sizeof(ChunkHeader));
  59              		.loc 1 13 5 is_stmt 1
  60              		.loc 1 13 42 is_stmt 0
  61 0048 97070000 		la	a5,HEAP_END_ADDR
  61      83B70700 
  62 0050 83B70700 		ld	a5,0(a5)
  63 0054 B387E740 		sub	a5,a5,a4
  64              		.loc 1 13 5
  65 0058 03370500 		ld	a4,0(a0)
  66              		.loc 1 13 68
  67 005c 938787FD 		addi	a5,a5,-40
  68              		.loc 1 13 16
  69 0060 2334F700 		sd	a5,8(a4)
  14:src/memoryAllocator.cpp ****     head->free = true;
  70              		.loc 1 14 5 is_stmt 1
  71 0064 83370500 		ld	a5,0(a0)
  72              		.loc 1 14 16 is_stmt 0
  73 0068 13071000 		li	a4,1
  74 006c 2380E702 		sb	a4,32(a5)
  15:src/memoryAllocator.cpp ****     head->magic = MAGIC;
  75              		.loc 1 15 5 is_stmt 1
  76 0070 03370500 		ld	a4,0(a0)
  77              		.loc 1 15 17 is_stmt 0
  78 0074 B7F7CDAB 		li	a5,-1412567040
  79 0078 9B8717F0 		addiw	a5,a5,-255
  80 007c 2320F700 		sw	a5,0(a4)
  16:src/memoryAllocator.cpp ****     return;
  81              		.loc 1 16 5 is_stmt 1
  17:src/memoryAllocator.cpp **** } 
  82              		.loc 1 17 1 is_stmt 0
  83 0080 03348100 		ld	s0,8(sp)
  84              		.cfi_restore 8
  85              		.cfi_def_cfa 2, 16
  86 0084 13010101 		addi	sp,sp,16
  87              		.cfi_def_cfa_offset 0
  88 0088 67800000 		jr	ra
  89              		.cfi_endproc
  90              	.LFE4:
  92              		.align	2
  93              		.globl	_ZN15MemoryAllocator10kmem_allocEm
  95              	_ZN15MemoryAllocator10kmem_allocEm:
  96              	.LFB5:
  18:src/memoryAllocator.cpp **** 
  19:src/memoryAllocator.cpp **** /**
  20:src/memoryAllocator.cpp ****  * Allocates a chunk of memory from the heap.
GAS LISTING /tmp/cckDSt0P.s 			page 3


  21:src/memoryAllocator.cpp ****  * @param size Number of blocks requested
  22:src/memoryAllocator.cpp ****  * @return nullptr (no suitable free chunk exists),
  23:src/memoryAllocator.cpp ****  *        pointer (pointer to allocated memory)
  24:src/memoryAllocator.cpp ****  */
  25:src/memoryAllocator.cpp **** void* MemoryAllocator::kmem_alloc(size_t size) {
  97              		.loc 1 25 48 is_stmt 1
  98              		.cfi_startproc
  99              	.LVL1:
  26:src/memoryAllocator.cpp ****     if (size == 0) return nullptr;
 100              		.loc 1 26 5
 101 008c 6388050C 		beqz	a1,.L12
  25:src/memoryAllocator.cpp ****     if (size == 0) return nullptr;
 102              		.loc 1 25 48 is_stmt 0
 103 0090 130101FE 		addi	sp,sp,-32
 104              		.cfi_def_cfa_offset 32
 105 0094 233C1100 		sd	ra,24(sp)
 106 0098 23388100 		sd	s0,16(sp)
 107 009c 23349100 		sd	s1,8(sp)
 108 00a0 23302101 		sd	s2,0(sp)
 109              		.cfi_offset 1, -8
 110              		.cfi_offset 8, -16
 111              		.cfi_offset 9, -24
 112              		.cfi_offset 18, -32
 113 00a4 13040102 		addi	s0,sp,32
 114              		.cfi_def_cfa 8, 0
 115 00a8 13090500 		mv	s2,a0
  27:src/memoryAllocator.cpp **** 
  28:src/memoryAllocator.cpp ****     // alignment to full block
  29:src/memoryAllocator.cpp ****     size_t aligned = size * MEM_BLOCK_SIZE;
 116              		.loc 1 29 5 is_stmt 1
 117              		.loc 1 29 12 is_stmt 0
 118 00ac 93946500 		slli	s1,a1,6
 119              	.LVL2:
  30:src/memoryAllocator.cpp **** 
  31:src/memoryAllocator.cpp ****     if (!head) kmem_init();
 120              		.loc 1 31 5 is_stmt 1
 121              		.loc 1 31 10 is_stmt 0
 122 00b0 83370500 		ld	a5,0(a0)
 123              		.loc 1 31 5
 124 00b4 63860700 		beqz	a5,.L17
 125              	.LVL3:
 126              	.L7:
  32:src/memoryAllocator.cpp ****     
  33:src/memoryAllocator.cpp ****     ChunkHeader* curr = head;
 127              		.loc 1 33 5 is_stmt 1
 128              		.loc 1 33 18 is_stmt 0
 129 00b8 03350900 		ld	a0,0(s2)
 130              	.LVL4:
 131 00bc 6F004003 		j	.L11
 132              	.LVL5:
 133              	.L17:
  31:src/memoryAllocator.cpp ****     
 134              		.loc 1 31 16 is_stmt 1 discriminator 1
  31:src/memoryAllocator.cpp ****     
 135              		.loc 1 31 25 is_stmt 0 discriminator 1
 136 00c0 97000000 		call	_ZN15MemoryAllocator9kmem_initEv
 136      E7800000 
GAS LISTING /tmp/cckDSt0P.s 			page 4


 137              	.LVL6:
 138 00c8 6FF01FFF 		j	.L7
 139              	.LVL7:
 140              	.L18:
 141              	.LBB2:
 142              	.LBB3:
 143              	.LBB4:
  34:src/memoryAllocator.cpp **** 
  35:src/memoryAllocator.cpp ****     // first-fit algorithm
  36:src/memoryAllocator.cpp ****     while (curr) {
  37:src/memoryAllocator.cpp ****         if (curr->free){
  38:src/memoryAllocator.cpp ****             if (curr->size == aligned){
  39:src/memoryAllocator.cpp ****                 // Full take
  40:src/memoryAllocator.cpp ****                 curr->free = false;
 144              		.loc 1 40 17 is_stmt 1
 145              		.loc 1 40 28 is_stmt 0
 146 00cc 23000502 		sb	zero,32(a0)
  41:src/memoryAllocator.cpp **** 
  42:src/memoryAllocator.cpp ****                 return (void*)((char*)curr + sizeof(ChunkHeader));
 147              		.loc 1 42 17 is_stmt 1
 148              		.loc 1 42 65 is_stmt 0
 149 00d0 13058502 		addi	a0,a0,40
 150              	.LVL8:
 151              	.L5:
 152              	.LBE4:
 153              	.LBE3:
 154              	.LBE2:
  43:src/memoryAllocator.cpp ****             }
  44:src/memoryAllocator.cpp ****             else if (curr->size > aligned + sizeof(ChunkHeader)){
  45:src/memoryAllocator.cpp ****                 // Split free chunk in case its larger and large enaugh for making additional chunk
  46:src/memoryAllocator.cpp ****                 size_t remaining = curr->size - aligned;
  47:src/memoryAllocator.cpp **** 
  48:src/memoryAllocator.cpp ****                 ChunkHeader* newChunk = (ChunkHeader*)((char*)curr + sizeof(ChunkHeader) + aligned)
  49:src/memoryAllocator.cpp ****                 newChunk->free = true;
  50:src/memoryAllocator.cpp ****                 newChunk->size = remaining - sizeof(ChunkHeader);
  51:src/memoryAllocator.cpp ****                 newChunk->next = curr->next;
  52:src/memoryAllocator.cpp ****                 newChunk->prev = curr;
  53:src/memoryAllocator.cpp ****                 newChunk->magic = MAGIC;
  54:src/memoryAllocator.cpp ****                 if(curr->next) curr->next->prev = newChunk;
  55:src/memoryAllocator.cpp ****                 curr->next = newChunk;
  56:src/memoryAllocator.cpp ****                 curr->size = aligned;
  57:src/memoryAllocator.cpp ****                 curr->free = false;
  58:src/memoryAllocator.cpp **** 
  59:src/memoryAllocator.cpp ****                 return (void*)((char*)curr + sizeof(ChunkHeader));
  60:src/memoryAllocator.cpp ****             }
  61:src/memoryAllocator.cpp ****         }
  62:src/memoryAllocator.cpp **** 
  63:src/memoryAllocator.cpp ****         curr = curr->next;
  64:src/memoryAllocator.cpp ****     }
  65:src/memoryAllocator.cpp **** 
  66:src/memoryAllocator.cpp ****     return nullptr;
  67:src/memoryAllocator.cpp **** }
 155              		.loc 1 67 1
 156 00d4 83308101 		ld	ra,24(sp)
 157              		.cfi_remember_state
 158              		.cfi_restore 1
 159 00d8 03340101 		ld	s0,16(sp)
GAS LISTING /tmp/cckDSt0P.s 			page 5


 160              		.cfi_restore 8
 161              		.cfi_def_cfa 2, 32
 162 00dc 83348100 		ld	s1,8(sp)
 163              		.cfi_restore 9
 164              	.LVL9:
 165 00e0 03390100 		ld	s2,0(sp)
 166              		.cfi_restore 18
 167              	.LVL10:
 168 00e4 13010102 		addi	sp,sp,32
 169              		.cfi_def_cfa_offset 0
 170 00e8 67800000 		jr	ra
 171              	.LVL11:
 172              	.L8:
 173              		.cfi_restore_state
 174              	.LBB12:
  63:src/memoryAllocator.cpp ****     }
 175              		.loc 1 63 9 is_stmt 1
  63:src/memoryAllocator.cpp ****     }
 176              		.loc 1 63 14 is_stmt 0
 177 00ec 03358501 		ld	a0,24(a0)
 178              	.LVL12:
 179              	.L11:
 180              	.LBE12:
  36:src/memoryAllocator.cpp ****         if (curr->free){
 181              		.loc 1 36 5 is_stmt 1
  36:src/memoryAllocator.cpp ****         if (curr->free){
 182              		.loc 1 36 12
 183 00f0 E30205FE 		beqz	a0,.L5
 184              	.LBB13:
  37:src/memoryAllocator.cpp ****             if (curr->size == aligned){
 185              		.loc 1 37 9
 186              	.LBB9:
  37:src/memoryAllocator.cpp ****             if (curr->size == aligned){
 187              		.loc 1 37 19 is_stmt 0
 188 00f4 83470502 		lbu	a5,32(a0)
  37:src/memoryAllocator.cpp ****             if (curr->size == aligned){
 189              		.loc 1 37 9
 190 00f8 E38A07FE 		beqz	a5,.L8
 191              	.LBE9:
 192              	.LBE13:
  38:src/memoryAllocator.cpp ****                 // Full take
 193              		.loc 1 38 13 is_stmt 1
 194              	.LBB14:
 195              	.LBB10:
 196              	.LBB7:
  38:src/memoryAllocator.cpp ****                 // Full take
 197              		.loc 1 38 23 is_stmt 0
 198 00fc 83378500 		ld	a5,8(a0)
  38:src/memoryAllocator.cpp ****                 // Full take
 199              		.loc 1 38 13
 200 0100 E38697FC 		beq	a5,s1,.L18
 201              	.LBE7:
 202              	.LBE10:
 203              	.LBE14:
  44:src/memoryAllocator.cpp ****                 // Split free chunk in case its larger and large enaugh for making additional chunk
 204              		.loc 1 44 18 is_stmt 1
 205              	.LBB15:
GAS LISTING /tmp/cckDSt0P.s 			page 6


 206              	.LBB11:
 207              	.LBB8:
 208              	.LBB5:
  44:src/memoryAllocator.cpp ****                 // Split free chunk in case its larger and large enaugh for making additional chunk
 209              		.loc 1 44 43 is_stmt 0
 210 0104 13878402 		addi	a4,s1,40
  44:src/memoryAllocator.cpp ****                 // Split free chunk in case its larger and large enaugh for making additional chunk
 211              		.loc 1 44 18
 212 0108 E372F7FE 		bleu	a5,a4,.L8
 213              	.LBB6:
  46:src/memoryAllocator.cpp **** 
 214              		.loc 1 46 17 is_stmt 1
  46:src/memoryAllocator.cpp **** 
 215              		.loc 1 46 24 is_stmt 0
 216 010c B3879740 		sub	a5,a5,s1
 217              	.LVL13:
  48:src/memoryAllocator.cpp ****                 newChunk->free = true;
 218              		.loc 1 48 17 is_stmt 1
  48:src/memoryAllocator.cpp ****                 newChunk->free = true;
 219              		.loc 1 48 30 is_stmt 0
 220 0110 3307E500 		add	a4,a0,a4
 221              	.LVL14:
  49:src/memoryAllocator.cpp ****                 newChunk->size = remaining - sizeof(ChunkHeader);
 222              		.loc 1 49 17 is_stmt 1
  49:src/memoryAllocator.cpp ****                 newChunk->size = remaining - sizeof(ChunkHeader);
 223              		.loc 1 49 32 is_stmt 0
 224 0114 93061000 		li	a3,1
 225 0118 2300D702 		sb	a3,32(a4)
  50:src/memoryAllocator.cpp ****                 newChunk->next = curr->next;
 226              		.loc 1 50 17 is_stmt 1
  50:src/memoryAllocator.cpp ****                 newChunk->next = curr->next;
 227              		.loc 1 50 44 is_stmt 0
 228 011c 938787FD 		addi	a5,a5,-40
 229              	.LVL15:
  50:src/memoryAllocator.cpp ****                 newChunk->next = curr->next;
 230              		.loc 1 50 32
 231 0120 2334F700 		sd	a5,8(a4)
  51:src/memoryAllocator.cpp ****                 newChunk->prev = curr;
 232              		.loc 1 51 17 is_stmt 1
  51:src/memoryAllocator.cpp ****                 newChunk->prev = curr;
 233              		.loc 1 51 40 is_stmt 0
 234 0124 83378501 		ld	a5,24(a0)
 235              	.LVL16:
  51:src/memoryAllocator.cpp ****                 newChunk->prev = curr;
 236              		.loc 1 51 32
 237 0128 233CF700 		sd	a5,24(a4)
  52:src/memoryAllocator.cpp ****                 newChunk->magic = MAGIC;
 238              		.loc 1 52 17 is_stmt 1
  52:src/memoryAllocator.cpp ****                 newChunk->magic = MAGIC;
 239              		.loc 1 52 32 is_stmt 0
 240 012c 2338A700 		sd	a0,16(a4)
  53:src/memoryAllocator.cpp ****                 if(curr->next) curr->next->prev = newChunk;
 241              		.loc 1 53 17 is_stmt 1
  53:src/memoryAllocator.cpp ****                 if(curr->next) curr->next->prev = newChunk;
 242              		.loc 1 53 33 is_stmt 0
 243 0130 B7F7CDAB 		li	a5,-1412567040
 244 0134 9B8717F0 		addiw	a5,a5,-255
GAS LISTING /tmp/cckDSt0P.s 			page 7


 245 0138 2320F700 		sw	a5,0(a4)
  54:src/memoryAllocator.cpp ****                 curr->next = newChunk;
 246              		.loc 1 54 17 is_stmt 1
  54:src/memoryAllocator.cpp ****                 curr->next = newChunk;
 247              		.loc 1 54 26 is_stmt 0
 248 013c 83378501 		ld	a5,24(a0)
  54:src/memoryAllocator.cpp ****                 curr->next = newChunk;
 249              		.loc 1 54 17
 250 0140 63840700 		beqz	a5,.L10
  54:src/memoryAllocator.cpp ****                 curr->next = newChunk;
 251              		.loc 1 54 32 is_stmt 1 discriminator 1
  54:src/memoryAllocator.cpp ****                 curr->next = newChunk;
 252              		.loc 1 54 49 is_stmt 0 discriminator 1
 253 0144 23B8E700 		sd	a4,16(a5)
 254              	.LVL17:
 255              	.L10:
  55:src/memoryAllocator.cpp ****                 curr->size = aligned;
 256              		.loc 1 55 17 is_stmt 1
  55:src/memoryAllocator.cpp ****                 curr->size = aligned;
 257              		.loc 1 55 28 is_stmt 0
 258 0148 233CE500 		sd	a4,24(a0)
  56:src/memoryAllocator.cpp ****                 curr->free = false;
 259              		.loc 1 56 17 is_stmt 1
  56:src/memoryAllocator.cpp ****                 curr->free = false;
 260              		.loc 1 56 28 is_stmt 0
 261 014c 23349500 		sd	s1,8(a0)
  57:src/memoryAllocator.cpp **** 
 262              		.loc 1 57 17 is_stmt 1
  57:src/memoryAllocator.cpp **** 
 263              		.loc 1 57 28 is_stmt 0
 264 0150 23000502 		sb	zero,32(a0)
  59:src/memoryAllocator.cpp ****             }
 265              		.loc 1 59 17 is_stmt 1
  59:src/memoryAllocator.cpp ****             }
 266              		.loc 1 59 65 is_stmt 0
 267 0154 13058502 		addi	a0,a0,40
 268              	.LVL18:
 269 0158 6FF0DFF7 		j	.L5
 270              	.LVL19:
 271              	.L12:
 272              		.cfi_def_cfa_register 2
 273              		.cfi_restore 1
 274              		.cfi_restore 8
 275              		.cfi_restore 9
 276              		.cfi_restore 18
 277              	.LBE6:
 278              	.LBE5:
 279              	.LBE8:
 280              	.LBE11:
 281              	.LBE15:
  26:src/memoryAllocator.cpp **** 
 282              		.loc 1 26 27
 283 015c 13050000 		li	a0,0
 284              	.LVL20:
 285              		.loc 1 67 1
 286 0160 67800000 		ret
 287              		.cfi_endproc
GAS LISTING /tmp/cckDSt0P.s 			page 8


 288              	.LFE5:
 290              		.align	2
 291              		.globl	_ZN15MemoryAllocator8try_joinEPNS_11ChunkHeaderE
 293              	_ZN15MemoryAllocator8try_joinEPNS_11ChunkHeaderE:
 294              	.LFB7:
  68:src/memoryAllocator.cpp **** 
  69:src/memoryAllocator.cpp **** /**
  70:src/memoryAllocator.cpp ****  * Frees previously allocated memory block.
  71:src/memoryAllocator.cpp ****  * @param ptr Pointer returned by kmem_alloc.
  72:src/memoryAllocator.cpp ****  * @return Error codes:
  73:src/memoryAllocator.cpp ****  *         0 (success),
  74:src/memoryAllocator.cpp ****  *        -1 (null pointer or heap not initialized),
  75:src/memoryAllocator.cpp ****  *        -2 (pointer out of heap),
  76:src/memoryAllocator.cpp ****  *        -3 (invalid pointer, not previously allocated or corrupted)
  77:src/memoryAllocator.cpp ****  */
  78:src/memoryAllocator.cpp **** int MemoryAllocator::kmem_free(void* ptr) {
  79:src/memoryAllocator.cpp ****     if (!ptr) return -1;
  80:src/memoryAllocator.cpp ****     if ((char*)ptr < (char*)HEAP_START_ADDR || (char*)ptr > (char*)HEAP_END_ADDR) return -2;
  81:src/memoryAllocator.cpp **** 
  82:src/memoryAllocator.cpp ****     ChunkHeader* chunkHeader = (ChunkHeader*)((char*)ptr - sizeof(ChunkHeader));
  83:src/memoryAllocator.cpp ****     if(chunkHeader->magic != MAGIC) return -3;
  84:src/memoryAllocator.cpp **** 
  85:src/memoryAllocator.cpp ****     chunkHeader->free = true;
  86:src/memoryAllocator.cpp **** 
  87:src/memoryAllocator.cpp ****     // Try joining with free neighbours
  88:src/memoryAllocator.cpp ****     try_join(chunkHeader);
  89:src/memoryAllocator.cpp **** 
  90:src/memoryAllocator.cpp ****     return 0;
  91:src/memoryAllocator.cpp **** }
  92:src/memoryAllocator.cpp **** 
  93:src/memoryAllocator.cpp **** // Joins chunk with free neighbouring chunks
  94:src/memoryAllocator.cpp **** void MemoryAllocator::try_join(ChunkHeader* chunk){
 295              		.loc 1 94 51 is_stmt 1
 296              		.cfi_startproc
 297              	.LVL21:
 298 0164 130101FF 		addi	sp,sp,-16
 299              		.cfi_def_cfa_offset 16
 300 0168 23348100 		sd	s0,8(sp)
 301              		.cfi_offset 8, -8
 302 016c 13040101 		addi	s0,sp,16
 303              		.cfi_def_cfa 8, 0
  95:src/memoryAllocator.cpp ****     if(!chunk->free) return;
 304              		.loc 1 95 5
 305              		.loc 1 95 16 is_stmt 0
 306 0170 83C70502 		lbu	a5,32(a1)
 307              		.loc 1 95 5
 308 0174 63820704 		beqz	a5,.L19
  96:src/memoryAllocator.cpp **** 
  97:src/memoryAllocator.cpp ****     //join with next
  98:src/memoryAllocator.cpp ****     if(chunk->next){
 309              		.loc 1 98 5 is_stmt 1
 310              		.loc 1 98 15 is_stmt 0
 311 0178 83B78501 		ld	a5,24(a1)
 312              		.loc 1 98 5
 313 017c 638E0700 		beqz	a5,.L21
  99:src/memoryAllocator.cpp ****         if(chunk->next->free && (char*)chunk + sizeof(ChunkHeader) + chunk->size == (char*)chunk->n
 314              		.loc 1 99 9 is_stmt 1
GAS LISTING /tmp/cckDSt0P.s 			page 9


 315              		.loc 1 99 25 is_stmt 0
 316 0180 03C70702 		lbu	a4,32(a5)
 317              		.loc 1 99 9
 318 0184 630A0700 		beqz	a4,.L21
 319              		.loc 1 99 77 discriminator 1
 320 0188 83B68500 		ld	a3,8(a1)
 321              		.loc 1 99 68 discriminator 1
 322 018c 13878602 		addi	a4,a3,40
 323 0190 3387E500 		add	a4,a1,a4
 324              		.loc 1 99 30 discriminator 1
 325 0194 6388E702 		beq	a5,a4,.L24
 326              	.L21:
 100:src/memoryAllocator.cpp ****             chunk->size += sizeof(ChunkHeader) + chunk->next->size;
 101:src/memoryAllocator.cpp ****             chunk->next = chunk->next->next;
 102:src/memoryAllocator.cpp ****             if (chunk->next)
 103:src/memoryAllocator.cpp ****                 chunk->next->prev = chunk;
 104:src/memoryAllocator.cpp ****         }
 105:src/memoryAllocator.cpp ****     }
 106:src/memoryAllocator.cpp ****     //join with prev
 107:src/memoryAllocator.cpp ****     if(chunk->prev){
 327              		.loc 1 107 5 is_stmt 1
 328              		.loc 1 107 15 is_stmt 0
 329 0198 83B70501 		ld	a5,16(a1)
 330              		.loc 1 107 5
 331 019c 638E0700 		beqz	a5,.L19
 108:src/memoryAllocator.cpp ****         if(chunk->prev->free && (char*)chunk->prev + sizeof(ChunkHeader) + chunk->prev->size == (ch
 332              		.loc 1 108 9 is_stmt 1
 333              		.loc 1 108 25 is_stmt 0
 334 01a0 03C70702 		lbu	a4,32(a5)
 335              		.loc 1 108 9
 336 01a4 630A0700 		beqz	a4,.L19
 337              		.loc 1 108 89 discriminator 1
 338 01a8 83B68700 		ld	a3,8(a5)
 339              		.loc 1 108 74 discriminator 1
 340 01ac 13878602 		addi	a4,a3,40
 341 01b0 3387E700 		add	a4,a5,a4
 342              		.loc 1 108 30 discriminator 1
 343 01b4 630AB702 		beq	a4,a1,.L25
 344              	.LVL22:
 345              	.L19:
 109:src/memoryAllocator.cpp ****             chunk->prev->size += sizeof(ChunkHeader) + chunk->size;
 110:src/memoryAllocator.cpp ****             chunk->prev->next = chunk->next;
 111:src/memoryAllocator.cpp ****             if (chunk->next)
 112:src/memoryAllocator.cpp ****                 chunk->next->prev = chunk->prev;
 113:src/memoryAllocator.cpp ****             chunk = chunk->prev;
 114:src/memoryAllocator.cpp ****         }
 115:src/memoryAllocator.cpp ****     }
 116:src/memoryAllocator.cpp **** }...
 346              		.loc 1 116 1
 347 01b8 03348100 		ld	s0,8(sp)
 348              		.cfi_remember_state
 349              		.cfi_restore 8
 350              		.cfi_def_cfa 2, 16
 351 01bc 13010101 		addi	sp,sp,16
 352              		.cfi_def_cfa_offset 0
 353 01c0 67800000 		jr	ra
 354              	.LVL23:
GAS LISTING /tmp/cckDSt0P.s 			page 10


 355              	.L24:
 356              		.cfi_restore_state
 100:src/memoryAllocator.cpp ****             chunk->size += sizeof(ChunkHeader) + chunk->next->size;
 357              		.loc 1 100 13 is_stmt 1
 100:src/memoryAllocator.cpp ****             chunk->size += sizeof(ChunkHeader) + chunk->next->size;
 358              		.loc 1 100 63 is_stmt 0
 359 01c4 03B78700 		ld	a4,8(a5)
 100:src/memoryAllocator.cpp ****             chunk->size += sizeof(ChunkHeader) + chunk->next->size;
 360              		.loc 1 100 25
 361 01c8 B386E600 		add	a3,a3,a4
 362 01cc 93868602 		addi	a3,a3,40
 363 01d0 23B4D500 		sd	a3,8(a1)
 101:src/memoryAllocator.cpp ****             chunk->next = chunk->next->next;
 364              		.loc 1 101 13 is_stmt 1
 101:src/memoryAllocator.cpp ****             chunk->next = chunk->next->next;
 365              		.loc 1 101 40 is_stmt 0
 366 01d4 83B78701 		ld	a5,24(a5)
 101:src/memoryAllocator.cpp ****             chunk->next = chunk->next->next;
 367              		.loc 1 101 25
 368 01d8 23BCF500 		sd	a5,24(a1)
 102:src/memoryAllocator.cpp ****             if (chunk->next)
 369              		.loc 1 102 13 is_stmt 1
 370 01dc E38E07FA 		beqz	a5,.L21
 103:src/memoryAllocator.cpp ****                 chunk->next->prev = chunk;
 371              		.loc 1 103 17
 103:src/memoryAllocator.cpp ****                 chunk->next->prev = chunk;
 372              		.loc 1 103 35 is_stmt 0
 373 01e0 23B8B700 		sd	a1,16(a5)
 374 01e4 6FF05FFB 		j	.L21
 375              	.L25:
 109:src/memoryAllocator.cpp ****             chunk->prev->size += sizeof(ChunkHeader) + chunk->size;
 376              		.loc 1 109 13 is_stmt 1
 109:src/memoryAllocator.cpp ****             chunk->prev->size += sizeof(ChunkHeader) + chunk->size;
 377              		.loc 1 109 63 is_stmt 0
 378 01e8 03B78500 		ld	a4,8(a1)
 109:src/memoryAllocator.cpp ****             chunk->prev->size += sizeof(ChunkHeader) + chunk->size;
 379              		.loc 1 109 31
 380 01ec B386E600 		add	a3,a3,a4
 381 01f0 93868602 		addi	a3,a3,40
 382 01f4 23B4D700 		sd	a3,8(a5)
 110:src/memoryAllocator.cpp ****             chunk->prev->next = chunk->next;
 383              		.loc 1 110 13 is_stmt 1
 110:src/memoryAllocator.cpp ****             chunk->prev->next = chunk->next;
 384              		.loc 1 110 20 is_stmt 0
 385 01f8 03B70501 		ld	a4,16(a1)
 110:src/memoryAllocator.cpp ****             chunk->prev->next = chunk->next;
 386              		.loc 1 110 40
 387 01fc 83B78501 		ld	a5,24(a1)
 110:src/memoryAllocator.cpp ****             chunk->prev->next = chunk->next;
 388              		.loc 1 110 31
 389 0200 233CF700 		sd	a5,24(a4)
 111:src/memoryAllocator.cpp ****             if (chunk->next)
 390              		.loc 1 111 13 is_stmt 1
 391 0204 E38A07FA 		beqz	a5,.L19
 112:src/memoryAllocator.cpp ****                 chunk->next->prev = chunk->prev;
 392              		.loc 1 112 17
 112:src/memoryAllocator.cpp ****                 chunk->next->prev = chunk->prev;
GAS LISTING /tmp/cckDSt0P.s 			page 11


 393              		.loc 1 112 44 is_stmt 0
 394 0208 03B70501 		ld	a4,16(a1)
 112:src/memoryAllocator.cpp ****                 chunk->next->prev = chunk->prev;
 395              		.loc 1 112 35
 396 020c 23B8E700 		sd	a4,16(a5)
 113:src/memoryAllocator.cpp ****             chunk = chunk->prev;
 397              		.loc 1 113 13 is_stmt 1
 398              	.LVL24:
 399 0210 6FF09FFA 		j	.L19
 400              		.cfi_endproc
 401              	.LFE7:
 403              		.align	2
 404              		.globl	_ZN15MemoryAllocator9kmem_freeEPv
 406              	_ZN15MemoryAllocator9kmem_freeEPv:
 407              	.LFB6:
  78:src/memoryAllocator.cpp **** int MemoryAllocator::kmem_free(void* ptr) {
 408              		.loc 1 78 43
 409              		.cfi_startproc
 410              	.LVL25:
  79:src/memoryAllocator.cpp ****     if (!ptr) return -1;
 411              		.loc 1 79 5
 412 0214 63880506 		beqz	a1,.L28
 413 0218 93870500 		mv	a5,a1
  80:src/memoryAllocator.cpp ****     if ((char*)ptr < (char*)HEAP_START_ADDR || (char*)ptr > (char*)HEAP_END_ADDR) return -2;
 414              		.loc 1 80 5
  80:src/memoryAllocator.cpp ****     if ((char*)ptr < (char*)HEAP_START_ADDR || (char*)ptr > (char*)HEAP_END_ADDR) return -2;
 415              		.loc 1 80 22 is_stmt 0
 416 021c 17070000 		la	a4,HEAP_START_ADDR
 416      03370700 
 417 0224 03370700 		ld	a4,0(a4)
  80:src/memoryAllocator.cpp ****     if ((char*)ptr < (char*)HEAP_START_ADDR || (char*)ptr > (char*)HEAP_END_ADDR) return -2;
 418              		.loc 1 80 5
 419 0228 63E2E506 		bgtu	a4,a1,.L29
  80:src/memoryAllocator.cpp ****     if ((char*)ptr < (char*)HEAP_START_ADDR || (char*)ptr > (char*)HEAP_END_ADDR) return -2;
 420              		.loc 1 80 61 discriminator 2
 421 022c 17070000 		la	a4,HEAP_END_ADDR
 421      03370700 
 422 0234 03370700 		ld	a4,0(a4)
  80:src/memoryAllocator.cpp ****     if ((char*)ptr < (char*)HEAP_START_ADDR || (char*)ptr > (char*)HEAP_END_ADDR) return -2;
 423              		.loc 1 80 45 discriminator 2
 424 0238 636EB704 		bltu	a4,a1,.L30
  82:src/memoryAllocator.cpp ****     ChunkHeader* chunkHeader = (ChunkHeader*)((char*)ptr - sizeof(ChunkHeader));
 425              		.loc 1 82 5 is_stmt 1
  82:src/memoryAllocator.cpp ****     ChunkHeader* chunkHeader = (ChunkHeader*)((char*)ptr - sizeof(ChunkHeader));
 426              		.loc 1 82 18 is_stmt 0
 427 023c 938585FD 		addi	a1,a1,-40
 428              	.LVL26:
  83:src/memoryAllocator.cpp ****     if(chunkHeader->magic != MAGIC) return -3;
 429              		.loc 1 83 5 is_stmt 1
  83:src/memoryAllocator.cpp ****     if(chunkHeader->magic != MAGIC) return -3;
 430              		.loc 1 83 21 is_stmt 0
 431 0240 83A687FD 		lw	a3,-40(a5)
  83:src/memoryAllocator.cpp ****     if(chunkHeader->magic != MAGIC) return -3;
 432              		.loc 1 83 5
 433 0244 37F7CDAB 		li	a4,-1412567040
 434 0248 130717F0 		addi	a4,a4,-255
 435 024c 6398E604 		bne	a3,a4,.L31
GAS LISTING /tmp/cckDSt0P.s 			page 12


  78:src/memoryAllocator.cpp **** int MemoryAllocator::kmem_free(void* ptr) {
 436              		.loc 1 78 43
 437 0250 130101FF 		addi	sp,sp,-16
 438              		.cfi_def_cfa_offset 16
 439 0254 23341100 		sd	ra,8(sp)
 440 0258 23308100 		sd	s0,0(sp)
 441              		.cfi_offset 1, -8
 442              		.cfi_offset 8, -16
 443 025c 13040101 		addi	s0,sp,16
 444              		.cfi_def_cfa 8, 0
  85:src/memoryAllocator.cpp ****     chunkHeader->free = true;
 445              		.loc 1 85 5 is_stmt 1
  85:src/memoryAllocator.cpp ****     chunkHeader->free = true;
 446              		.loc 1 85 23 is_stmt 0
 447 0260 13071000 		li	a4,1
 448 0264 238CE7FE 		sb	a4,-8(a5)
  88:src/memoryAllocator.cpp ****     try_join(chunkHeader);
 449              		.loc 1 88 5 is_stmt 1
  88:src/memoryAllocator.cpp ****     try_join(chunkHeader);
 450              		.loc 1 88 13 is_stmt 0
 451 0268 97000000 		call	_ZN15MemoryAllocator8try_joinEPNS_11ChunkHeaderE
 451      E7800000 
 452              	.LVL27:
  90:src/memoryAllocator.cpp ****     return 0;
 453              		.loc 1 90 5 is_stmt 1
  90:src/memoryAllocator.cpp ****     return 0;
 454              		.loc 1 90 12 is_stmt 0
 455 0270 13050000 		li	a0,0
  91:src/memoryAllocator.cpp **** }
 456              		.loc 1 91 1
 457 0274 83308100 		ld	ra,8(sp)
 458              		.cfi_restore 1
 459 0278 03340100 		ld	s0,0(sp)
 460              		.cfi_restore 8
 461              		.cfi_def_cfa 2, 16
 462 027c 13010101 		addi	sp,sp,16
 463              		.cfi_def_cfa_offset 0
 464 0280 67800000 		jr	ra
 465              	.LVL28:
 466              	.L28:
  79:src/memoryAllocator.cpp ****     if (!ptr) return -1;
 467              		.loc 1 79 23
 468 0284 1305F0FF 		li	a0,-1
 469              	.LVL29:
 470 0288 67800000 		ret
 471              	.LVL30:
 472              	.L29:
  80:src/memoryAllocator.cpp ****     if ((char*)ptr < (char*)HEAP_START_ADDR || (char*)ptr > (char*)HEAP_END_ADDR) return -2;
 473              		.loc 1 80 91
 474 028c 1305E0FF 		li	a0,-2
 475              	.LVL31:
 476 0290 67800000 		ret
 477              	.LVL32:
 478              	.L30:
 479 0294 1305E0FF 		li	a0,-2
 480              	.LVL33:
 481 0298 67800000 		ret
GAS LISTING /tmp/cckDSt0P.s 			page 13


 482              	.LVL34:
 483              	.L31:
  83:src/memoryAllocator.cpp ****     if(chunkHeader->magic != MAGIC) return -3;
 484              		.loc 1 83 45
 485 029c 1305D0FF 		li	a0,-3
 486              	.LVL35:
  91:src/memoryAllocator.cpp **** }
 487              		.loc 1 91 1
 488 02a0 67800000 		ret
 489              		.cfi_endproc
 490              	.LFE6:
 492              		.bss
 493              		.align	3
 494              		.set	.LANCHOR0,. + 0
 497              	_ZZN15MemoryAllocator8instanceEvE4inst:
 498 0000 00000000 		.zero	8
 498      00000000 
 499              		.text
 500              	.Letext0:
 501              		.file 2 "src/../h/../lib/hw.h"
 502              		.file 3 "src/../h/memory_allocator.hpp"
GAS LISTING /tmp/cckDSt0P.s 			page 14

