GAS LISTING /tmp/cc1Vjp2P.s 			page 1


   1              		.file	"printing.cpp"
   2              		.option pic
   3              		.option norelax
   4              		.text
   5              	.Ltext0:
   6              		.align	2
   7              		.globl	_Z12kprintStringPKc
   9              	_Z12kprintStringPKc:
  10              	.LFB46:
  11              		.file 1 "src/printing.cpp"
   1:src/printing.cpp **** #include "../h/printing.hpp"
   2:src/printing.cpp **** 
   3:src/printing.cpp **** 
   4:src/printing.cpp **** void kprintString(char const *string)
   5:src/printing.cpp **** {
  12              		.loc 1 5 1
  13              		.cfi_startproc
  14              	.LVL0:
  15 0000 130101FE 		addi	sp,sp,-32
  16              		.cfi_def_cfa_offset 32
  17 0004 233C1100 		sd	ra,24(sp)
  18 0008 23388100 		sd	s0,16(sp)
  19 000c 23349100 		sd	s1,8(sp)
  20              		.cfi_offset 1, -8
  21              		.cfi_offset 8, -16
  22              		.cfi_offset 9, -24
  23 0010 13040102 		addi	s0,sp,32
  24              		.cfi_def_cfa 8, 0
  25 0014 93040500 		mv	s1,a0
  26              	.LVL1:
  27              	.L3:
   6:src/printing.cpp ****     while (*string != '\0')
  28              		.loc 1 6 5
  29              		.loc 1 6 20
  30              		.loc 1 6 12 is_stmt 0
  31 0018 03C50400 		lbu	a0,0(s1)
  32              		.loc 1 6 20
  33 001c 630A0500 		beqz	a0,.L1
   7:src/printing.cpp ****     {
   8:src/printing.cpp ****         putc(*string);
  34              		.loc 1 8 9 is_stmt 1
  35              		.loc 1 8 13 is_stmt 0
  36 0020 97000000 		call	_Z4putcc@plt
  36      E7800000 
  37              	.LVL2:
   9:src/printing.cpp ****         string++;
  38              		.loc 1 9 9 is_stmt 1
  39              		.loc 1 9 15 is_stmt 0
  40 0028 93841400 		addi	s1,s1,1
  41              	.LVL3:
   6:src/printing.cpp ****     while (*string != '\0')
  42              		.loc 1 6 5
  43 002c 6FF0DFFE 		j	.L3
  44              	.L1:
  10:src/printing.cpp ****     }
  11:src/printing.cpp **** }
  45              		.loc 1 11 1
GAS LISTING /tmp/cc1Vjp2P.s 			page 2


  46 0030 83308101 		ld	ra,24(sp)
  47              		.cfi_restore 1
  48 0034 03340101 		ld	s0,16(sp)
  49              		.cfi_restore 8
  50              		.cfi_def_cfa 2, 32
  51 0038 83348100 		ld	s1,8(sp)
  52              		.cfi_restore 9
  53              	.LVL4:
  54 003c 13010102 		addi	sp,sp,32
  55              		.cfi_def_cfa_offset 0
  56 0040 67800000 		jr	ra
  57              		.cfi_endproc
  58              	.LFE46:
  60              		.align	2
  61              		.globl	_Z10kgetStringPci
  63              	_Z10kgetStringPci:
  64              	.LFB47:
  12:src/printing.cpp **** 
  13:src/printing.cpp **** char* kgetString(char *buf, int max) {
  65              		.loc 1 13 38 is_stmt 1
  66              		.cfi_startproc
  67              	.LVL5:
  68 0044 130101FD 		addi	sp,sp,-48
  69              		.cfi_def_cfa_offset 48
  70 0048 23341102 		sd	ra,40(sp)
  71 004c 23308102 		sd	s0,32(sp)
  72 0050 233C9100 		sd	s1,24(sp)
  73 0054 23382101 		sd	s2,16(sp)
  74 0058 23343101 		sd	s3,8(sp)
  75 005c 23304101 		sd	s4,0(sp)
  76              		.cfi_offset 1, -8
  77              		.cfi_offset 8, -16
  78              		.cfi_offset 9, -24
  79              		.cfi_offset 18, -32
  80              		.cfi_offset 19, -40
  81              		.cfi_offset 20, -48
  82 0060 13040103 		addi	s0,sp,48
  83              		.cfi_def_cfa 8, 0
  84 0064 93090500 		mv	s3,a0
  85 0068 138A0500 		mv	s4,a1
  14:src/printing.cpp ****     int i, cc;
  86              		.loc 1 14 5
  15:src/printing.cpp ****     char c;
  87              		.loc 1 15 5
  16:src/printing.cpp **** 
  17:src/printing.cpp ****     for(i=0; i+1 < max; ){
  88              		.loc 1 17 5
  89              	.LVL6:
  90              		.loc 1 17 10 is_stmt 0
  91 006c 13090000 		li	s2,0
  92              	.LVL7:
  93              	.L7:
  94              		.loc 1 17 18 is_stmt 1 discriminator 1
  95 0070 93040900 		mv	s1,s2
  96              		.loc 1 17 15 is_stmt 0 discriminator 1
  97 0074 1B091900 		addiw	s2,s2,1
  98              	.LVL8:
GAS LISTING /tmp/cc1Vjp2P.s 			page 3


  99              		.loc 1 17 18 discriminator 1
 100 0078 635A4903 		bge	s2,s4,.L6
  18:src/printing.cpp ****         cc = getc();
 101              		.loc 1 18 9 is_stmt 1
 102              		.loc 1 18 18 is_stmt 0
 103 007c 97000000 		call	_Z4getcv@plt
 103      E7800000 
 104              	.LVL9:
  19:src/printing.cpp ****         if(cc < 1)
 105              		.loc 1 19 9 is_stmt 1
 106 0084 63040502 		beqz	a0,.L6
  20:src/printing.cpp ****             break;
  21:src/printing.cpp ****         c = cc;
 107              		.loc 1 21 9
 108              	.LVL10:
  22:src/printing.cpp ****         buf[i++] = c;
 109              		.loc 1 22 9
 110              		.loc 1 22 16 is_stmt 0
 111 0088 B3849900 		add	s1,s3,s1
 112              		.loc 1 22 18
 113 008c 2380A400 		sb	a0,0(s1)
  23:src/printing.cpp ****         if(c == '\n' || c == '\r')
 114              		.loc 1 23 9 is_stmt 1
 115 0090 9307A000 		li	a5,10
 116 0094 630AF500 		beq	a0,a5,.L8
 117              		.loc 1 23 22 is_stmt 0 discriminator 1
 118 0098 9307D000 		li	a5,13
 119 009c E31AF5FC 		bne	a0,a5,.L7
  22:src/printing.cpp ****         buf[i++] = c;
 120              		.loc 1 22 14
 121 00a0 93040900 		mv	s1,s2
 122 00a4 6F008000 		j	.L6
 123              	.L8:
 124 00a8 93040900 		mv	s1,s2
 125              	.LVL11:
 126              	.L6:
  24:src/printing.cpp ****             break;
  25:src/printing.cpp ****     }
  26:src/printing.cpp ****     buf[i] = '\0';
 127              		.loc 1 26 5 is_stmt 1
 128              		.loc 1 26 10 is_stmt 0
 129 00ac B3849900 		add	s1,s3,s1
 130              	.LVL12:
 131              		.loc 1 26 12
 132 00b0 23800400 		sb	zero,0(s1)
  27:src/printing.cpp ****     return buf;
 133              		.loc 1 27 5 is_stmt 1
  28:src/printing.cpp **** }
 134              		.loc 1 28 1 is_stmt 0
 135 00b4 13850900 		mv	a0,s3
 136 00b8 83308102 		ld	ra,40(sp)
 137              		.cfi_restore 1
 138 00bc 03340102 		ld	s0,32(sp)
 139              		.cfi_restore 8
 140              		.cfi_def_cfa 2, 48
 141 00c0 83348101 		ld	s1,24(sp)
 142              		.cfi_restore 9
GAS LISTING /tmp/cc1Vjp2P.s 			page 4


 143 00c4 03390101 		ld	s2,16(sp)
 144              		.cfi_restore 18
 145 00c8 83398100 		ld	s3,8(sp)
 146              		.cfi_restore 19
 147              	.LVL13:
 148 00cc 033A0100 		ld	s4,0(sp)
 149              		.cfi_restore 20
 150 00d0 13010103 		addi	sp,sp,48
 151              		.cfi_def_cfa_offset 0
 152 00d4 67800000 		jr	ra
 153              		.cfi_endproc
 154              	.LFE47:
 156              		.align	2
 157              		.globl	_Z12kstringToIntPKc
 159              	_Z12kstringToIntPKc:
 160              	.LFB48:
  29:src/printing.cpp **** 
  30:src/printing.cpp **** int kstringToInt(const char *s) {
 161              		.loc 1 30 33 is_stmt 1
 162              		.cfi_startproc
 163              	.LVL14:
 164 00d8 130101FF 		addi	sp,sp,-16
 165              		.cfi_def_cfa_offset 16
 166 00dc 23348100 		sd	s0,8(sp)
 167              		.cfi_offset 8, -8
 168 00e0 13040101 		addi	s0,sp,16
 169              		.cfi_def_cfa 8, 0
 170 00e4 93060500 		mv	a3,a0
  31:src/printing.cpp ****     int n;
 171              		.loc 1 31 5
  32:src/printing.cpp **** 
  33:src/printing.cpp ****     n = 0;
 172              		.loc 1 33 5
 173              	.LVL15:
 174              		.loc 1 33 7 is_stmt 0
 175 00e8 13050000 		li	a0,0
 176              	.LVL16:
 177              	.L12:
  34:src/printing.cpp ****     while ('0' <= *s && *s <= '9')
 178              		.loc 1 34 5 is_stmt 1
 179              		.loc 1 34 22
 180              		.loc 1 34 19 is_stmt 0
 181 00ec 03C60600 		lbu	a2,0(a3)
 182              		.loc 1 34 22
 183 00f0 1B0706FD 		addiw	a4,a2,-48
 184 00f4 1377F70F 		andi	a4,a4,0xff
 185 00f8 93079000 		li	a5,9
 186 00fc 63E0E702 		bgtu	a4,a5,.L11
  35:src/printing.cpp ****         n = n * 10 + *s++ - '0';
 187              		.loc 1 35 9 is_stmt 1
 188              		.loc 1 35 15 is_stmt 0
 189 0100 9B172500 		slliw	a5,a0,2
 190 0104 BB87A700 		addw	a5,a5,a0
 191 0108 9B971700 		slliw	a5,a5,1
 192              		.loc 1 35 24
 193 010c 93861600 		addi	a3,a3,1
 194              	.LVL17:
GAS LISTING /tmp/cc1Vjp2P.s 			page 5


 195              		.loc 1 35 20
 196 0110 BB87C700 		addw	a5,a5,a2
 197              		.loc 1 35 11
 198 0114 1B8507FD 		addiw	a0,a5,-48
 199              	.LVL18:
  34:src/printing.cpp ****     while ('0' <= *s && *s <= '9')
 200              		.loc 1 34 5
 201 0118 6FF05FFD 		j	.L12
 202              	.LVL19:
 203              	.L11:
  36:src/printing.cpp ****     return n;
 204              		.loc 1 36 5 is_stmt 1
  37:src/printing.cpp **** }
 205              		.loc 1 37 1 is_stmt 0
 206 011c 03348100 		ld	s0,8(sp)
 207              		.cfi_restore 8
 208              		.cfi_def_cfa 2, 16
 209 0120 13010101 		addi	sp,sp,16
 210              		.cfi_def_cfa_offset 0
 211 0124 67800000 		jr	ra
 212              		.cfi_endproc
 213              	.LFE48:
 215              		.section	.rodata.str1.8,"aMS",@progbits,1
 216              		.align	3
 217              	.LC0:
 218 0000 30313233 		.string	"0123456789ABCDEF"
 218      34353637 
 218      38394142 
 218      43444546 
 218      00
 219              		.text
 220              		.align	2
 221              		.globl	_Z9kprintIntiii
 223              	_Z9kprintIntiii:
 224              	.LFB49:
  38:src/printing.cpp **** 
  39:src/printing.cpp **** 
  40:src/printing.cpp **** 
  41:src/printing.cpp **** void kprintInt(int xx, int base, int sgn)
  42:src/printing.cpp **** {
 225              		.loc 1 42 1 is_stmt 1
 226              		.cfi_startproc
 227              	.LVL20:
 228 0128 130101FB 		addi	sp,sp,-80
 229              		.cfi_def_cfa_offset 80
 230 012c 23341104 		sd	ra,72(sp)
 231 0130 23308104 		sd	s0,64(sp)
 232 0134 233C9102 		sd	s1,56(sp)
 233              		.cfi_offset 1, -8
 234              		.cfi_offset 8, -16
 235              		.cfi_offset 9, -24
 236 0138 13040105 		addi	s0,sp,80
 237              		.cfi_def_cfa 8, 0
  43:src/printing.cpp ****     char digits[] = "0123456789ABCDEF";
 238              		.loc 1 43 5
 239              		.loc 1 43 10 is_stmt 0
 240 013c 97070000 		lla	a5,.LC0
GAS LISTING /tmp/cc1Vjp2P.s 			page 6


 240      93870700 
 241 0144 03B70700 		ld	a4,0(a5)
 242 0148 2334E4FC 		sd	a4,-56(s0)
 243 014c 03B78700 		ld	a4,8(a5)
 244 0150 2338E4FC 		sd	a4,-48(s0)
 245 0154 83C70701 		lbu	a5,16(a5)
 246 0158 230CF4FC 		sb	a5,-40(s0)
  44:src/printing.cpp ****     char buf[16];
 247              		.loc 1 44 5 is_stmt 1
  45:src/printing.cpp ****     int i, neg;
 248              		.loc 1 45 5
  46:src/printing.cpp ****     uint x;
 249              		.loc 1 46 5
  47:src/printing.cpp **** 
  48:src/printing.cpp ****     neg = 0;
 250              		.loc 1 48 5
 251              	.LVL21:
  49:src/printing.cpp ****     if(sgn && xx < 0){
 252              		.loc 1 49 5
 253 015c 63040600 		beqz	a2,.L15
 254              		.loc 1 49 12 is_stmt 0 discriminator 1
 255 0160 63420508 		bltz	a0,.L22
 256              	.L15:
  50:src/printing.cpp ****         neg = 1;
  51:src/printing.cpp ****         x = -xx;
  52:src/printing.cpp ****     } else {
  53:src/printing.cpp ****         x = xx;
 257              		.loc 1 53 9 is_stmt 1
 258              		.loc 1 53 11 is_stmt 0
 259 0164 1B050500 		sext.w	a0,a0
 260              	.LVL22:
  48:src/printing.cpp ****     if(sgn && xx < 0){
 261              		.loc 1 48 9
 262 0168 13080000 		li	a6,0
 263              	.LVL23:
 264              	.L16:
  54:src/printing.cpp ****     }
  55:src/printing.cpp **** 
  56:src/printing.cpp ****     i = 0;
 265              		.loc 1 56 5 is_stmt 1
 266              		.loc 1 56 7 is_stmt 0
 267 016c 93040000 		li	s1,0
 268              	.LVL24:
 269              	.L17:
  57:src/printing.cpp ****     do{
 270              		.loc 1 57 5 is_stmt 1
  58:src/printing.cpp ****         buf[i++] = digits[x % base];
 271              		.loc 1 58 9
 272              		.loc 1 58 31 is_stmt 0
 273 0170 1B870500 		sext.w	a4,a1
 274              		.loc 1 58 29
 275 0174 BB77B502 		remuw	a5,a0,a1
 276 0178 93860400 		mv	a3,s1
 277              		.loc 1 58 14
 278 017c 9B841400 		addiw	s1,s1,1
 279              	.LVL25:
 280              		.loc 1 58 35
GAS LISTING /tmp/cc1Vjp2P.s 			page 7


 281 0180 93970702 		slli	a5,a5,32
 282 0184 93D70702 		srli	a5,a5,32
 283 0188 130604FE 		addi	a2,s0,-32
 284 018c B307F600 		add	a5,a2,a5
 285 0190 03C687FE 		lbu	a2,-24(a5)
 286              		.loc 1 58 18
 287 0194 930704FE 		addi	a5,s0,-32
 288 0198 B387D700 		add	a5,a5,a3
 289 019c 238CC7FC 		sb	a2,-40(a5)
  59:src/printing.cpp ****     }while((x /= base) != 0);
 290              		.loc 1 59 24 is_stmt 1
 291 01a0 1B060500 		sext.w	a2,a0
 292              		.loc 1 59 15 is_stmt 0
 293 01a4 3B55B502 		divuw	a0,a0,a1
 294              	.LVL26:
 295              		.loc 1 59 24
 296 01a8 E374E6FC 		bleu	a4,a2,.L17
  60:src/printing.cpp ****     if(neg)
 297              		.loc 1 60 5 is_stmt 1
 298 01ac 630C0800 		beqz	a6,.L20
  61:src/printing.cpp ****         buf[i++] = '-';
 299              		.loc 1 61 9
 300              	.LVL27:
 301              		.loc 1 61 18 is_stmt 0
 302 01b0 930704FE 		addi	a5,s0,-32
 303 01b4 B3849700 		add	s1,a5,s1
 304 01b8 9307D002 		li	a5,45
 305 01bc 238CF4FC 		sb	a5,-40(s1)
 306              		.loc 1 61 14
 307 01c0 9B842600 		addiw	s1,a3,2
 308              	.LVL28:
 309              	.L20:
  62:src/printing.cpp **** 
  63:src/printing.cpp ****     while(--i >= 0)
 310              		.loc 1 63 5 is_stmt 1
 311              		.loc 1 63 15
 312 01c4 9B84F4FF 		addiw	s1,s1,-1
 313              	.LVL29:
 314 01c8 63C40402 		bltz	s1,.L14
  64:src/printing.cpp ****         putc(buf[i]);
 315              		.loc 1 64 9
 316              		.loc 1 64 13 is_stmt 0
 317 01cc 930704FE 		addi	a5,s0,-32
 318 01d0 B3879700 		add	a5,a5,s1
 319 01d4 03C587FD 		lbu	a0,-40(a5)
 320 01d8 97000000 		call	_Z4putcc@plt
 320      E7800000 
 321              	.LVL30:
 322 01e0 6FF05FFE 		j	.L20
 323              	.LVL31:
 324              	.L22:
  50:src/printing.cpp ****         x = -xx;
 325              		.loc 1 50 9 is_stmt 1
  51:src/printing.cpp ****     } else {
 326              		.loc 1 51 9
  51:src/printing.cpp ****     } else {
 327              		.loc 1 51 11 is_stmt 0
GAS LISTING /tmp/cc1Vjp2P.s 			page 8


 328 01e4 3B05A040 		negw	a0,a0
 329              	.LVL32:
  50:src/printing.cpp ****         x = -xx;
 330              		.loc 1 50 13
 331 01e8 13081000 		li	a6,1
  51:src/printing.cpp ****     } else {
 332              		.loc 1 51 11
 333 01ec 6FF01FF8 		j	.L16
 334              	.LVL33:
 335              	.L14:
  65:src/printing.cpp **** }...
 336              		.loc 1 65 1
 337 01f0 83308104 		ld	ra,72(sp)
 338              		.cfi_restore 1
 339 01f4 03340104 		ld	s0,64(sp)
 340              		.cfi_restore 8
 341              		.cfi_def_cfa 2, 80
 342 01f8 83348103 		ld	s1,56(sp)
 343              		.cfi_restore 9
 344 01fc 13010105 		addi	sp,sp,80
 345              		.cfi_def_cfa_offset 0
 346 0200 67800000 		jr	ra
 347              		.cfi_endproc
 348              	.LFE49:
 350              	.Letext0:
 351              		.file 2 "src/../h/../h/../lib/hw.h"
 352              		.file 3 "src/../h/../h/syscall_c.hpp"
GAS LISTING /tmp/cc1Vjp2P.s 			page 9


DEFINED SYMBOLS
                            *ABS*:0000000000000000 printing.cpp
     /tmp/cc1Vjp2P.s:9      .text:0000000000000000 _Z12kprintStringPKc
     /tmp/cc1Vjp2P.s:13     .text:0000000000000000 .L0 
     /tmp/cc1Vjp2P.s:15     .text:0000000000000000 .L0 
     /tmp/cc1Vjp2P.s:16     .text:0000000000000004 .L0 
     /tmp/cc1Vjp2P.s:20     .text:0000000000000010 .L0 
     /tmp/cc1Vjp2P.s:21     .text:0000000000000010 .L0 
     /tmp/cc1Vjp2P.s:22     .text:0000000000000010 .L0 
     /tmp/cc1Vjp2P.s:24     .text:0000000000000014 .L0 
     /tmp/cc1Vjp2P.s:29     .text:0000000000000018 .L0 
     /tmp/cc1Vjp2P.s:30     .text:0000000000000018 .L0 
     /tmp/cc1Vjp2P.s:31     .text:0000000000000018 .L0 
     /tmp/cc1Vjp2P.s:33     .text:000000000000001c .L0 
     /tmp/cc1Vjp2P.s:35     .text:0000000000000020 .L0 
     /tmp/cc1Vjp2P.s:36     .text:0000000000000020 .L0 
     /tmp/cc1Vjp2P.s:39     .text:0000000000000028 .L0 
     /tmp/cc1Vjp2P.s:40     .text:0000000000000028 .L0 
     /tmp/cc1Vjp2P.s:43     .text:000000000000002c .L0 
     /tmp/cc1Vjp2P.s:46     .text:0000000000000030 .L0 
     /tmp/cc1Vjp2P.s:47     .text:0000000000000034 .L0 
     /tmp/cc1Vjp2P.s:49     .text:0000000000000038 .L0 
     /tmp/cc1Vjp2P.s:50     .text:0000000000000038 .L0 
     /tmp/cc1Vjp2P.s:52     .text:000000000000003c .L0 
     /tmp/cc1Vjp2P.s:55     .text:0000000000000040 .L0 
     /tmp/cc1Vjp2P.s:57     .text:0000000000000044 .L0 
     /tmp/cc1Vjp2P.s:63     .text:0000000000000044 _Z10kgetStringPci
     /tmp/cc1Vjp2P.s:66     .text:0000000000000044 .L0 
     /tmp/cc1Vjp2P.s:68     .text:0000000000000044 .L0 
     /tmp/cc1Vjp2P.s:69     .text:0000000000000048 .L0 
     /tmp/cc1Vjp2P.s:76     .text:0000000000000060 .L0 
     /tmp/cc1Vjp2P.s:77     .text:0000000000000060 .L0 
     /tmp/cc1Vjp2P.s:78     .text:0000000000000060 .L0 
     /tmp/cc1Vjp2P.s:79     .text:0000000000000060 .L0 
     /tmp/cc1Vjp2P.s:80     .text:0000000000000060 .L0 
     /tmp/cc1Vjp2P.s:81     .text:0000000000000060 .L0 
     /tmp/cc1Vjp2P.s:83     .text:0000000000000064 .L0 
     /tmp/cc1Vjp2P.s:87     .text:000000000000006c .L0 
     /tmp/cc1Vjp2P.s:88     .text:000000000000006c .L0 
     /tmp/cc1Vjp2P.s:90     .text:000000000000006c .L0 
     /tmp/cc1Vjp2P.s:91     .text:000000000000006c .L0 
     /tmp/cc1Vjp2P.s:95     .text:0000000000000070 .L0 
     /tmp/cc1Vjp2P.s:97     .text:0000000000000074 .L0 
     /tmp/cc1Vjp2P.s:100    .text:0000000000000078 .L0 
     /tmp/cc1Vjp2P.s:102    .text:000000000000007c .L0 
     /tmp/cc1Vjp2P.s:103    .text:000000000000007c .L0 
     /tmp/cc1Vjp2P.s:106    .text:0000000000000084 .L0 
     /tmp/cc1Vjp2P.s:109    .text:0000000000000088 .L0 
     /tmp/cc1Vjp2P.s:110    .text:0000000000000088 .L0 
     /tmp/cc1Vjp2P.s:111    .text:0000000000000088 .L0 
     /tmp/cc1Vjp2P.s:113    .text:000000000000008c .L0 
     /tmp/cc1Vjp2P.s:115    .text:0000000000000090 .L0 
     /tmp/cc1Vjp2P.s:118    .text:0000000000000098 .L0 
     /tmp/cc1Vjp2P.s:121    .text:00000000000000a0 .L0 
     /tmp/cc1Vjp2P.s:128    .text:00000000000000ac .L0 
     /tmp/cc1Vjp2P.s:129    .text:00000000000000ac .L0 
     /tmp/cc1Vjp2P.s:132    .text:00000000000000b0 .L0 
GAS LISTING /tmp/cc1Vjp2P.s 			page 10


     /tmp/cc1Vjp2P.s:134    .text:00000000000000b4 .L0 
     /tmp/cc1Vjp2P.s:135    .text:00000000000000b4 .L0 
     /tmp/cc1Vjp2P.s:137    .text:00000000000000bc .L0 
     /tmp/cc1Vjp2P.s:139    .text:00000000000000c0 .L0 
     /tmp/cc1Vjp2P.s:140    .text:00000000000000c0 .L0 
     /tmp/cc1Vjp2P.s:142    .text:00000000000000c4 .L0 
     /tmp/cc1Vjp2P.s:144    .text:00000000000000c8 .L0 
     /tmp/cc1Vjp2P.s:146    .text:00000000000000cc .L0 
     /tmp/cc1Vjp2P.s:149    .text:00000000000000d0 .L0 
     /tmp/cc1Vjp2P.s:151    .text:00000000000000d4 .L0 
     /tmp/cc1Vjp2P.s:153    .text:00000000000000d8 .L0 
     /tmp/cc1Vjp2P.s:159    .text:00000000000000d8 _Z12kstringToIntPKc
     /tmp/cc1Vjp2P.s:162    .text:00000000000000d8 .L0 
     /tmp/cc1Vjp2P.s:164    .text:00000000000000d8 .L0 
     /tmp/cc1Vjp2P.s:165    .text:00000000000000dc .L0 
     /tmp/cc1Vjp2P.s:167    .text:00000000000000e0 .L0 
     /tmp/cc1Vjp2P.s:169    .text:00000000000000e4 .L0 
     /tmp/cc1Vjp2P.s:172    .text:00000000000000e8 .L0 
     /tmp/cc1Vjp2P.s:174    .text:00000000000000e8 .L0 
     /tmp/cc1Vjp2P.s:175    .text:00000000000000e8 .L0 
     /tmp/cc1Vjp2P.s:179    .text:00000000000000ec .L0 
     /tmp/cc1Vjp2P.s:180    .text:00000000000000ec .L0 
     /tmp/cc1Vjp2P.s:181    .text:00000000000000ec .L0 
     /tmp/cc1Vjp2P.s:183    .text:00000000000000f0 .L0 
     /tmp/cc1Vjp2P.s:188    .text:0000000000000100 .L0 
     /tmp/cc1Vjp2P.s:189    .text:0000000000000100 .L0 
     /tmp/cc1Vjp2P.s:193    .text:000000000000010c .L0 
     /tmp/cc1Vjp2P.s:196    .text:0000000000000110 .L0 
     /tmp/cc1Vjp2P.s:198    .text:0000000000000114 .L0 
     /tmp/cc1Vjp2P.s:201    .text:0000000000000118 .L0 
     /tmp/cc1Vjp2P.s:205    .text:000000000000011c .L0 
     /tmp/cc1Vjp2P.s:206    .text:000000000000011c .L0 
     /tmp/cc1Vjp2P.s:207    .text:0000000000000120 .L0 
     /tmp/cc1Vjp2P.s:208    .text:0000000000000120 .L0 
     /tmp/cc1Vjp2P.s:210    .text:0000000000000124 .L0 
     /tmp/cc1Vjp2P.s:212    .text:0000000000000128 .L0 
     /tmp/cc1Vjp2P.s:223    .text:0000000000000128 _Z9kprintIntiii
     /tmp/cc1Vjp2P.s:226    .text:0000000000000128 .L0 
     /tmp/cc1Vjp2P.s:228    .text:0000000000000128 .L0 
     /tmp/cc1Vjp2P.s:229    .text:000000000000012c .L0 
     /tmp/cc1Vjp2P.s:233    .text:0000000000000138 .L0 
     /tmp/cc1Vjp2P.s:234    .text:0000000000000138 .L0 
     /tmp/cc1Vjp2P.s:235    .text:0000000000000138 .L0 
     /tmp/cc1Vjp2P.s:237    .text:000000000000013c .L0 
     /tmp/cc1Vjp2P.s:239    .text:000000000000013c .L0 
     /tmp/cc1Vjp2P.s:240    .text:000000000000013c .L0 
     /tmp/cc1Vjp2P.s:248    .text:000000000000015c .L0 
     /tmp/cc1Vjp2P.s:249    .text:000000000000015c .L0 
     /tmp/cc1Vjp2P.s:250    .text:000000000000015c .L0 
     /tmp/cc1Vjp2P.s:252    .text:000000000000015c .L0 
     /tmp/cc1Vjp2P.s:253    .text:000000000000015c .L0 
     /tmp/cc1Vjp2P.s:255    .text:0000000000000160 .L0 
     /tmp/cc1Vjp2P.s:258    .text:0000000000000164 .L0 
     /tmp/cc1Vjp2P.s:259    .text:0000000000000164 .L0 
     /tmp/cc1Vjp2P.s:262    .text:0000000000000168 .L0 
     /tmp/cc1Vjp2P.s:266    .text:000000000000016c .L0 
     /tmp/cc1Vjp2P.s:267    .text:000000000000016c .L0 
GAS LISTING /tmp/cc1Vjp2P.s 			page 11


     /tmp/cc1Vjp2P.s:271    .text:0000000000000170 .L0 
     /tmp/cc1Vjp2P.s:272    .text:0000000000000170 .L0 
     /tmp/cc1Vjp2P.s:273    .text:0000000000000170 .L0 
     /tmp/cc1Vjp2P.s:275    .text:0000000000000174 .L0 
     /tmp/cc1Vjp2P.s:278    .text:000000000000017c .L0 
     /tmp/cc1Vjp2P.s:281    .text:0000000000000180 .L0 
     /tmp/cc1Vjp2P.s:287    .text:0000000000000194 .L0 
     /tmp/cc1Vjp2P.s:291    .text:00000000000001a0 .L0 
     /tmp/cc1Vjp2P.s:293    .text:00000000000001a4 .L0 
     /tmp/cc1Vjp2P.s:296    .text:00000000000001a8 .L0 
     /tmp/cc1Vjp2P.s:298    .text:00000000000001ac .L0 
     /tmp/cc1Vjp2P.s:301    .text:00000000000001b0 .L0 
     /tmp/cc1Vjp2P.s:302    .text:00000000000001b0 .L0 
     /tmp/cc1Vjp2P.s:307    .text:00000000000001c0 .L0 
     /tmp/cc1Vjp2P.s:311    .text:00000000000001c4 .L0 
     /tmp/cc1Vjp2P.s:312    .text:00000000000001c4 .L0 
     /tmp/cc1Vjp2P.s:316    .text:00000000000001cc .L0 
     /tmp/cc1Vjp2P.s:317    .text:00000000000001cc .L0 
     /tmp/cc1Vjp2P.s:326    .text:00000000000001e4 .L0 
     /tmp/cc1Vjp2P.s:327    .text:00000000000001e4 .L0 
     /tmp/cc1Vjp2P.s:328    .text:00000000000001e4 .L0 
     /tmp/cc1Vjp2P.s:331    .text:00000000000001e8 .L0 
     /tmp/cc1Vjp2P.s:333    .text:00000000000001ec .L0 
     /tmp/cc1Vjp2P.s:337    .text:00000000000001f0 .L0 
     /tmp/cc1Vjp2P.s:338    .text:00000000000001f4 .L0 
     /tmp/cc1Vjp2P.s:340    .text:00000000000001f8 .L0 
     /tmp/cc1Vjp2P.s:341    .text:00000000000001f8 .L0 
     /tmp/cc1Vjp2P.s:343    .text:00000000000001fc .L0 
     /tmp/cc1Vjp2P.s:345    .text:0000000000000200 .L0 
     /tmp/cc1Vjp2P.s:347    .text:0000000000000204 .L0 
     /tmp/cc1Vjp2P.s:353    .text:0000000000000204 .L0 
     /tmp/cc1Vjp2P.s:217    .rodata.str1.8:0000000000000000 .LC0
     /tmp/cc1Vjp2P.s:240    .text:000000000000013c .L0 
     /tmp/cc1Vjp2P.s:44     .text:0000000000000030 .L1
     /tmp/cc1Vjp2P.s:27     .text:0000000000000018 .L3
     /tmp/cc1Vjp2P.s:126    .text:00000000000000ac .L6
     /tmp/cc1Vjp2P.s:123    .text:00000000000000a8 .L8
     /tmp/cc1Vjp2P.s:93     .text:0000000000000070 .L7
     /tmp/cc1Vjp2P.s:203    .text:000000000000011c .L11
     /tmp/cc1Vjp2P.s:177    .text:00000000000000ec .L12
     /tmp/cc1Vjp2P.s:256    .text:0000000000000164 .L15
     /tmp/cc1Vjp2P.s:324    .text:00000000000001e4 .L22
     /tmp/cc1Vjp2P.s:269    .text:0000000000000170 .L17
     /tmp/cc1Vjp2P.s:309    .text:00000000000001c4 .L20
     /tmp/cc1Vjp2P.s:335    .text:00000000000001f0 .L14
     /tmp/cc1Vjp2P.s:264    .text:000000000000016c .L16
     /tmp/cc1Vjp2P.s:719    .debug_abbrev:0000000000000000 .Ldebug_abbrev0
     /tmp/cc1Vjp2P.s:1363   .debug_str:000000000000010b .LASF35
     /tmp/cc1Vjp2P.s:1335   .debug_str:000000000000003f .LASF36
     /tmp/cc1Vjp2P.s:1375   .debug_str:00000000000001fb .LASF37
     /tmp/cc1Vjp2P.s:5      .text:0000000000000000 .Ltext0
     /tmp/cc1Vjp2P.s:350    .text:0000000000000204 .Letext0
     /tmp/cc1Vjp2P.s:1323   .debug_line:0000000000000000 .Ldebug_line0
     /tmp/cc1Vjp2P.s:1369   .debug_str:00000000000001d9 .LASF0
     /tmp/cc1Vjp2P.s:1365   .debug_str:00000000000001cf .LASF3
     /tmp/cc1Vjp2P.s:1355   .debug_str:00000000000000c7 .LASF1
     /tmp/cc1Vjp2P.s:1347   .debug_str:000000000000009b .LASF2
GAS LISTING /tmp/cc1Vjp2P.s 			page 12


     /tmp/cc1Vjp2P.s:1337   .debug_str:0000000000000050 .LASF4
     /tmp/cc1Vjp2P.s:1361   .debug_str:00000000000000f9 .LASF5
     /tmp/cc1Vjp2P.s:1327   .debug_str:0000000000000007 .LASF6
     /tmp/cc1Vjp2P.s:1393   .debug_str:000000000000027d .LASF7
     /tmp/cc1Vjp2P.s:1343   .debug_str:0000000000000079 .LASF8
     /tmp/cc1Vjp2P.s:1373   .debug_str:00000000000001eb .LASF9
     /tmp/cc1Vjp2P.s:1341   .debug_str:000000000000006b .LASF10
     /tmp/cc1Vjp2P.s:1399   .debug_str:00000000000002a1 .LASF11
     /tmp/cc1Vjp2P.s:1345   .debug_str:000000000000008c .LASF12
     /tmp/cc1Vjp2P.s:1387   .debug_str:0000000000000257 .LASF13
     /tmp/cc1Vjp2P.s:1379   .debug_str:000000000000022b .LASF14
     /tmp/cc1Vjp2P.s:1351   .debug_str:00000000000000ae .LASF15
     /tmp/cc1Vjp2P.s:1333   .debug_str:0000000000000029 .LASF16
     /tmp/cc1Vjp2P.s:1359   .debug_str:00000000000000e3 .LASF17
     /tmp/cc1Vjp2P.s:1385   .debug_str:0000000000000252 .LASF18
     /tmp/cc1Vjp2P.s:1397   .debug_str:0000000000000297 .LASF26
     /tmp/cc1Vjp2P.s:1329   .debug_str:000000000000000e .LASF28
     /tmp/cc1Vjp2P.s:224    .text:0000000000000128 .LFB49
     /tmp/cc1Vjp2P.s:348    .text:0000000000000204 .LFE49
     /tmp/cc1Vjp2P.s:1058   .debug_loc:0000000000000000 .LLST8
     /tmp/cc1Vjp2P.s:1367   .debug_str:00000000000001d4 .LASF19
     /tmp/cc1Vjp2P.s:1083   .debug_loc:0000000000000062 .LLST9
     /tmp/cc1Vjp2P.s:1108   .debug_loc:00000000000000c4 .LLST10
     /tmp/cc1Vjp2P.s:1325   .debug_str:0000000000000000 .LASF20
     /tmp/cc1Vjp2P.s:1133   .debug_loc:0000000000000126 .LLST11
     /tmp/cc1Vjp2P.s:1155   .debug_loc:0000000000000185 .LLST12
     /tmp/cc1Vjp2P.s:1172   .debug_loc:00000000000001d0 .LLST13
     /tmp/cc1Vjp2P.s:321    .text:00000000000001e0 .LVL30
     /tmp/cc1Vjp2P.s:1371   .debug_str:00000000000001e6 .LASF21
     /tmp/cc1Vjp2P.s:1389   .debug_str:0000000000000267 .LASF22
     /tmp/cc1Vjp2P.s:1377   .debug_str:0000000000000217 .LASF24
     /tmp/cc1Vjp2P.s:160    .text:00000000000000d8 .LFB48
     /tmp/cc1Vjp2P.s:213    .text:0000000000000128 .LFE48
     /tmp/cc1Vjp2P.s:1202   .debug_loc:0000000000000228 .LLST6
     /tmp/cc1Vjp2P.s:1213   .debug_loc:000000000000025e .LLST7
     /tmp/cc1Vjp2P.s:1331   .debug_str:000000000000001e .LASF23
     /tmp/cc1Vjp2P.s:1381   .debug_str:000000000000023b .LASF25
     /tmp/cc1Vjp2P.s:64     .text:0000000000000044 .LFB47
     /tmp/cc1Vjp2P.s:154    .text:00000000000000d8 .LFE47
     /tmp/cc1Vjp2P.s:1235   .debug_loc:00000000000002bd .LLST1
     /tmp/cc1Vjp2P.s:1250   .debug_loc:0000000000000306 .LLST2
     /tmp/cc1Vjp2P.s:1264   .debug_loc:000000000000033f .LLST3
     /tmp/cc1Vjp2P.s:1280   .debug_loc:0000000000000389 .LLST4
     /tmp/cc1Vjp2P.s:1292   .debug_loc:00000000000003b1 .LLST5
     /tmp/cc1Vjp2P.s:104    .text:0000000000000084 .LVL9
     /tmp/cc1Vjp2P.s:1353   .debug_str:00000000000000ba .LASF27
     /tmp/cc1Vjp2P.s:1339   .debug_str:0000000000000057 .LASF29
     /tmp/cc1Vjp2P.s:10     .text:0000000000000000 .LFB46
     /tmp/cc1Vjp2P.s:58     .text:0000000000000044 .LFE46
     /tmp/cc1Vjp2P.s:1395   .debug_str:0000000000000290 .LASF30
     /tmp/cc1Vjp2P.s:1299   .debug_loc:00000000000003d4 .LLST0
     /tmp/cc1Vjp2P.s:37     .text:0000000000000028 .LVL2
     /tmp/cc1Vjp2P.s:1357   .debug_str:00000000000000da .LASF31
     /tmp/cc1Vjp2P.s:1383   .debug_str:000000000000024d .LASF33
     /tmp/cc1Vjp2P.s:1391   .debug_str:0000000000000274 .LASF32
     /tmp/cc1Vjp2P.s:1349   .debug_str:00000000000000a9 .LASF34
     /tmp/cc1Vjp2P.s:227    .text:0000000000000128 .LVL20
GAS LISTING /tmp/cc1Vjp2P.s 			page 13


     /tmp/cc1Vjp2P.s:263    .text:000000000000016c .LVL23
     /tmp/cc1Vjp2P.s:323    .text:00000000000001e4 .LVL31
     /tmp/cc1Vjp2P.s:329    .text:00000000000001e8 .LVL32
     /tmp/cc1Vjp2P.s:308    .text:00000000000001c4 .LVL28
     /tmp/cc1Vjp2P.s:334    .text:00000000000001f0 .LVL33
     /tmp/cc1Vjp2P.s:268    .text:0000000000000170 .LVL24
     /tmp/cc1Vjp2P.s:279    .text:0000000000000180 .LVL25
     /tmp/cc1Vjp2P.s:300    .text:00000000000001b0 .LVL27
     /tmp/cc1Vjp2P.s:313    .text:00000000000001c8 .LVL29
     /tmp/cc1Vjp2P.s:251    .text:000000000000015c .LVL21
     /tmp/cc1Vjp2P.s:260    .text:0000000000000168 .LVL22
     /tmp/cc1Vjp2P.s:294    .text:00000000000001a8 .LVL26
     /tmp/cc1Vjp2P.s:163    .text:00000000000000d8 .LVL14
     /tmp/cc1Vjp2P.s:176    .text:00000000000000ec .LVL16
     /tmp/cc1Vjp2P.s:173    .text:00000000000000e8 .LVL15
     /tmp/cc1Vjp2P.s:199    .text:0000000000000118 .LVL18
     /tmp/cc1Vjp2P.s:202    .text:000000000000011c .LVL19
     /tmp/cc1Vjp2P.s:67     .text:0000000000000044 .LVL5
     /tmp/cc1Vjp2P.s:92     .text:0000000000000070 .LVL7
     /tmp/cc1Vjp2P.s:147    .text:00000000000000cc .LVL13
     /tmp/cc1Vjp2P.s:89     .text:000000000000006c .LVL6
     /tmp/cc1Vjp2P.s:98     .text:0000000000000078 .LVL8
     /tmp/cc1Vjp2P.s:125    .text:00000000000000ac .LVL11
     /tmp/cc1Vjp2P.s:130    .text:00000000000000b0 .LVL12
     /tmp/cc1Vjp2P.s:108    .text:0000000000000088 .LVL10
     /tmp/cc1Vjp2P.s:14     .text:0000000000000000 .LVL0
     /tmp/cc1Vjp2P.s:26     .text:0000000000000018 .LVL1
     /tmp/cc1Vjp2P.s:53     .text:000000000000003c .LVL4
     /tmp/cc1Vjp2P.s:354    .debug_info:0000000000000000 .Ldebug_info0

UNDEFINED SYMBOLS
_Z4putcc
_Z4getcv
