GAS LISTING /tmp/ccUy6oTU.s 			page 1


   1              		.file	"semaphore.cpp"
   2              		.option pic
   3              		.option norelax
   4              		.text
   5              	.Ltext0:
   6              		.align	2
   7              		.globl	_ZN10KSemaphore7kwait_nEj
   9              	_ZN10KSemaphore7kwait_nEj:
  10              	.LFB41:
  11              		.file 1 "src/semaphore.cpp"
   1:src/semaphore.cpp **** #include "../h/semaphore.hpp"
   2:src/semaphore.cpp **** #include "../h/syscall_c.hpp"
   3:src/semaphore.cpp **** #include "../h/list.hpp"
   4:src/semaphore.cpp **** 
   5:src/semaphore.cpp **** int KSemaphore::kwait_n(unsigned n) { //lock/unlock unnecesary because with ecall we blocked interr
  12              		.loc 1 5 37
  13              		.cfi_startproc
  14              	.LVL0:
   6:src/semaphore.cpp ****     if (closed) {
  15              		.loc 1 6 5
  16              		.loc 1 6 9 is_stmt 0
  17 0000 83470500 		lbu	a5,0(a0)
  18              		.loc 1 6 5
  19 0004 639C070E 		bnez	a5,.L6
   5:src/semaphore.cpp ****     if (closed) {
  20              		.loc 1 5 37
  21 0008 130101FD 		addi	sp,sp,-48
  22              		.cfi_def_cfa_offset 48
  23 000c 23341102 		sd	ra,40(sp)
  24 0010 23308102 		sd	s0,32(sp)
  25 0014 233C9100 		sd	s1,24(sp)
  26 0018 23382101 		sd	s2,16(sp)
  27 001c 23343101 		sd	s3,8(sp)
  28 0020 23304101 		sd	s4,0(sp)
  29              		.cfi_offset 1, -8
  30              		.cfi_offset 8, -16
  31              		.cfi_offset 9, -24
  32              		.cfi_offset 18, -32
  33              		.cfi_offset 19, -40
  34              		.cfi_offset 20, -48
  35 0024 13040103 		addi	s0,sp,48
  36              		.cfi_def_cfa 8, 0
  37 0028 93040500 		mv	s1,a0
  38 002c 13890500 		mv	s2,a1
   7:src/semaphore.cpp ****         return -1;
   8:src/semaphore.cpp ****     }
   9:src/semaphore.cpp **** 
  10:src/semaphore.cpp ****     if (value >= n) { //value is never negative
  39              		.loc 1 10 5 is_stmt 1
  40              		.loc 1 10 9 is_stmt 0
  41 0030 83254500 		lw	a1,4(a0)
  42              	.LVL1:
  43              		.loc 1 10 5
  44 0034 63E82503 		bltu	a1,s2,.L3
  11:src/semaphore.cpp ****         value -= n;
  45              		.loc 1 11 9 is_stmt 1
  46              		.loc 1 11 15 is_stmt 0
GAS LISTING /tmp/ccUy6oTU.s 			page 2


  47 0038 BB852541 		subw	a1,a1,s2
  48 003c 2322B500 		sw	a1,4(a0)
  12:src/semaphore.cpp ****         return 0;
  49              		.loc 1 12 9 is_stmt 1
  50              		.loc 1 12 16 is_stmt 0
  51 0040 13050000 		li	a0,0
  52              	.LVL2:
  53              	.L2:
  13:src/semaphore.cpp ****     }
  14:src/semaphore.cpp **** 
  15:src/semaphore.cpp ****     blocked.addLast(
  16:src/semaphore.cpp ****         new BlockedThreadInfo(TCB::running, n)
  17:src/semaphore.cpp ****     );
  18:src/semaphore.cpp **** 
  19:src/semaphore.cpp ****     TCB::running->setBlocked(true);
  20:src/semaphore.cpp ****     thread_dispatch();
  21:src/semaphore.cpp **** 
  22:src/semaphore.cpp ****     if (closed) {
  23:src/semaphore.cpp ****         return -1;
  24:src/semaphore.cpp ****     }
  25:src/semaphore.cpp **** 
  26:src/semaphore.cpp ****     return 0;
  27:src/semaphore.cpp **** }
  54              		.loc 1 27 1
  55 0044 83308102 		ld	ra,40(sp)
  56              		.cfi_remember_state
  57              		.cfi_restore 1
  58 0048 03340102 		ld	s0,32(sp)
  59              		.cfi_restore 8
  60              		.cfi_def_cfa 2, 48
  61 004c 83348101 		ld	s1,24(sp)
  62              		.cfi_restore 9
  63              	.LVL3:
  64 0050 03390101 		ld	s2,16(sp)
  65              		.cfi_restore 18
  66 0054 83398100 		ld	s3,8(sp)
  67              		.cfi_restore 19
  68 0058 033A0100 		ld	s4,0(sp)
  69              		.cfi_restore 20
  70 005c 13010103 		addi	sp,sp,48
  71              		.cfi_def_cfa_offset 0
  72 0060 67800000 		jr	ra
  73              	.LVL4:
  74              	.L3:
  75              		.cfi_restore_state
  15:src/semaphore.cpp ****         new BlockedThreadInfo(TCB::running, n)
  76              		.loc 1 15 5 is_stmt 1
  15:src/semaphore.cpp ****         new BlockedThreadInfo(TCB::running, n)
  77              		.loc 1 15 20 is_stmt 0
  78 0064 130A8500 		addi	s4,a0,8
  16:src/semaphore.cpp ****     );
  79              		.loc 1 16 46
  80 0068 13050001 		li	a0,16
  81 006c 97000000 		call	_Znwm@plt
  81      E7800000 
  82              	.LVL5:
  83 0074 93090500 		mv	s3,a0
GAS LISTING /tmp/ccUy6oTU.s 			page 3


  84 0078 97070000 		la	a5,_ZN3TCB7runningE
  84      83B70700 
  85 0080 83B70700 		ld	a5,0(a5)
  86              	.LVL6:
  87              	.LBB50:
  88              	.LBB51:
  89              		.file 2 "src/../h/semaphore.hpp"
   1:src/../h/semaphore.hpp **** #ifndef SemaphoreDef
   2:src/../h/semaphore.hpp **** #define SemaphoreDef
   3:src/../h/semaphore.hpp **** 
   4:src/../h/semaphore.hpp **** #include "list.hpp"
   5:src/../h/semaphore.hpp **** #include "tcb.hpp"
   6:src/../h/semaphore.hpp **** #include "memory_allocator.hpp"
   7:src/../h/semaphore.hpp **** 
   8:src/../h/semaphore.hpp **** class KSemaphore {
   9:src/../h/semaphore.hpp **** public:
  10:src/../h/semaphore.hpp ****     explicit KSemaphore(unsigned init = 1) {
  11:src/../h/semaphore.hpp ****         this->value = init;
  12:src/../h/semaphore.hpp ****         this->closed = false;
  13:src/../h/semaphore.hpp ****     }
  14:src/../h/semaphore.hpp **** 
  15:src/../h/semaphore.hpp ****     int kwait_n(unsigned n);
  16:src/../h/semaphore.hpp ****     int ksignal_n(unsigned n);
  17:src/../h/semaphore.hpp ****     static KSemaphore* createSemaphore(unsigned init = 1);
  18:src/../h/semaphore.hpp ****     unsigned getValue() const { return value; }
  19:src/../h/semaphore.hpp ****     int close();
  20:src/../h/semaphore.hpp **** 
  21:src/../h/semaphore.hpp ****     void* operator new(size_t size) {
  22:src/../h/semaphore.hpp ****         return MemoryAllocator::instance().kmem_alloc(size);
  23:src/../h/semaphore.hpp ****     }
  24:src/../h/semaphore.hpp ****     void* operator new[](size_t size) {
  25:src/../h/semaphore.hpp ****         return MemoryAllocator::instance().kmem_alloc(size);
  26:src/../h/semaphore.hpp ****     }
  27:src/../h/semaphore.hpp ****     
  28:src/../h/semaphore.hpp ****     void operator delete(void *ptr) {
  29:src/../h/semaphore.hpp ****         MemoryAllocator::instance().kmem_free(ptr);
  30:src/../h/semaphore.hpp ****     }
  31:src/../h/semaphore.hpp ****     void operator delete[](void *ptr) {
  32:src/../h/semaphore.hpp ****         MemoryAllocator::instance().kmem_free(ptr);
  33:src/../h/semaphore.hpp ****     }
  34:src/../h/semaphore.hpp **** 
  35:src/../h/semaphore.hpp **** private:
  36:src/../h/semaphore.hpp ****     class BlockedThreadInfo {
  37:src/../h/semaphore.hpp ****         TCB* thread; //pointer to blocked thread
  38:src/../h/semaphore.hpp ****         unsigned requested; //number of resources requested by the blocked thread (1 for wait, n fo
  39:src/../h/semaphore.hpp **** 
  40:src/../h/semaphore.hpp ****         BlockedThreadInfo(TCB* thread, unsigned requested) : thread(thread), requested(requested) {
  90              		.loc 2 40 97
  91 0084 2330F500 		sd	a5,0(a0)
  92 0088 23242501 		sw	s2,8(a0)
  93              	.LVL7:
  94              	.LBE51:
  95              	.LBE50:
  96              	.LBB52:
  97              	.LBB53:
  98              	.LBB54:
  99              	.LBB55:
GAS LISTING /tmp/ccUy6oTU.s 			page 4


 100              		.file 3 "src/../h/list.hpp"
   1:src/../h/list.hpp **** #ifndef OS1_VEZBE07_RISCV_CONTEXT_SWITCH_2_INTERRUPT_LIST_HPP
   2:src/../h/list.hpp **** #define OS1_VEZBE07_RISCV_CONTEXT_SWITCH_2_INTERRUPT_LIST_HPP
   3:src/../h/list.hpp **** 
   4:src/../h/list.hpp **** #include "memory_allocator.hpp"
   5:src/../h/list.hpp **** template<typename T>
   6:src/../h/list.hpp **** class List
   7:src/../h/list.hpp **** {
   8:src/../h/list.hpp **** private:
   9:src/../h/list.hpp ****     struct Elem
  10:src/../h/list.hpp ****     {
  11:src/../h/list.hpp ****         T *data;
  12:src/../h/list.hpp ****         Elem *next;
  13:src/../h/list.hpp **** 
  14:src/../h/list.hpp ****         Elem(T *data, Elem *next) : data(data), next(next) {}
  15:src/../h/list.hpp **** 
  16:src/../h/list.hpp ****         void* operator new(size_t size) {
  17:src/../h/list.hpp ****             return MemoryAllocator::instance().kmem_alloc(size);
 101              		.loc 3 17 46
 102 008c 97000000 		call	_ZN15MemoryAllocator8instanceEv@plt
 102      E7800000 
 103              	.LVL8:
 104              		.loc 3 17 58
 105 0094 93050001 		li	a1,16
 106 0098 97000000 		call	_ZN15MemoryAllocator10kmem_allocEm@plt
 106      E7800000 
 107              	.LVL9:
 108              	.LBE55:
 109              	.LBE54:
 110              	.LBB56:
 111              	.LBB57:
  14:src/../h/list.hpp **** 
 112              		.loc 3 14 58
 113 00a0 23303501 		sd	s3,0(a0)
 114 00a4 23340500 		sd	zero,8(a0)
 115              	.LVL10:
 116              	.LBE57:
 117              	.LBE56:
  18:src/../h/list.hpp ****         }
  19:src/../h/list.hpp ****         void* operator new[](size_t size) {
  20:src/../h/list.hpp ****             return MemoryAllocator::instance().kmem_alloc(size);
  21:src/../h/list.hpp ****         }
  22:src/../h/list.hpp ****         
  23:src/../h/list.hpp ****         void operator delete(void *ptr) {
  24:src/../h/list.hpp ****             MemoryAllocator::instance().kmem_free(ptr);
  25:src/../h/list.hpp ****         }
  26:src/../h/list.hpp ****         void operator delete[](void *ptr) {
  27:src/../h/list.hpp ****             MemoryAllocator::instance().kmem_free(ptr);
  28:src/../h/list.hpp ****         }
  29:src/../h/list.hpp ****     };
  30:src/../h/list.hpp **** 
  31:src/../h/list.hpp ****     Elem *head, *tail;
  32:src/../h/list.hpp ****     size_t size;
  33:src/../h/list.hpp **** 
  34:src/../h/list.hpp **** public:
  35:src/../h/list.hpp ****     List() : head(0), tail(0), size(0) {}
  36:src/../h/list.hpp **** 
GAS LISTING /tmp/ccUy6oTU.s 			page 5


  37:src/../h/list.hpp ****     List(const List<T> &) = delete;
  38:src/../h/list.hpp **** 
  39:src/../h/list.hpp ****     List<T> &operator=(const List<T> &) = delete;
  40:src/../h/list.hpp **** 
  41:src/../h/list.hpp ****     void addFirst(T *data)
  42:src/../h/list.hpp ****     {
  43:src/../h/list.hpp ****         Elem *elem = new Elem(data, head);
  44:src/../h/list.hpp ****         head = elem;
  45:src/../h/list.hpp ****         if (!tail) { tail = head; }
  46:src/../h/list.hpp ****         size++;
  47:src/../h/list.hpp ****     }
  48:src/../h/list.hpp **** 
  49:src/../h/list.hpp ****     void addLast(T *data)
  50:src/../h/list.hpp ****     {
  51:src/../h/list.hpp ****         Elem *elem = new Elem(data, 0);
  52:src/../h/list.hpp ****         if (tail)
 118              		.loc 3 52 13
 119 00a8 83378A00 		ld	a5,8(s4)
 120              		.loc 3 52 9
 121 00ac 63820704 		beqz	a5,.L4
  53:src/../h/list.hpp ****         {
  54:src/../h/list.hpp ****             tail->next = elem;
 122              		.loc 3 54 13
 123 00b0 23B4A700 		sd	a0,8(a5)
  55:src/../h/list.hpp ****             tail = elem;
 124              		.loc 3 55 13
 125 00b4 2334AA00 		sd	a0,8(s4)
 126              	.L5:
  56:src/../h/list.hpp ****         } else
  57:src/../h/list.hpp ****         {
  58:src/../h/list.hpp ****             head = tail = elem;
  59:src/../h/list.hpp ****         }
  60:src/../h/list.hpp ****         size++;
 127              		.loc 3 60 9
 128 00b8 83370A01 		ld	a5,16(s4)
 129 00bc 93871700 		addi	a5,a5,1
 130 00c0 2338FA00 		sd	a5,16(s4)
 131              	.LVL11:
 132              	.LBE53:
 133              	.LBE52:
  19:src/semaphore.cpp ****     thread_dispatch();
 134              		.loc 1 19 5 is_stmt 1
  19:src/semaphore.cpp ****     thread_dispatch();
 135              		.loc 1 19 29 is_stmt 0
 136 00c4 97070000 		la	a5,_ZN3TCB7runningE
 136      83B70700 
 137 00cc 83B70700 		ld	a5,0(a5)
 138              	.LVL12:
 139              	.LBB59:
 140              	.LBB60:
 141              		.file 4 "src/../h/tcb.hpp"
   1:src/../h/tcb.hpp **** #ifndef OS1_VEZBE07_RISCV_CONTEXT_SWITCH_2_INTERRUPT_TCB_HPP
   2:src/../h/tcb.hpp **** #define OS1_VEZBE07_RISCV_CONTEXT_SWITCH_2_INTERRUPT_TCB_HPP
   3:src/../h/tcb.hpp **** 
   4:src/../h/tcb.hpp **** #include "../lib/hw.h"
   5:src/../h/tcb.hpp **** #include "scheduler.hpp"
   6:src/../h/tcb.hpp **** 
GAS LISTING /tmp/ccUy6oTU.s 			page 6


   7:src/../h/tcb.hpp **** // Thread Control Block
   8:src/../h/tcb.hpp **** class TCB
   9:src/../h/tcb.hpp **** {
  10:src/../h/tcb.hpp **** public:
  11:src/../h/tcb.hpp ****     ~TCB() { delete[] stack; }
  12:src/../h/tcb.hpp **** 
  13:src/../h/tcb.hpp ****     bool isFinished() const { return finished; }
  14:src/../h/tcb.hpp **** 
  15:src/../h/tcb.hpp ****     void setFinished(bool value) { finished = value; }
  16:src/../h/tcb.hpp **** 
  17:src/../h/tcb.hpp ****     bool isBlocked() const { return this->blocked; }
  18:src/../h/tcb.hpp **** 
  19:src/../h/tcb.hpp ****     void setBlocked(bool value) { this->blocked = value; }
 142              		.loc 4 19 35 is_stmt 1
 143              		.loc 4 19 49 is_stmt 0
 144 00d0 13071000 		li	a4,1
 145 00d4 A380E702 		sb	a4,33(a5)
 146              	.LVL13:
 147              	.LBE60:
 148              	.LBE59:
  20:src/semaphore.cpp **** 
 149              		.loc 1 20 5 is_stmt 1
  20:src/semaphore.cpp **** 
 150              		.loc 1 20 20 is_stmt 0
 151 00d8 97000000 		call	_Z15thread_dispatchv@plt
 151      E7800000 
 152              	.LVL14:
  22:src/semaphore.cpp ****         return -1;
 153              		.loc 1 22 5 is_stmt 1
  22:src/semaphore.cpp ****         return -1;
 154              		.loc 1 22 9 is_stmt 0
 155 00e0 83C70400 		lbu	a5,0(s1)
  22:src/semaphore.cpp ****         return -1;
 156              		.loc 1 22 5
 157 00e4 63900702 		bnez	a5,.L7
  26:src/semaphore.cpp **** }
 158              		.loc 1 26 12
 159 00e8 13050000 		li	a0,0
 160 00ec 6FF09FF5 		j	.L2
 161              	.LVL15:
 162              	.L4:
 163              	.LBB61:
 164              	.LBB58:
  58:src/../h/list.hpp ****         }
 165              		.loc 3 58 13
 166 00f0 2334AA00 		sd	a0,8(s4)
 167 00f4 23B4A400 		sd	a0,8(s1)
 168 00f8 6FF01FFC 		j	.L5
 169              	.LVL16:
 170              	.L6:
 171              		.cfi_def_cfa_register 2
 172              		.cfi_restore 1
 173              		.cfi_restore 8
 174              		.cfi_restore 9
 175              		.cfi_restore 18
 176              		.cfi_restore 19
 177              		.cfi_restore 20
GAS LISTING /tmp/ccUy6oTU.s 			page 7


 178              	.LBE58:
 179              	.LBE61:
   7:src/semaphore.cpp ****     }
 180              		.loc 1 7 17
 181 00fc 1305F0FF 		li	a0,-1
 182              	.LVL17:
 183              		.loc 1 27 1
 184 0100 67800000 		ret
 185              	.LVL18:
 186              	.L7:
 187              		.cfi_def_cfa_register 8
 188              		.cfi_offset 1, -8
 189              		.cfi_offset 8, -16
 190              		.cfi_offset 9, -24
 191              		.cfi_offset 18, -32
 192              		.cfi_offset 19, -40
 193              		.cfi_offset 20, -48
  23:src/semaphore.cpp ****     }
 194              		.loc 1 23 17
 195 0104 1305F0FF 		li	a0,-1
 196 0108 6FF0DFF3 		j	.L2
 197              		.cfi_endproc
 198              	.LFE41:
 200              		.align	2
 201              		.globl	_ZN10KSemaphore9ksignal_nEj
 203              	_ZN10KSemaphore9ksignal_nEj:
 204              	.LFB42:
  28:src/semaphore.cpp **** 
  29:src/semaphore.cpp **** int KSemaphore::ksignal_n(unsigned n) {
 205              		.loc 1 29 39 is_stmt 1
 206              		.cfi_startproc
 207              	.LVL19:
  30:src/semaphore.cpp ****     if(this->closed) {
 208              		.loc 1 30 5
 209              		.loc 1 30 14 is_stmt 0
 210 010c 83470500 		lbu	a5,0(a0)
 211              		.loc 1 30 5
 212 0110 6398070C 		bnez	a5,.L18
  29:src/semaphore.cpp ****     if(this->closed) {
 213              		.loc 1 29 39
 214 0114 130101FD 		addi	sp,sp,-48
 215              		.cfi_def_cfa_offset 48
 216 0118 23341102 		sd	ra,40(sp)
 217 011c 23308102 		sd	s0,32(sp)
 218 0120 233C9100 		sd	s1,24(sp)
 219 0124 23382101 		sd	s2,16(sp)
 220 0128 23343101 		sd	s3,8(sp)
 221 012c 23304101 		sd	s4,0(sp)
 222              		.cfi_offset 1, -8
 223              		.cfi_offset 8, -16
 224              		.cfi_offset 9, -24
 225              		.cfi_offset 18, -32
 226              		.cfi_offset 19, -40
 227              		.cfi_offset 20, -48
 228 0130 13040103 		addi	s0,sp,48
 229              		.cfi_def_cfa 8, 0
 230 0134 93040500 		mv	s1,a0
GAS LISTING /tmp/ccUy6oTU.s 			page 8


  31:src/semaphore.cpp ****         return -1;
  32:src/semaphore.cpp ****     }
  33:src/semaphore.cpp **** 
  34:src/semaphore.cpp ****     this->value += n;
 231              		.loc 1 34 5 is_stmt 1
 232              		.loc 1 34 17 is_stmt 0
 233 0138 83274500 		lw	a5,4(a0)
 234 013c BB85B700 		addw	a1,a5,a1
 235              	.LVL20:
 236 0140 2322B500 		sw	a1,4(a0)
 237 0144 6F004004 		j	.L16
 238              	.LVL21:
 239              	.L28:
 240              	.LBB71:
 241              	.LBB72:
 242              	.LBB73:
  61:src/../h/list.hpp ****     }
  62:src/../h/list.hpp **** 
  63:src/../h/list.hpp ****     T *removeFirst()
  64:src/../h/list.hpp ****     {
  65:src/../h/list.hpp ****         if (!head) { return 0; }
  66:src/../h/list.hpp **** 
  67:src/../h/list.hpp ****         Elem *elem = head;
  68:src/../h/list.hpp ****         head = head->next;
  69:src/../h/list.hpp ****         if (!head) { tail = 0; }
 243              		.loc 3 69 22
 244 0148 23340A00 		sd	zero,8(s4)
 245              	.L15:
  70:src/../h/list.hpp **** 
  71:src/../h/list.hpp ****         T *ret = elem->data;
 246              		.loc 3 71 12
 247 014c 83390900 		ld	s3,0(s2)
 248              	.LVL22:
 249              	.LBB74:
 250              	.LBB75:
  24:src/../h/list.hpp ****         }
 251              		.loc 3 24 39
 252 0150 97000000 		call	_ZN15MemoryAllocator8instanceEv@plt
 252      E7800000 
 253              	.LVL23:
  24:src/../h/list.hpp ****         }
 254              		.loc 3 24 50
 255 0158 93050900 		mv	a1,s2
 256 015c 97000000 		call	_ZN15MemoryAllocator9kmem_freeEPv@plt
 256      E7800000 
 257              	.LVL24:
 258              	.LBE75:
 259              	.LBE74:
  72:src/../h/list.hpp ****         delete elem;
  73:src/../h/list.hpp ****         size--;
 260              		.loc 3 73 9
 261 0164 83370A01 		ld	a5,16(s4)
 262 0168 9387F7FF 		addi	a5,a5,-1
 263 016c 2338FA00 		sd	a5,16(s4)
 264              	.LVL25:
 265              	.L14:
 266              	.LBE73:
GAS LISTING /tmp/ccUy6oTU.s 			page 9


 267              	.LBE72:
  35:src/semaphore.cpp **** 
  36:src/semaphore.cpp ****     while (this->blocked.peekFirst()) {
  37:src/semaphore.cpp ****         BlockedThreadInfo* bti = this->blocked.peekFirst(); //FIFO - unlock threads in the order th
  38:src/semaphore.cpp ****         if (bti->requested <= this->value) {
  39:src/semaphore.cpp ****             this->value -= bti->requested;
  40:src/semaphore.cpp ****             bti = this->blocked.removeFirst();
  41:src/semaphore.cpp ****             bti->thread->setBlocked(false);
 268              		.loc 1 41 13 is_stmt 1
 269              		.loc 1 41 18 is_stmt 0
 270 0170 83B70900 		ld	a5,0(s3)
 271              	.LVL26:
 272              	.LBB77:
 273              	.LBB78:
 274              		.loc 4 19 35 is_stmt 1
 275              		.loc 4 19 49 is_stmt 0
 276 0174 A3800702 		sb	zero,33(a5)
 277              	.LVL27:
 278              	.LBE78:
 279              	.LBE77:
  42:src/semaphore.cpp ****             Scheduler::put(bti->thread);
 280              		.loc 1 42 13 is_stmt 1
 281              		.loc 1 42 27 is_stmt 0
 282 0178 03B50900 		ld	a0,0(s3)
 283 017c 97000000 		call	_ZN9Scheduler3putEP3TCB@plt
 283      E7800000 
 284              	.LVL28:
  43:src/semaphore.cpp ****             delete bti;
 285              		.loc 1 43 13 is_stmt 1
 286              		.loc 1 43 23 is_stmt 0
 287 0184 63960904 		bnez	s3,.L27
 288              	.LVL29:
 289              	.L16:
 290              	.LBE71:
  36:src/semaphore.cpp ****         BlockedThreadInfo* bti = this->blocked.peekFirst(); //FIFO - unlock threads in the order th
 291              		.loc 1 36 5 is_stmt 1
  36:src/semaphore.cpp ****         BlockedThreadInfo* bti = this->blocked.peekFirst(); //FIFO - unlock threads in the order th
 292              		.loc 1 36 36
 293              	.LBB80:
 294              	.LBB81:
  74:src/../h/list.hpp ****         return ret;
  75:src/../h/list.hpp ****     }
  76:src/../h/list.hpp **** 
  77:src/../h/list.hpp ****     T *peekFirst()
  78:src/../h/list.hpp ****     {
  79:src/../h/list.hpp ****         if (!head) { return 0; }
 295              		.loc 3 79 14 is_stmt 0
 296 0188 83B78400 		ld	a5,8(s1)
 297              		.loc 3 79 9
 298 018c 638E0704 		beqz	a5,.L19
  80:src/../h/list.hpp ****         return head->data;
 299              		.loc 3 80 22
 300 0190 83B70700 		ld	a5,0(a5)
 301              	.LVL30:
 302              	.LBE81:
 303              	.LBE80:
  36:src/semaphore.cpp ****         BlockedThreadInfo* bti = this->blocked.peekFirst(); //FIFO - unlock threads in the order th
GAS LISTING /tmp/ccUy6oTU.s 			page 10


 304              		.loc 1 36 36
 305 0194 638C0706 		beqz	a5,.L20
 306              	.LBB82:
  37:src/semaphore.cpp ****         if (bti->requested <= this->value) {
 307              		.loc 1 37 9 is_stmt 1
 308              	.LVL31:
  38:src/semaphore.cpp ****             this->value -= bti->requested;
 309              		.loc 1 38 9
  38:src/semaphore.cpp ****             this->value -= bti->requested;
 310              		.loc 1 38 18 is_stmt 0
 311 0198 03A78700 		lw	a4,8(a5)
  38:src/semaphore.cpp ****             this->value -= bti->requested;
 312              		.loc 1 38 37
 313 019c 83A74400 		lw	a5,4(s1)
 314              	.LVL32:
  38:src/semaphore.cpp ****             this->value -= bti->requested;
 315              		.loc 1 38 9
 316 01a0 63EAE706 		bgtu	a4,a5,.L21
  39:src/semaphore.cpp ****             bti = this->blocked.removeFirst();
 317              		.loc 1 39 13 is_stmt 1
  39:src/semaphore.cpp ****             bti = this->blocked.removeFirst();
 318              		.loc 1 39 25 is_stmt 0
 319 01a4 BB87E740 		subw	a5,a5,a4
 320 01a8 23A2F400 		sw	a5,4(s1)
 321              	.LVL33:
  40:src/semaphore.cpp ****             bti->thread->setBlocked(false);
 322              		.loc 1 40 13 is_stmt 1
  40:src/semaphore.cpp ****             bti->thread->setBlocked(false);
 323              		.loc 1 40 44 is_stmt 0
 324 01ac 138A8400 		addi	s4,s1,8
 325              	.LVL34:
 326              	.LBB79:
 327              	.LBB76:
  65:src/../h/list.hpp **** 
 328              		.loc 3 65 14
 329 01b0 03B98400 		ld	s2,8(s1)
  65:src/../h/list.hpp **** 
 330              		.loc 3 65 9
 331 01b4 630A0900 		beqz	s2,.L22
 332              	.LVL35:
  68:src/../h/list.hpp ****         if (!head) { tail = 0; }
 333              		.loc 3 68 22
 334 01b8 83378900 		ld	a5,8(s2)
  68:src/../h/list.hpp ****         if (!head) { tail = 0; }
 335              		.loc 3 68 9
 336 01bc 23B4F400 		sd	a5,8(s1)
  69:src/../h/list.hpp **** 
 337              		.loc 3 69 9
 338 01c0 E39607F8 		bnez	a5,.L15
 339 01c4 6FF05FF8 		j	.L28
 340              	.LVL36:
 341              	.L22:
  65:src/../h/list.hpp **** 
 342              		.loc 3 65 29
 343 01c8 93090900 		mv	s3,s2
 344 01cc 6FF05FFA 		j	.L14
 345              	.LVL37:
GAS LISTING /tmp/ccUy6oTU.s 			page 11


 346              	.L27:
 347              	.LBE76:
 348              	.LBE79:
 349              		.loc 1 43 20 discriminator 1
 350 01d0 13850900 		mv	a0,s3
 351 01d4 97000000 		call	_ZdlPv@plt
 351      E7800000 
 352              	.LVL38:
 353 01dc 6FF0DFFA 		j	.L16
 354              	.LVL39:
 355              	.L18:
 356              		.cfi_def_cfa_register 2
 357              		.cfi_restore 1
 358              		.cfi_restore 8
 359              		.cfi_restore 9
 360              		.cfi_restore 18
 361              		.cfi_restore 19
 362              		.cfi_restore 20
 363              	.LBE82:
  31:src/semaphore.cpp ****     }
 364              		.loc 1 31 17
 365 01e0 1305F0FF 		li	a0,-1
 366              	.LVL40:
  44:src/semaphore.cpp ****         } else { 
  45:src/semaphore.cpp ****             //if first thread cant be unblocked, we dont unblock any other threads either
  46:src/semaphore.cpp ****             //starvation solved (resource-consuming threads wont wait indefinately)
  47:src/semaphore.cpp ****             //FIFO kept
  48:src/semaphore.cpp ****             break;
  49:src/semaphore.cpp ****         }
  50:src/semaphore.cpp ****     }
  51:src/semaphore.cpp **** 
  52:src/semaphore.cpp ****     return 0;
  53:src/semaphore.cpp **** }
 367              		.loc 1 53 1
 368 01e4 67800000 		ret
 369              	.LVL41:
 370              	.L19:
 371              		.cfi_def_cfa_register 8
 372              		.cfi_offset 1, -8
 373              		.cfi_offset 8, -16
 374              		.cfi_offset 9, -24
 375              		.cfi_offset 18, -32
 376              		.cfi_offset 19, -40
 377              		.cfi_offset 20, -48
  52:src/semaphore.cpp **** }
 378              		.loc 1 52 12
 379 01e8 13050000 		li	a0,0
 380              	.LVL42:
 381              	.L13:
 382              		.loc 1 53 1
 383 01ec 83308102 		ld	ra,40(sp)
 384              		.cfi_remember_state
 385              		.cfi_restore 1
 386 01f0 03340102 		ld	s0,32(sp)
 387              		.cfi_restore 8
 388              		.cfi_def_cfa 2, 48
 389 01f4 83348101 		ld	s1,24(sp)
GAS LISTING /tmp/ccUy6oTU.s 			page 12


 390              		.cfi_restore 9
 391              	.LVL43:
 392 01f8 03390101 		ld	s2,16(sp)
 393              		.cfi_restore 18
 394 01fc 83398100 		ld	s3,8(sp)
 395              		.cfi_restore 19
 396 0200 033A0100 		ld	s4,0(sp)
 397              		.cfi_restore 20
 398 0204 13010103 		addi	sp,sp,48
 399              		.cfi_def_cfa_offset 0
 400 0208 67800000 		jr	ra
 401              	.LVL44:
 402              	.L20:
 403              		.cfi_restore_state
  52:src/semaphore.cpp **** }
 404              		.loc 1 52 12
 405 020c 13050000 		li	a0,0
 406 0210 6FF0DFFD 		j	.L13
 407              	.LVL45:
 408              	.L21:
 409 0214 13050000 		li	a0,0
 410 0218 6FF05FFD 		j	.L13
 411              		.cfi_endproc
 412              	.LFE42:
 414              		.align	2
 415              		.globl	_ZN10KSemaphore15createSemaphoreEj
 417              	_ZN10KSemaphore15createSemaphoreEj:
 418              	.LFB43:
  54:src/semaphore.cpp **** 
  55:src/semaphore.cpp **** KSemaphore *KSemaphore::createSemaphore(unsigned int init) {
 419              		.loc 1 55 60 is_stmt 1
 420              		.cfi_startproc
 421              	.LVL46:
 422 021c 130101FE 		addi	sp,sp,-32
 423              		.cfi_def_cfa_offset 32
 424 0220 233C1100 		sd	ra,24(sp)
 425 0224 23388100 		sd	s0,16(sp)
 426 0228 23349100 		sd	s1,8(sp)
 427              		.cfi_offset 1, -8
 428              		.cfi_offset 8, -16
 429              		.cfi_offset 9, -24
 430 022c 13040102 		addi	s0,sp,32
 431              		.cfi_def_cfa 8, 0
 432 0230 93040500 		mv	s1,a0
  56:src/semaphore.cpp ****     return new KSemaphore(init);
 433              		.loc 1 56 5
 434              	.LVL47:
 435              	.LBB83:
 436              	.LBB84:
  22:src/../h/semaphore.hpp ****     }
 437              		.loc 2 22 9
  22:src/../h/semaphore.hpp ****     }
 438              		.loc 2 22 42 is_stmt 0
 439 0234 97000000 		call	_ZN15MemoryAllocator8instanceEv@plt
 439      E7800000 
 440              	.LVL48:
  22:src/../h/semaphore.hpp ****     }
GAS LISTING /tmp/ccUy6oTU.s 			page 13


 441              		.loc 2 22 54
 442 023c 93050002 		li	a1,32
 443 0240 97000000 		call	_ZN15MemoryAllocator10kmem_allocEm@plt
 443      E7800000 
 444              	.LVL49:
 445              	.LBE84:
 446              	.LBE83:
 447              	.LBB85:
 448              	.LBB86:
 449              	.LBB87:
 450              	.LBB88:
  35:src/../h/list.hpp **** 
 451              		.loc 3 35 38
 452 0248 23340500 		sd	zero,8(a0)
 453 024c 23380500 		sd	zero,16(a0)
 454 0250 233C0500 		sd	zero,24(a0)
 455              	.LVL50:
 456              	.LBE88:
 457              	.LBE87:
  11:src/../h/semaphore.hpp ****         this->closed = false;
 458              		.loc 2 11 9 is_stmt 1
  11:src/../h/semaphore.hpp ****         this->closed = false;
 459              		.loc 2 11 21 is_stmt 0
 460 0254 23229500 		sw	s1,4(a0)
  12:src/../h/semaphore.hpp ****     }
 461              		.loc 2 12 9 is_stmt 1
  12:src/../h/semaphore.hpp ****     }
 462              		.loc 2 12 22 is_stmt 0
 463 0258 23000500 		sb	zero,0(a0)
 464              	.LVL51:
 465              	.LBE86:
 466              	.LBE85:
  57:src/semaphore.cpp **** }
 467              		.loc 1 57 1
 468 025c 83308101 		ld	ra,24(sp)
 469              		.cfi_restore 1
 470 0260 03340101 		ld	s0,16(sp)
 471              		.cfi_restore 8
 472              		.cfi_def_cfa 2, 32
 473 0264 83348100 		ld	s1,8(sp)
 474              		.cfi_restore 9
 475 0268 13010102 		addi	sp,sp,32
 476              		.cfi_def_cfa_offset 0
 477 026c 67800000 		jr	ra
 478              		.cfi_endproc
 479              	.LFE43:
 481              		.align	2
 482              		.globl	_ZN10KSemaphore5closeEv
 484              	_ZN10KSemaphore5closeEv:
 485              	.LFB44:
  58:src/semaphore.cpp **** 
  59:src/semaphore.cpp **** int KSemaphore::close() {
 486              		.loc 1 59 25 is_stmt 1
 487              		.cfi_startproc
 488              	.LVL52:
  60:src/semaphore.cpp ****     if (closed) {
 489              		.loc 1 60 5
GAS LISTING /tmp/ccUy6oTU.s 			page 14


 490              		.loc 1 60 9 is_stmt 0
 491 0270 83470500 		lbu	a5,0(a0)
 492              		.loc 1 60 5
 493 0274 6392070A 		bnez	a5,.L36
  59:src/semaphore.cpp ****     if (closed) {
 494              		.loc 1 59 25
 495 0278 130101FD 		addi	sp,sp,-48
 496              		.cfi_def_cfa_offset 48
 497 027c 23341102 		sd	ra,40(sp)
 498 0280 23308102 		sd	s0,32(sp)
 499 0284 233C9100 		sd	s1,24(sp)
 500 0288 23382101 		sd	s2,16(sp)
 501 028c 23343101 		sd	s3,8(sp)
 502 0290 23304101 		sd	s4,0(sp)
 503              		.cfi_offset 1, -8
 504              		.cfi_offset 8, -16
 505              		.cfi_offset 9, -24
 506              		.cfi_offset 18, -32
 507              		.cfi_offset 19, -40
 508              		.cfi_offset 20, -48
 509 0294 13040103 		addi	s0,sp,48
 510              		.cfi_def_cfa 8, 0
 511 0298 93040500 		mv	s1,a0
  61:src/semaphore.cpp ****         return -1;
  62:src/semaphore.cpp ****     }
  63:src/semaphore.cpp ****     closed = true;
 512              		.loc 1 63 5 is_stmt 1
 513              		.loc 1 63 12 is_stmt 0
 514 029c 93071000 		li	a5,1
 515 02a0 2300F500 		sb	a5,0(a0)
 516 02a4 6F000004 		j	.L35
 517              	.LVL53:
 518              	.L44:
 519              	.LBB98:
 520              	.LBB99:
 521              	.LBB100:
  69:src/../h/list.hpp **** 
 522              		.loc 3 69 22
 523 02a8 23B40900 		sd	zero,8(s3)
 524              	.L34:
  71:src/../h/list.hpp ****         delete elem;
 525              		.loc 3 71 12
 526 02ac 033A0900 		ld	s4,0(s2)
 527              	.LVL54:
 528              	.LBB101:
 529              	.LBB102:
  24:src/../h/list.hpp ****         }
 530              		.loc 3 24 39
 531 02b0 97000000 		call	_ZN15MemoryAllocator8instanceEv@plt
 531      E7800000 
 532              	.LVL55:
  24:src/../h/list.hpp ****         }
 533              		.loc 3 24 50
 534 02b8 93050900 		mv	a1,s2
 535 02bc 97000000 		call	_ZN15MemoryAllocator9kmem_freeEPv@plt
 535      E7800000 
 536              	.LVL56:
GAS LISTING /tmp/ccUy6oTU.s 			page 15


 537              	.LBE102:
 538              	.LBE101:
  73:src/../h/list.hpp ****         return ret;
 539              		.loc 3 73 9
 540 02c4 83B70901 		ld	a5,16(s3)
 541 02c8 9387F7FF 		addi	a5,a5,-1
 542 02cc 23B8F900 		sd	a5,16(s3)
 543              	.LVL57:
 544              	.L33:
 545              	.LBE100:
 546              	.LBE99:
  64:src/semaphore.cpp **** 
  65:src/semaphore.cpp ****     while (this->blocked.peekFirst()) {
  66:src/semaphore.cpp ****         BlockedThreadInfo* bti = this->blocked.removeFirst();
  67:src/semaphore.cpp ****         bti->thread->setBlocked(false);
 547              		.loc 1 67 9 is_stmt 1
 548              		.loc 1 67 14 is_stmt 0
 549 02d0 83370A00 		ld	a5,0(s4)
 550              	.LVL58:
 551              	.LBB104:
 552              	.LBB105:
 553              		.loc 4 19 35 is_stmt 1
 554              		.loc 4 19 49 is_stmt 0
 555 02d4 A3800702 		sb	zero,33(a5)
 556              	.LVL59:
 557              	.LBE105:
 558              	.LBE104:
  68:src/semaphore.cpp ****         Scheduler::put(bti->thread);
 559              		.loc 1 68 9 is_stmt 1
 560              		.loc 1 68 23 is_stmt 0
 561 02d8 03350A00 		ld	a0,0(s4)
 562 02dc 97000000 		call	_ZN9Scheduler3putEP3TCB@plt
 562      E7800000 
 563              	.LVL60:
 564              	.L35:
 565              	.LBE98:
  65:src/semaphore.cpp ****         BlockedThreadInfo* bti = this->blocked.removeFirst();
 566              		.loc 1 65 5 is_stmt 1
  65:src/semaphore.cpp ****         BlockedThreadInfo* bti = this->blocked.removeFirst();
 567              		.loc 1 65 36
 568              	.LBB107:
 569              	.LBB108:
  79:src/../h/list.hpp ****         return head->data;
 570              		.loc 3 79 14 is_stmt 0
 571 02e4 83B78400 		ld	a5,8(s1)
  79:src/../h/list.hpp ****         return head->data;
 572              		.loc 3 79 9
 573 02e8 638C0702 		beqz	a5,.L37
 574              		.loc 3 80 22
 575 02ec 83B70700 		ld	a5,0(a5)
 576              	.LVL61:
 577              	.LBE108:
 578              	.LBE107:
  65:src/semaphore.cpp ****         BlockedThreadInfo* bti = this->blocked.removeFirst();
 579              		.loc 1 65 36
 580 02f0 638A0704 		beqz	a5,.L38
 581              	.LBB109:
GAS LISTING /tmp/ccUy6oTU.s 			page 16


  66:src/semaphore.cpp ****         bti->thread->setBlocked(false);
 582              		.loc 1 66 9 is_stmt 1
  66:src/semaphore.cpp ****         bti->thread->setBlocked(false);
 583              		.loc 1 66 59 is_stmt 0
 584 02f4 93898400 		addi	s3,s1,8
 585              	.LVL62:
 586              	.LBB106:
 587              	.LBB103:
  65:src/../h/list.hpp **** 
 588              		.loc 3 65 14
 589 02f8 03B98400 		ld	s2,8(s1)
  65:src/../h/list.hpp **** 
 590              		.loc 3 65 9
 591 02fc 630A0900 		beqz	s2,.L39
 592              	.LVL63:
  68:src/../h/list.hpp ****         if (!head) { tail = 0; }
 593              		.loc 3 68 22
 594 0300 83378900 		ld	a5,8(s2)
  68:src/../h/list.hpp ****         if (!head) { tail = 0; }
 595              		.loc 3 68 9
 596 0304 23B4F400 		sd	a5,8(s1)
  69:src/../h/list.hpp **** 
 597              		.loc 3 69 9
 598 0308 E39207FA 		bnez	a5,.L34
 599 030c 6FF0DFF9 		j	.L44
 600              	.LVL64:
 601              	.L39:
  65:src/../h/list.hpp **** 
 602              		.loc 3 65 29
 603 0310 130A0900 		mv	s4,s2
 604 0314 6FF0DFFB 		j	.L33
 605              	.LVL65:
 606              	.L36:
 607              		.cfi_def_cfa_register 2
 608              		.cfi_restore 1
 609              		.cfi_restore 8
 610              		.cfi_restore 9
 611              		.cfi_restore 18
 612              		.cfi_restore 19
 613              		.cfi_restore 20
 614              	.LBE103:
 615              	.LBE106:
 616              	.LBE109:
  61:src/semaphore.cpp ****     }
 617              		.loc 1 61 17
 618 0318 1305F0FF 		li	a0,-1
 619              	.LVL66:
  69:src/semaphore.cpp ****     }
  70:src/semaphore.cpp ****     return 0;
  71:src/semaphore.cpp **** }...
 620              		.loc 1 71 1
 621 031c 67800000 		ret
 622              	.LVL67:
 623              	.L37:
 624              		.cfi_def_cfa_register 8
 625              		.cfi_offset 1, -8
 626              		.cfi_offset 8, -16
GAS LISTING /tmp/ccUy6oTU.s 			page 17


 627              		.cfi_offset 9, -24
 628              		.cfi_offset 18, -32
 629              		.cfi_offset 19, -40
 630              		.cfi_offset 20, -48
  70:src/semaphore.cpp ****     return 0;
 631              		.loc 1 70 12
 632 0320 13050000 		li	a0,0
 633              	.LVL68:
 634              	.L32:
 635              		.loc 1 71 1
 636 0324 83308102 		ld	ra,40(sp)
 637              		.cfi_remember_state
 638              		.cfi_restore 1
 639 0328 03340102 		ld	s0,32(sp)
 640              		.cfi_restore 8
 641              		.cfi_def_cfa 2, 48
 642 032c 83348101 		ld	s1,24(sp)
 643              		.cfi_restore 9
 644              	.LVL69:
 645 0330 03390101 		ld	s2,16(sp)
 646              		.cfi_restore 18
 647 0334 83398100 		ld	s3,8(sp)
 648              		.cfi_restore 19
 649 0338 033A0100 		ld	s4,0(sp)
 650              		.cfi_restore 20
 651 033c 13010103 		addi	sp,sp,48
 652              		.cfi_def_cfa_offset 0
 653 0340 67800000 		jr	ra
 654              	.LVL70:
 655              	.L38:
 656              		.cfi_restore_state
  70:src/semaphore.cpp ****     return 0;
 657              		.loc 1 70 12
 658 0344 13050000 		li	a0,0
 659 0348 6FF0DFFD 		j	.L32
 660              		.cfi_endproc
 661              	.LFE44:
 663              	.Letext0:
 664              		.file 5 "src/../h/../lib/hw.h"
 665              		.file 6 "src/../h/memory_allocator.hpp"
 666              		.file 7 "src/../h/scheduler.hpp"
 667              		.file 8 "src/../h/syscall_c.hpp"
GAS LISTING /tmp/ccUy6oTU.s 			page 18

