GAS LISTING /tmp/ccy5n7IV.s 			page 1


   1              		.file	"syscall_cpp.cpp"
   2              		.option pic
   3              		.option norelax
   4              		.text
   5              	.Ltext0:
   6              		.section	.text._ZN6Thread3runEv,"axG",@progbits,_ZN6Thread3runEv,comdat
   7              		.align	2
   8              		.weak	_ZN6Thread3runEv
  10              	_ZN6Thread3runEv:
  11              	.LFB41:
  12              		.file 1 "src/../h/syscall_cpp.hpp"
   1:src/../h/syscall_cpp.hpp **** #ifndef _syscall_cpp 
   2:src/../h/syscall_cpp.hpp **** #define _syscall_cpp 
   3:src/../h/syscall_cpp.hpp ****  
   4:src/../h/syscall_cpp.hpp **** #include "syscall_c.hpp" 
   5:src/../h/syscall_cpp.hpp ****  
   6:src/../h/syscall_cpp.hpp **** void* operator new (size_t); 
   7:src/../h/syscall_cpp.hpp **** void  operator delete (void*); 
   8:src/../h/syscall_cpp.hpp ****  
   9:src/../h/syscall_cpp.hpp **** class Thread { 
  10:src/../h/syscall_cpp.hpp **** public: 
  11:src/../h/syscall_cpp.hpp ****   Thread (void (*body)(void*), void* arg); 
  12:src/../h/syscall_cpp.hpp ****   virtual ~Thread (); 
  13:src/../h/syscall_cpp.hpp ****  
  14:src/../h/syscall_cpp.hpp ****   int start (); 
  15:src/../h/syscall_cpp.hpp ****  
  16:src/../h/syscall_cpp.hpp ****   static void dispatch (); 
  17:src/../h/syscall_cpp.hpp ****   static int sleep (time_t); 
  18:src/../h/syscall_cpp.hpp ****   static void wrapper(void*);
  19:src/../h/syscall_cpp.hpp ****  
  20:src/../h/syscall_cpp.hpp **** protected: 
  21:src/../h/syscall_cpp.hpp ****   Thread (); 
  22:src/../h/syscall_cpp.hpp ****   virtual void run () {} 
  13              		.loc 1 22 16
  14              		.cfi_startproc
  15              	.LVL0:
  16 0000 130101FF 		addi	sp,sp,-16
  17              		.cfi_def_cfa_offset 16
  18 0004 23348100 		sd	s0,8(sp)
  19              		.cfi_offset 8, -8
  20 0008 13040101 		addi	s0,sp,16
  21              		.cfi_def_cfa 8, 0
  22              		.loc 1 22 24 is_stmt 0
  23 000c 03348100 		ld	s0,8(sp)
  24              		.cfi_restore 8
  25              		.cfi_def_cfa 2, 16
  26 0010 13010101 		addi	sp,sp,16
  27              		.cfi_def_cfa_offset 0
  28 0014 67800000 		jr	ra
  29              		.cfi_endproc
  30              	.LFE41:
  32              		.section	.text._ZN14PeriodicThread18periodicActivationEv,"axG",@progbits,_ZN14PeriodicThread18peri
  33              		.align	2
  34              		.weak	_ZN14PeriodicThread18periodicActivationEv
  36              	_ZN14PeriodicThread18periodicActivationEv:
  37              	.LFB42:
  23:src/../h/syscall_cpp.hpp ****  
GAS LISTING /tmp/ccy5n7IV.s 			page 2


  24:src/../h/syscall_cpp.hpp **** private: 
  25:src/../h/syscall_cpp.hpp ****   thread_t myHandle; 
  26:src/../h/syscall_cpp.hpp ****   void (*body)(void*); void* arg; 
  27:src/../h/syscall_cpp.hpp **** }; 
  28:src/../h/syscall_cpp.hpp ****  
  29:src/../h/syscall_cpp.hpp ****  
  30:src/../h/syscall_cpp.hpp **** class Semaphore { 
  31:src/../h/syscall_cpp.hpp **** public: 
  32:src/../h/syscall_cpp.hpp ****  
  33:src/../h/syscall_cpp.hpp ****   Semaphore (unsigned init = 1); 
  34:src/../h/syscall_cpp.hpp ****   virtual ~Semaphore (); 
  35:src/../h/syscall_cpp.hpp ****  
  36:src/../h/syscall_cpp.hpp ****   int wait (); 
  37:src/../h/syscall_cpp.hpp ****   int signal (); 
  38:src/../h/syscall_cpp.hpp ****  
  39:src/../h/syscall_cpp.hpp **** private: 
  40:src/../h/syscall_cpp.hpp ****   sem_t myHandle; 
  41:src/../h/syscall_cpp.hpp ****  
  42:src/../h/syscall_cpp.hpp **** }; 
  43:src/../h/syscall_cpp.hpp ****  
  44:src/../h/syscall_cpp.hpp ****  
  45:src/../h/syscall_cpp.hpp **** class PeriodicThread : public Thread { 
  46:src/../h/syscall_cpp.hpp **** public: 
  47:src/../h/syscall_cpp.hpp ****   void terminate ();
  48:src/../h/syscall_cpp.hpp ****  
  49:src/../h/syscall_cpp.hpp **** protected: 
  50:src/../h/syscall_cpp.hpp ****   PeriodicThread (time_t period); 
  51:src/../h/syscall_cpp.hpp ****   virtual void periodicActivation () {} 
  38              		.loc 1 51 16 is_stmt 1
  39              		.cfi_startproc
  40              	.LVL1:
  41 0000 130101FF 		addi	sp,sp,-16
  42              		.cfi_def_cfa_offset 16
  43 0004 23348100 		sd	s0,8(sp)
  44              		.cfi_offset 8, -8
  45 0008 13040101 		addi	s0,sp,16
  46              		.cfi_def_cfa 8, 0
  47              		.loc 1 51 39 is_stmt 0
  48 000c 03348100 		ld	s0,8(sp)
  49              		.cfi_restore 8
  50              		.cfi_def_cfa 2, 16
  51 0010 13010101 		addi	sp,sp,16
  52              		.cfi_def_cfa_offset 0
  53 0014 67800000 		jr	ra
  54              		.cfi_endproc
  55              	.LFE42:
  57              		.text
  58              		.align	2
  60              	_Z41__static_initialization_and_destruction_0ii:
  61              	.LFB92:
  62              		.file 2 "src/syscall_cpp.cpp"
   1:src/syscall_cpp.cpp **** 
   2:src/syscall_cpp.cpp **** #include "../h/syscall_c.hpp"
   3:src/syscall_cpp.cpp **** #include "../h/syscall_cpp.hpp"
   4:src/syscall_cpp.cpp **** 
   5:src/syscall_cpp.cpp **** //SEMAPHORE
   6:src/syscall_cpp.cpp **** Semaphore::Semaphore(unsigned int init) {
GAS LISTING /tmp/ccy5n7IV.s 			page 3


   7:src/syscall_cpp.cpp ****     sem_open(&this->myHandle, init);
   8:src/syscall_cpp.cpp **** }
   9:src/syscall_cpp.cpp **** 
  10:src/syscall_cpp.cpp **** Semaphore::~Semaphore() {
  11:src/syscall_cpp.cpp ****     sem_close(this->myHandle);
  12:src/syscall_cpp.cpp **** }
  13:src/syscall_cpp.cpp **** 
  14:src/syscall_cpp.cpp **** int Semaphore::wait() {
  15:src/syscall_cpp.cpp ****     return sem_wait(this->myHandle);
  16:src/syscall_cpp.cpp **** }
  17:src/syscall_cpp.cpp **** 
  18:src/syscall_cpp.cpp **** int Semaphore::signal() {
  19:src/syscall_cpp.cpp ****     return sem_signal(this->myHandle);
  20:src/syscall_cpp.cpp **** }
  21:src/syscall_cpp.cpp **** 
  22:src/syscall_cpp.cpp **** //THREAD
  23:src/syscall_cpp.cpp **** void Thread::dispatch() {
  24:src/syscall_cpp.cpp ****     thread_dispatch();
  25:src/syscall_cpp.cpp **** }
  26:src/syscall_cpp.cpp **** 
  27:src/syscall_cpp.cpp **** Thread::Thread(void (*body)(void *), void *arg) {
  28:src/syscall_cpp.cpp ****     this->body = body;
  29:src/syscall_cpp.cpp ****     this->arg = arg;
  30:src/syscall_cpp.cpp ****     myHandle = nullptr;
  31:src/syscall_cpp.cpp **** }
  32:src/syscall_cpp.cpp **** 
  33:src/syscall_cpp.cpp **** Thread::~Thread() {
  34:src/syscall_cpp.cpp ****     delete this->myHandle;
  35:src/syscall_cpp.cpp **** }
  36:src/syscall_cpp.cpp **** 
  37:src/syscall_cpp.cpp **** int Thread::start() {
  38:src/syscall_cpp.cpp ****     return thread_create(&this->myHandle, body, arg);
  39:src/syscall_cpp.cpp **** }
  40:src/syscall_cpp.cpp **** 
  41:src/syscall_cpp.cpp **** Thread::Thread() {
  42:src/syscall_cpp.cpp ****     this->body = Thread::wrapper;
  43:src/syscall_cpp.cpp ****     this->arg = this;
  44:src/syscall_cpp.cpp ****     myHandle = nullptr;
  45:src/syscall_cpp.cpp **** }
  46:src/syscall_cpp.cpp **** 
  47:src/syscall_cpp.cpp **** void Thread::wrapper(void *thread) {
  48:src/syscall_cpp.cpp ****     ((Thread *) thread)->run();
  49:src/syscall_cpp.cpp ****     thread_exit();
  50:src/syscall_cpp.cpp **** }
  51:src/syscall_cpp.cpp **** 
  52:src/syscall_cpp.cpp **** int Thread::sleep(time_t time) {
  53:src/syscall_cpp.cpp ****     return time_sleep(time);
  54:src/syscall_cpp.cpp **** }
  55:src/syscall_cpp.cpp **** 
  56:src/syscall_cpp.cpp **** //CONSOLE
  57:src/syscall_cpp.cpp **** void Console::putc(char c) {
  58:src/syscall_cpp.cpp ****     ::putc(c);
  59:src/syscall_cpp.cpp **** }
  60:src/syscall_cpp.cpp **** 
  61:src/syscall_cpp.cpp **** char Console::getc() {
  62:src/syscall_cpp.cpp ****     return ::getc();
  63:src/syscall_cpp.cpp **** }
GAS LISTING /tmp/ccy5n7IV.s 			page 4


  64:src/syscall_cpp.cpp **** 
  65:src/syscall_cpp.cpp **** //PERIODIC THREAD
  66:src/syscall_cpp.cpp **** List<PeriodicThread> PeriodicThread::createdThreads;
  67:src/syscall_cpp.cpp **** 
  68:src/syscall_cpp.cpp **** PeriodicThread::PeriodicThread(time_t period)
  69:src/syscall_cpp.cpp ****     : Thread(), period(period), terminated(false)
  70:src/syscall_cpp.cpp **** {
  71:src/syscall_cpp.cpp ****     createdThreads.addLast(this);
  72:src/syscall_cpp.cpp **** }
  73:src/syscall_cpp.cpp **** 
  74:src/syscall_cpp.cpp **** void PeriodicThread::terminate() {
  75:src/syscall_cpp.cpp ****     terminated = true;
  76:src/syscall_cpp.cpp **** }
  77:src/syscall_cpp.cpp **** 
  78:src/syscall_cpp.cpp **** void PeriodicThread::run() {
  79:src/syscall_cpp.cpp ****     while (!terminated) {
  80:src/syscall_cpp.cpp ****         periodicActivation();
  81:src/syscall_cpp.cpp ****         Thread::sleep(period);
  82:src/syscall_cpp.cpp ****     }
  83:src/syscall_cpp.cpp **** }...
  63              		.loc 2 83 1 is_stmt 1
  64              		.cfi_startproc
  65              	.LVL2:
  66 0000 130101FF 		addi	sp,sp,-16
  67              		.cfi_def_cfa_offset 16
  68 0004 23348100 		sd	s0,8(sp)
  69              		.cfi_offset 8, -8
  70 0008 13040101 		addi	s0,sp,16
  71              		.cfi_def_cfa 8, 0
  72              		.loc 2 83 1 is_stmt 0
  73 000c 93071000 		li	a5,1
  74 0010 6308F500 		beq	a0,a5,.L8
  75              	.L5:
  76 0014 03348100 		ld	s0,8(sp)
  77              		.cfi_remember_state
  78              		.cfi_restore 8
  79              		.cfi_def_cfa 2, 16
  80 0018 13010101 		addi	sp,sp,16
  81              		.cfi_def_cfa_offset 0
  82 001c 67800000 		jr	ra
  83              	.L8:
  84              		.cfi_restore_state
  85              		.loc 2 83 1 discriminator 1
  86 0020 B7070100 		li	a5,65536
  87 0024 9387F7FF 		addi	a5,a5,-1
  88 0028 E396F5FE 		bne	a1,a5,.L5
  89              	.LVL3:
  90              	.LBB19:
  91              	.LBB20:
  92              	.LBB21:
  93              		.file 3 "src/../h/list.hpp"
   1:src/../h/list.hpp **** #ifndef OS1_VEZBE07_RISCV_CONTEXT_SWITCH_2_INTERRUPT_LIST_HPP
   2:src/../h/list.hpp **** #define OS1_VEZBE07_RISCV_CONTEXT_SWITCH_2_INTERRUPT_LIST_HPP
   3:src/../h/list.hpp **** 
   4:src/../h/list.hpp **** #include "memory_allocator.hpp"
   5:src/../h/list.hpp **** template<typename T>
   6:src/../h/list.hpp **** class List
GAS LISTING /tmp/ccy5n7IV.s 			page 5


   7:src/../h/list.hpp **** {
   8:src/../h/list.hpp **** private:
   9:src/../h/list.hpp ****     struct Elem
  10:src/../h/list.hpp ****     {
  11:src/../h/list.hpp ****         T *data;
  12:src/../h/list.hpp ****         Elem *next;
  13:src/../h/list.hpp **** 
  14:src/../h/list.hpp ****         Elem(T *data, Elem *next) : data(data), next(next) {}
  15:src/../h/list.hpp **** 
  16:src/../h/list.hpp ****         void* operator new(size_t size) {
  17:src/../h/list.hpp ****             return MemoryAllocator::instance().kmem_alloc(size);
  18:src/../h/list.hpp ****         }
  19:src/../h/list.hpp ****         void* operator new[](size_t size) {
  20:src/../h/list.hpp ****             return MemoryAllocator::instance().kmem_alloc(size);
  21:src/../h/list.hpp ****         }
  22:src/../h/list.hpp ****         
  23:src/../h/list.hpp ****         void operator delete(void *ptr) {
  24:src/../h/list.hpp ****             MemoryAllocator::instance().kmem_free(ptr);
  25:src/../h/list.hpp ****         }
  26:src/../h/list.hpp ****         void operator delete[](void *ptr) {
  27:src/../h/list.hpp ****             MemoryAllocator::instance().kmem_free(ptr);
  28:src/../h/list.hpp ****         }
  29:src/../h/list.hpp ****     };
  30:src/../h/list.hpp **** 
  31:src/../h/list.hpp ****     Elem *head, *tail;
  32:src/../h/list.hpp ****     size_t size;
  33:src/../h/list.hpp **** 
  34:src/../h/list.hpp **** public:
  35:src/../h/list.hpp ****     List() : head(0), tail(0), size(0) {}
  94              		.loc 3 35 38
  95 002c 97070000 		lla	a5,.LANCHOR0
  95      93870700 
  96 0034 23B00700 		sd	zero,0(a5)
  97 0038 23B40700 		sd	zero,8(a5)
  98 003c 23B80700 		sd	zero,16(a5)
  99              	.LVL4:
 100              	.LBE21:
 101              	.LBE20:
 102              	.LBE19:
 103              		.loc 2 83 1
 104 0040 6FF05FFD 		j	.L5
 105              		.cfi_endproc
 106              	.LFE92:
 108              		.align	2
 109              		.globl	_ZN9SemaphoreD2Ev
 111              	_ZN9SemaphoreD2Ev:
 112              	.LFB47:
  10:src/syscall_cpp.cpp **** Semaphore::~Semaphore() {
 113              		.loc 2 10 1 is_stmt 1
 114              		.cfi_startproc
 115              		.cfi_personality 0x9b,DW.ref.__gxx_personality_v0
 116              		.cfi_lsda 0x1b,.LLSDA47
 117              	.LVL5:
 118 0044 130101FF 		addi	sp,sp,-16
 119              		.cfi_def_cfa_offset 16
 120 0048 23341100 		sd	ra,8(sp)
 121 004c 23308100 		sd	s0,0(sp)
GAS LISTING /tmp/ccy5n7IV.s 			page 6


 122              		.cfi_offset 1, -8
 123              		.cfi_offset 8, -16
 124 0050 13040101 		addi	s0,sp,16
 125              		.cfi_def_cfa 8, 0
 126              	.LBB22:
  10:src/syscall_cpp.cpp **** Semaphore::~Semaphore() {
 127              		.loc 2 10 23 is_stmt 0
 128 0054 97070000 		lla	a5,_ZTV9Semaphore+16
 128      93870700 
 129 005c 2330F500 		sd	a5,0(a0)
  11:src/syscall_cpp.cpp ****     sem_close(this->myHandle);
 130              		.loc 2 11 5 is_stmt 1
  11:src/syscall_cpp.cpp ****     sem_close(this->myHandle);
 131              		.loc 2 11 14 is_stmt 0
 132 0060 03358500 		ld	a0,8(a0)
 133              	.LVL6:
 134 0064 97000000 		call	_Z9sem_closeP10KSemaphore@plt
 134      E7800000 
 135              	.LVL7:
 136              	.LBE22:
  12:src/syscall_cpp.cpp **** }
 137              		.loc 2 12 1
 138 006c 83308100 		ld	ra,8(sp)
 139              		.cfi_restore 1
 140 0070 03340100 		ld	s0,0(sp)
 141              		.cfi_restore 8
 142              		.cfi_def_cfa 2, 16
 143 0074 13010101 		addi	sp,sp,16
 144              		.cfi_def_cfa_offset 0
 145 0078 67800000 		jr	ra
 146              		.cfi_endproc
 147              	.LFE47:
 148              		.globl	__gxx_personality_v0
 149              		.section	.gcc_except_table,"a",@progbits
 150              	.LLSDA47:
 151 0000 FF       		.byte	0xff
 152 0001 FF       		.byte	0xff
 153 0002 03       		.byte	0x3
 154 0003 00       		.byte	0
 155              		.text
 157              		.globl	_ZN9SemaphoreD1Ev
 158              		.set	_ZN9SemaphoreD1Ev,_ZN9SemaphoreD2Ev
 159              		.align	2
 160              		.globl	_ZN9SemaphoreD0Ev
 162              	_ZN9SemaphoreD0Ev:
 163              	.LFB49:
  10:src/syscall_cpp.cpp **** Semaphore::~Semaphore() {
 164              		.loc 2 10 1 is_stmt 1
 165              		.cfi_startproc
 166              	.LVL8:
 167 007c 130101FE 		addi	sp,sp,-32
 168              		.cfi_def_cfa_offset 32
 169 0080 233C1100 		sd	ra,24(sp)
 170 0084 23388100 		sd	s0,16(sp)
 171 0088 23349100 		sd	s1,8(sp)
 172              		.cfi_offset 1, -8
 173              		.cfi_offset 8, -16
GAS LISTING /tmp/ccy5n7IV.s 			page 7


 174              		.cfi_offset 9, -24
 175 008c 13040102 		addi	s0,sp,32
 176              		.cfi_def_cfa 8, 0
 177 0090 93040500 		mv	s1,a0
  12:src/syscall_cpp.cpp **** }
 178              		.loc 2 12 1 is_stmt 0
 179 0094 97000000 		call	_ZN9SemaphoreD1Ev
 179      E7800000 
 180              	.LVL9:
 181 009c 13850400 		mv	a0,s1
 182 00a0 97000000 		call	_ZdlPv@plt
 182      E7800000 
 183              	.LVL10:
 184 00a8 83308101 		ld	ra,24(sp)
 185              		.cfi_restore 1
 186 00ac 03340101 		ld	s0,16(sp)
 187              		.cfi_restore 8
 188              		.cfi_def_cfa 2, 32
 189 00b0 83348100 		ld	s1,8(sp)
 190              		.cfi_restore 9
 191              	.LVL11:
 192 00b4 13010102 		addi	sp,sp,32
 193              		.cfi_def_cfa_offset 0
 194 00b8 67800000 		jr	ra
 195              		.cfi_endproc
 196              	.LFE49:
 198              		.align	2
 199              		.globl	_ZN6ThreadD2Ev
 201              	_ZN6ThreadD2Ev:
 202              	.LFB57:
  33:src/syscall_cpp.cpp **** Thread::~Thread() {
 203              		.loc 2 33 1 is_stmt 1
 204              		.cfi_startproc
 205              		.cfi_personality 0x9b,DW.ref.__gxx_personality_v0
 206              		.cfi_lsda 0x1b,.LLSDA57
 207              	.LVL12:
 208 00bc 130101FE 		addi	sp,sp,-32
 209              		.cfi_def_cfa_offset 32
 210 00c0 233C1100 		sd	ra,24(sp)
 211 00c4 23388100 		sd	s0,16(sp)
 212 00c8 23349100 		sd	s1,8(sp)
 213              		.cfi_offset 1, -8
 214              		.cfi_offset 8, -16
 215              		.cfi_offset 9, -24
 216 00cc 13040102 		addi	s0,sp,32
 217              		.cfi_def_cfa 8, 0
 218              	.LBB23:
  33:src/syscall_cpp.cpp **** Thread::~Thread() {
 219              		.loc 2 33 17 is_stmt 0
 220 00d0 97070000 		lla	a5,_ZTV6Thread+16
 220      93870700 
 221 00d8 2330F500 		sd	a5,0(a0)
  34:src/syscall_cpp.cpp ****     delete this->myHandle;
 222              		.loc 2 34 5 is_stmt 1
  34:src/syscall_cpp.cpp ****     delete this->myHandle;
 223              		.loc 2 34 18 is_stmt 0
 224 00dc 83348500 		ld	s1,8(a0)
GAS LISTING /tmp/ccy5n7IV.s 			page 8


  34:src/syscall_cpp.cpp ****     delete this->myHandle;
 225              		.loc 2 34 26
 226 00e0 63840402 		beqz	s1,.L13
 227              	.LVL13:
 228              	.LBB24:
 229              	.LBB25:
 230              		.file 4 "src/../h/tcb.hpp"
   1:src/../h/tcb.hpp **** #ifndef OS1_VEZBE07_RISCV_CONTEXT_SWITCH_2_INTERRUPT_TCB_HPP
   2:src/../h/tcb.hpp **** #define OS1_VEZBE07_RISCV_CONTEXT_SWITCH_2_INTERRUPT_TCB_HPP
   3:src/../h/tcb.hpp **** 
   4:src/../h/tcb.hpp **** #include "../lib/hw.h"
   5:src/../h/tcb.hpp **** #include "scheduler.hpp"
   6:src/../h/tcb.hpp **** 
   7:src/../h/tcb.hpp **** // Thread Control Block
   8:src/../h/tcb.hpp **** class TCB
   9:src/../h/tcb.hpp **** {
  10:src/../h/tcb.hpp **** public:
  11:src/../h/tcb.hpp ****     ~TCB() { delete[] stack; }
 231              		.loc 4 11 14 is_stmt 1
 232              		.loc 4 11 23 is_stmt 0
 233 00e4 03B58400 		ld	a0,8(s1)
 234              	.LVL14:
 235              		.loc 4 11 28
 236 00e8 63060500 		beqz	a0,.L15
 237              		.loc 4 11 23
 238 00ec 97000000 		call	_ZdaPv@plt
 238      E7800000 
 239              	.LVL15:
 240              	.L15:
 241              	.LBE25:
 242              	.LBE24:
 243              	.LBB26:
 244              	.LBB27:
  12:src/../h/tcb.hpp **** 
  13:src/../h/tcb.hpp ****     bool isFinished() const { return finished; }
  14:src/../h/tcb.hpp **** 
  15:src/../h/tcb.hpp ****     void setFinished(bool value) { finished = value; }
  16:src/../h/tcb.hpp **** 
  17:src/../h/tcb.hpp ****     bool isBlocked() const { return this->blocked; }
  18:src/../h/tcb.hpp **** 
  19:src/../h/tcb.hpp ****     void setBlocked(bool value) { this->blocked = value; }
  20:src/../h/tcb.hpp **** 
  21:src/../h/tcb.hpp ****     void setSleeping(time_t value) { this->sleepTime = value; }
  22:src/../h/tcb.hpp **** 
  23:src/../h/tcb.hpp ****     bool isSleeping() { return this->sleepTime > 0; }
  24:src/../h/tcb.hpp **** 
  25:src/../h/tcb.hpp ****     void decSleep() { if (this->sleepTime > 0) this->sleepTime--; }
  26:src/../h/tcb.hpp **** 
  27:src/../h/tcb.hpp ****     using Body = void (*)(void*); //Body = pointer to function that takes a void pointer as an argu
  28:src/../h/tcb.hpp **** 
  29:src/../h/tcb.hpp ****     static TCB *createThread(Body body, void* arg);
  30:src/../h/tcb.hpp **** 
  31:src/../h/tcb.hpp ****     static void yield();
  32:src/../h/tcb.hpp **** 
  33:src/../h/tcb.hpp ****     static int time_sleep(uint64 time);
  34:src/../h/tcb.hpp **** 
  35:src/../h/tcb.hpp ****     static void time_tick();
GAS LISTING /tmp/ccy5n7IV.s 			page 9


  36:src/../h/tcb.hpp **** 
  37:src/../h/tcb.hpp ****     static TCB *running;
  38:src/../h/tcb.hpp **** 
  39:src/../h/tcb.hpp ****     static List<TCB> SleepingThreads;
  40:src/../h/tcb.hpp **** 
  41:src/../h/tcb.hpp ****     void* operator new(size_t size) {
  42:src/../h/tcb.hpp ****         return MemoryAllocator::instance().kmem_alloc(size);
  43:src/../h/tcb.hpp ****     }
  44:src/../h/tcb.hpp ****     void* operator new[](size_t size) {
  45:src/../h/tcb.hpp ****         return MemoryAllocator::instance().kmem_alloc(size);
  46:src/../h/tcb.hpp ****     }
  47:src/../h/tcb.hpp ****     
  48:src/../h/tcb.hpp ****     void operator delete(void *ptr) {
  49:src/../h/tcb.hpp ****         MemoryAllocator::instance().kmem_free(ptr);
 245              		.loc 4 49 9 is_stmt 1
 246              		.loc 4 49 35 is_stmt 0
 247 00f4 97000000 		call	_ZN15MemoryAllocator8instanceEv@plt
 247      E7800000 
 248              	.LVL16:
 249              		.loc 4 49 46
 250 00fc 93850400 		mv	a1,s1
 251 0100 97000000 		call	_ZN15MemoryAllocator9kmem_freeEPv@plt
 251      E7800000 
 252              	.LVL17:
 253              	.L13:
 254              	.LBE27:
 255              	.LBE26:
 256              	.LBE23:
  35:src/syscall_cpp.cpp **** }
 257              		.loc 2 35 1
 258 0108 83308101 		ld	ra,24(sp)
 259              		.cfi_restore 1
 260 010c 03340101 		ld	s0,16(sp)
 261              		.cfi_restore 8
 262              		.cfi_def_cfa 2, 32
 263 0110 83348100 		ld	s1,8(sp)
 264              		.cfi_restore 9
 265 0114 13010102 		addi	sp,sp,32
 266              		.cfi_def_cfa_offset 0
 267 0118 67800000 		jr	ra
 268              		.cfi_endproc
 269              	.LFE57:
 270              		.section	.gcc_except_table
 271              	.LLSDA57:
 272 0004 FF       		.byte	0xff
 273 0005 FF       		.byte	0xff
 274 0006 03       		.byte	0x3
 275 0007 00       		.byte	0
 276              		.text
 278              		.globl	_ZN6ThreadD1Ev
 279              		.set	_ZN6ThreadD1Ev,_ZN6ThreadD2Ev
 280              		.align	2
 281              		.globl	_ZN6ThreadD0Ev
 283              	_ZN6ThreadD0Ev:
 284              	.LFB59:
  33:src/syscall_cpp.cpp **** Thread::~Thread() {
 285              		.loc 2 33 1 is_stmt 1
GAS LISTING /tmp/ccy5n7IV.s 			page 10


 286              		.cfi_startproc
 287              	.LVL18:
 288 011c 130101FE 		addi	sp,sp,-32
 289              		.cfi_def_cfa_offset 32
 290 0120 233C1100 		sd	ra,24(sp)
 291 0124 23388100 		sd	s0,16(sp)
 292 0128 23349100 		sd	s1,8(sp)
 293              		.cfi_offset 1, -8
 294              		.cfi_offset 8, -16
 295              		.cfi_offset 9, -24
 296 012c 13040102 		addi	s0,sp,32
 297              		.cfi_def_cfa 8, 0
 298 0130 93040500 		mv	s1,a0
  35:src/syscall_cpp.cpp **** }
 299              		.loc 2 35 1 is_stmt 0
 300 0134 97000000 		call	_ZN6ThreadD1Ev
 300      E7800000 
 301              	.LVL19:
 302 013c 13850400 		mv	a0,s1
 303 0140 97000000 		call	_ZdlPv@plt
 303      E7800000 
 304              	.LVL20:
 305 0148 83308101 		ld	ra,24(sp)
 306              		.cfi_restore 1
 307 014c 03340101 		ld	s0,16(sp)
 308              		.cfi_restore 8
 309              		.cfi_def_cfa 2, 32
 310 0150 83348100 		ld	s1,8(sp)
 311              		.cfi_restore 9
 312              	.LVL21:
 313 0154 13010102 		addi	sp,sp,32
 314              		.cfi_def_cfa_offset 0
 315 0158 67800000 		jr	ra
 316              		.cfi_endproc
 317              	.LFE59:
 319              		.section	.text._ZN14PeriodicThreadD2Ev,"axG",@progbits,_ZN14PeriodicThreadD5Ev,comdat
 320              		.align	2
 321              		.weak	_ZN14PeriodicThreadD2Ev
 323              	_ZN14PeriodicThreadD2Ev:
 324              	.LFB89:
  45:src/../h/syscall_cpp.hpp **** public: 
 325              		.loc 1 45 7 is_stmt 1
 326              		.cfi_startproc
 327              	.LVL22:
 328 0000 130101FF 		addi	sp,sp,-16
 329              		.cfi_def_cfa_offset 16
 330 0004 23341100 		sd	ra,8(sp)
 331 0008 23308100 		sd	s0,0(sp)
 332              		.cfi_offset 1, -8
 333              		.cfi_offset 8, -16
 334 000c 13040101 		addi	s0,sp,16
 335              		.cfi_def_cfa 8, 0
 336              	.LBB28:
  45:src/../h/syscall_cpp.hpp **** public: 
 337              		.loc 1 45 7 is_stmt 0
 338 0010 97070000 		lla	a5,_ZTV14PeriodicThread+16
 338      93870700 
GAS LISTING /tmp/ccy5n7IV.s 			page 11


 339 0018 2330F500 		sd	a5,0(a0)
 340 001c 97000000 		call	_ZN6ThreadD2Ev
 340      E7800000 
 341              	.LVL23:
 342              	.LBE28:
 343 0024 83308100 		ld	ra,8(sp)
 344              		.cfi_restore 1
 345 0028 03340100 		ld	s0,0(sp)
 346              		.cfi_restore 8
 347              		.cfi_def_cfa 2, 16
 348 002c 13010101 		addi	sp,sp,16
 349              		.cfi_def_cfa_offset 0
 350 0030 67800000 		jr	ra
 351              		.cfi_endproc
 352              	.LFE89:
 354              		.weak	_ZN14PeriodicThreadD1Ev
 355              		.set	_ZN14PeriodicThreadD1Ev,_ZN14PeriodicThreadD2Ev
 356              		.section	.text._ZN14PeriodicThreadD0Ev,"axG",@progbits,_ZN14PeriodicThreadD5Ev,comdat
 357              		.align	2
 358              		.weak	_ZN14PeriodicThreadD0Ev
 360              	_ZN14PeriodicThreadD0Ev:
 361              	.LFB91:
  45:src/../h/syscall_cpp.hpp **** public: 
 362              		.loc 1 45 7 is_stmt 1
 363              		.cfi_startproc
 364              	.LVL24:
 365 0000 130101FE 		addi	sp,sp,-32
 366              		.cfi_def_cfa_offset 32
 367 0004 233C1100 		sd	ra,24(sp)
 368 0008 23388100 		sd	s0,16(sp)
 369 000c 23349100 		sd	s1,8(sp)
 370              		.cfi_offset 1, -8
 371              		.cfi_offset 8, -16
 372              		.cfi_offset 9, -24
 373 0010 13040102 		addi	s0,sp,32
 374              		.cfi_def_cfa 8, 0
 375 0014 93040500 		mv	s1,a0
 376              	.LVL25:
 377              	.LBB29:
 378              	.LBB30:
  45:src/../h/syscall_cpp.hpp **** public: 
 379              		.loc 1 45 7 is_stmt 0
 380 0018 97070000 		lla	a5,_ZTV14PeriodicThread+16
 380      93870700 
 381 0020 2330F500 		sd	a5,0(a0)
 382 0024 97000000 		call	_ZN6ThreadD2Ev
 382      E7800000 
 383              	.LVL26:
 384              	.LBE30:
 385              	.LBE29:
 386 002c 13850400 		mv	a0,s1
 387 0030 97000000 		call	_ZdlPv@plt
 387      E7800000 
 388              	.LVL27:
 389 0038 83308101 		ld	ra,24(sp)
 390              		.cfi_restore 1
 391 003c 03340101 		ld	s0,16(sp)
GAS LISTING /tmp/ccy5n7IV.s 			page 12


 392              		.cfi_restore 8
 393              		.cfi_def_cfa 2, 32
 394 0040 83348100 		ld	s1,8(sp)
 395              		.cfi_restore 9
 396              	.LVL28:
 397 0044 13010102 		addi	sp,sp,32
 398              		.cfi_def_cfa_offset 0
 399 0048 67800000 		jr	ra
 400              		.cfi_endproc
 401              	.LFE91:
 403              		.text
 404              		.align	2
 405              		.globl	_ZN6Thread7wrapperEPv
 407              	_ZN6Thread7wrapperEPv:
 408              	.LFB64:
  47:src/syscall_cpp.cpp **** void Thread::wrapper(void *thread) {
 409              		.loc 2 47 36 is_stmt 1
 410              		.cfi_startproc
 411              	.LVL29:
 412 015c 130101FF 		addi	sp,sp,-16
 413              		.cfi_def_cfa_offset 16
 414 0160 23341100 		sd	ra,8(sp)
 415 0164 23308100 		sd	s0,0(sp)
 416              		.cfi_offset 1, -8
 417              		.cfi_offset 8, -16
 418 0168 13040101 		addi	s0,sp,16
 419              		.cfi_def_cfa 8, 0
  48:src/syscall_cpp.cpp ****     ((Thread *) thread)->run();
 420              		.loc 2 48 5
  48:src/syscall_cpp.cpp ****     ((Thread *) thread)->run();
 421              		.loc 2 48 30 is_stmt 0
 422 016c 83370500 		ld	a5,0(a0)
 423 0170 83B70701 		ld	a5,16(a5)
  48:src/syscall_cpp.cpp ****     ((Thread *) thread)->run();
 424              		.loc 2 48 29
 425 0174 E7800700 		jalr	a5
 426              	.LVL30:
  49:src/syscall_cpp.cpp ****     thread_exit();
 427              		.loc 2 49 5 is_stmt 1
  49:src/syscall_cpp.cpp ****     thread_exit();
 428              		.loc 2 49 16 is_stmt 0
 429 0178 97000000 		call	_Z11thread_exitv@plt
 429      E7800000 
 430              	.LVL31:
  50:src/syscall_cpp.cpp **** }
 431              		.loc 2 50 1
 432 0180 83308100 		ld	ra,8(sp)
 433              		.cfi_restore 1
 434 0184 03340100 		ld	s0,0(sp)
 435              		.cfi_restore 8
 436              		.cfi_def_cfa 2, 16
 437 0188 13010101 		addi	sp,sp,16
 438              		.cfi_def_cfa_offset 0
 439 018c 67800000 		jr	ra
 440              		.cfi_endproc
 441              	.LFE64:
 443              		.align	2
GAS LISTING /tmp/ccy5n7IV.s 			page 13


 444              		.globl	_ZN9SemaphoreC2Ej
 446              	_ZN9SemaphoreC2Ej:
 447              	.LFB44:
   6:src/syscall_cpp.cpp **** Semaphore::Semaphore(unsigned int init) {
 448              		.loc 2 6 1 is_stmt 1
 449              		.cfi_startproc
 450              	.LVL32:
 451 0190 130101FF 		addi	sp,sp,-16
 452              		.cfi_def_cfa_offset 16
 453 0194 23341100 		sd	ra,8(sp)
 454 0198 23308100 		sd	s0,0(sp)
 455              		.cfi_offset 1, -8
 456              		.cfi_offset 8, -16
 457 019c 13040101 		addi	s0,sp,16
 458              		.cfi_def_cfa 8, 0
 459              	.LBB31:
   6:src/syscall_cpp.cpp **** Semaphore::Semaphore(unsigned int init) {
 460              		.loc 2 6 39 is_stmt 0
 461 01a0 97070000 		lla	a5,_ZTV9Semaphore+16
 461      93870700 
 462 01a8 2330F500 		sd	a5,0(a0)
   7:src/syscall_cpp.cpp ****     sem_open(&this->myHandle, init);
 463              		.loc 2 7 5 is_stmt 1
   7:src/syscall_cpp.cpp ****     sem_open(&this->myHandle, init);
 464              		.loc 2 7 13 is_stmt 0
 465 01ac 13058500 		addi	a0,a0,8
 466              	.LVL33:
 467 01b0 97000000 		call	_Z8sem_openPP10KSemaphorej@plt
 467      E7800000 
 468              	.LVL34:
 469              	.LBE31:
   8:src/syscall_cpp.cpp **** }
 470              		.loc 2 8 1
 471 01b8 83308100 		ld	ra,8(sp)
 472              		.cfi_restore 1
 473 01bc 03340100 		ld	s0,0(sp)
 474              		.cfi_restore 8
 475              		.cfi_def_cfa 2, 16
 476 01c0 13010101 		addi	sp,sp,16
 477              		.cfi_def_cfa_offset 0
 478 01c4 67800000 		jr	ra
 479              		.cfi_endproc
 480              	.LFE44:
 482              		.globl	_ZN9SemaphoreC1Ej
 483              		.set	_ZN9SemaphoreC1Ej,_ZN9SemaphoreC2Ej
 484              		.align	2
 485              		.globl	_ZN9Semaphore4waitEv
 487              	_ZN9Semaphore4waitEv:
 488              	.LFB50:
  14:src/syscall_cpp.cpp **** int Semaphore::wait() {
 489              		.loc 2 14 23 is_stmt 1
 490              		.cfi_startproc
 491              	.LVL35:
 492 01c8 130101FF 		addi	sp,sp,-16
 493              		.cfi_def_cfa_offset 16
 494 01cc 23341100 		sd	ra,8(sp)
 495 01d0 23308100 		sd	s0,0(sp)
GAS LISTING /tmp/ccy5n7IV.s 			page 14


 496              		.cfi_offset 1, -8
 497              		.cfi_offset 8, -16
 498 01d4 13040101 		addi	s0,sp,16
 499              		.cfi_def_cfa 8, 0
  15:src/syscall_cpp.cpp ****     return sem_wait(this->myHandle);
 500              		.loc 2 15 5
  15:src/syscall_cpp.cpp ****     return sem_wait(this->myHandle);
 501              		.loc 2 15 20 is_stmt 0
 502 01d8 03358500 		ld	a0,8(a0)
 503              	.LVL36:
 504 01dc 97000000 		call	_Z8sem_waitP10KSemaphore@plt
 504      E7800000 
 505              	.LVL37:
  16:src/syscall_cpp.cpp **** }
 506              		.loc 2 16 1
 507 01e4 83308100 		ld	ra,8(sp)
 508              		.cfi_restore 1
 509 01e8 03340100 		ld	s0,0(sp)
 510              		.cfi_restore 8
 511              		.cfi_def_cfa 2, 16
 512 01ec 13010101 		addi	sp,sp,16
 513              		.cfi_def_cfa_offset 0
 514 01f0 67800000 		jr	ra
 515              		.cfi_endproc
 516              	.LFE50:
 518              		.align	2
 519              		.globl	_ZN9Semaphore6signalEv
 521              	_ZN9Semaphore6signalEv:
 522              	.LFB51:
  18:src/syscall_cpp.cpp **** int Semaphore::signal() {
 523              		.loc 2 18 25 is_stmt 1
 524              		.cfi_startproc
 525              	.LVL38:
 526 01f4 130101FF 		addi	sp,sp,-16
 527              		.cfi_def_cfa_offset 16
 528 01f8 23341100 		sd	ra,8(sp)
 529 01fc 23308100 		sd	s0,0(sp)
 530              		.cfi_offset 1, -8
 531              		.cfi_offset 8, -16
 532 0200 13040101 		addi	s0,sp,16
 533              		.cfi_def_cfa 8, 0
  19:src/syscall_cpp.cpp ****     return sem_signal(this->myHandle);
 534              		.loc 2 19 5
  19:src/syscall_cpp.cpp ****     return sem_signal(this->myHandle);
 535              		.loc 2 19 22 is_stmt 0
 536 0204 03358500 		ld	a0,8(a0)
 537              	.LVL39:
 538 0208 97000000 		call	_Z10sem_signalP10KSemaphore@plt
 538      E7800000 
 539              	.LVL40:
  20:src/syscall_cpp.cpp **** }
 540              		.loc 2 20 1
 541 0210 83308100 		ld	ra,8(sp)
 542              		.cfi_restore 1
 543 0214 03340100 		ld	s0,0(sp)
 544              		.cfi_restore 8
 545              		.cfi_def_cfa 2, 16
GAS LISTING /tmp/ccy5n7IV.s 			page 15


 546 0218 13010101 		addi	sp,sp,16
 547              		.cfi_def_cfa_offset 0
 548 021c 67800000 		jr	ra
 549              		.cfi_endproc
 550              	.LFE51:
 552              		.align	2
 553              		.globl	_ZN6Thread8dispatchEv
 555              	_ZN6Thread8dispatchEv:
 556              	.LFB52:
  23:src/syscall_cpp.cpp **** void Thread::dispatch() {
 557              		.loc 2 23 25 is_stmt 1
 558              		.cfi_startproc
 559 0220 130101FF 		addi	sp,sp,-16
 560              		.cfi_def_cfa_offset 16
 561 0224 23341100 		sd	ra,8(sp)
 562 0228 23308100 		sd	s0,0(sp)
 563              		.cfi_offset 1, -8
 564              		.cfi_offset 8, -16
 565 022c 13040101 		addi	s0,sp,16
 566              		.cfi_def_cfa 8, 0
  24:src/syscall_cpp.cpp ****     thread_dispatch();
 567              		.loc 2 24 5
  24:src/syscall_cpp.cpp ****     thread_dispatch();
 568              		.loc 2 24 20 is_stmt 0
 569 0230 97000000 		call	_Z15thread_dispatchv@plt
 569      E7800000 
 570              	.LVL41:
  25:src/syscall_cpp.cpp **** }
 571              		.loc 2 25 1
 572 0238 83308100 		ld	ra,8(sp)
 573              		.cfi_restore 1
 574 023c 03340100 		ld	s0,0(sp)
 575              		.cfi_restore 8
 576              		.cfi_def_cfa 2, 16
 577 0240 13010101 		addi	sp,sp,16
 578              		.cfi_def_cfa_offset 0
 579 0244 67800000 		jr	ra
 580              		.cfi_endproc
 581              	.LFE52:
 583              		.align	2
 584              		.globl	_ZN6ThreadC2EPFvPvES0_
 586              	_ZN6ThreadC2EPFvPvES0_:
 587              	.LFB54:
  27:src/syscall_cpp.cpp **** Thread::Thread(void (*body)(void *), void *arg) {
 588              		.loc 2 27 1 is_stmt 1
 589              		.cfi_startproc
 590              	.LVL42:
 591 0248 130101FF 		addi	sp,sp,-16
 592              		.cfi_def_cfa_offset 16
 593 024c 23348100 		sd	s0,8(sp)
 594              		.cfi_offset 8, -8
 595 0250 13040101 		addi	s0,sp,16
 596              		.cfi_def_cfa 8, 0
 597              	.LBB32:
  27:src/syscall_cpp.cpp **** Thread::Thread(void (*body)(void *), void *arg) {
 598              		.loc 2 27 47 is_stmt 0
 599 0254 97070000 		lla	a5,_ZTV6Thread+16
GAS LISTING /tmp/ccy5n7IV.s 			page 16


 599      93870700 
 600 025c 2330F500 		sd	a5,0(a0)
  28:src/syscall_cpp.cpp ****     this->body = body;
 601              		.loc 2 28 5 is_stmt 1
  28:src/syscall_cpp.cpp ****     this->body = body;
 602              		.loc 2 28 16 is_stmt 0
 603 0260 2338B500 		sd	a1,16(a0)
  29:src/syscall_cpp.cpp ****     this->arg = arg;
 604              		.loc 2 29 5 is_stmt 1
  29:src/syscall_cpp.cpp ****     this->arg = arg;
 605              		.loc 2 29 15 is_stmt 0
 606 0264 233CC500 		sd	a2,24(a0)
  30:src/syscall_cpp.cpp ****     myHandle = nullptr;
 607              		.loc 2 30 5 is_stmt 1
  30:src/syscall_cpp.cpp ****     myHandle = nullptr;
 608              		.loc 2 30 14 is_stmt 0
 609 0268 23340500 		sd	zero,8(a0)
 610              	.LBE32:
  31:src/syscall_cpp.cpp **** }
 611              		.loc 2 31 1
 612 026c 03348100 		ld	s0,8(sp)
 613              		.cfi_restore 8
 614              		.cfi_def_cfa 2, 16
 615 0270 13010101 		addi	sp,sp,16
 616              		.cfi_def_cfa_offset 0
 617 0274 67800000 		jr	ra
 618              		.cfi_endproc
 619              	.LFE54:
 621              		.globl	_ZN6ThreadC1EPFvPvES0_
 622              		.set	_ZN6ThreadC1EPFvPvES0_,_ZN6ThreadC2EPFvPvES0_
 623              		.align	2
 624              		.globl	_ZN6Thread5startEv
 626              	_ZN6Thread5startEv:
 627              	.LFB60:
  37:src/syscall_cpp.cpp **** int Thread::start() {
 628              		.loc 2 37 21 is_stmt 1
 629              		.cfi_startproc
 630              	.LVL43:
 631 0278 130101FF 		addi	sp,sp,-16
 632              		.cfi_def_cfa_offset 16
 633 027c 23341100 		sd	ra,8(sp)
 634 0280 23308100 		sd	s0,0(sp)
 635              		.cfi_offset 1, -8
 636              		.cfi_offset 8, -16
 637 0284 13040101 		addi	s0,sp,16
 638              		.cfi_def_cfa 8, 0
  38:src/syscall_cpp.cpp ****     return thread_create(&this->myHandle, body, arg);
 639              		.loc 2 38 5
  38:src/syscall_cpp.cpp ****     return thread_create(&this->myHandle, body, arg);
 640              		.loc 2 38 25 is_stmt 0
 641 0288 03368501 		ld	a2,24(a0)
 642 028c 83350501 		ld	a1,16(a0)
 643 0290 13058500 		addi	a0,a0,8
 644              	.LVL44:
 645 0294 97000000 		call	_Z13thread_createPP3TCBPFvPvES2_@plt
 645      E7800000 
 646              	.LVL45:
GAS LISTING /tmp/ccy5n7IV.s 			page 17


  39:src/syscall_cpp.cpp **** }
 647              		.loc 2 39 1
 648 029c 83308100 		ld	ra,8(sp)
 649              		.cfi_restore 1
 650 02a0 03340100 		ld	s0,0(sp)
 651              		.cfi_restore 8
 652              		.cfi_def_cfa 2, 16
 653 02a4 13010101 		addi	sp,sp,16
 654              		.cfi_def_cfa_offset 0
 655 02a8 67800000 		jr	ra
 656              		.cfi_endproc
 657              	.LFE60:
 659              		.align	2
 660              		.globl	_ZN6ThreadC2Ev
 662              	_ZN6ThreadC2Ev:
 663              	.LFB62:
  41:src/syscall_cpp.cpp **** Thread::Thread() {
 664              		.loc 2 41 1 is_stmt 1
 665              		.cfi_startproc
 666              	.LVL46:
 667 02ac 130101FF 		addi	sp,sp,-16
 668              		.cfi_def_cfa_offset 16
 669 02b0 23348100 		sd	s0,8(sp)
 670              		.cfi_offset 8, -8
 671 02b4 13040101 		addi	s0,sp,16
 672              		.cfi_def_cfa 8, 0
 673              	.LBB33:
  41:src/syscall_cpp.cpp **** Thread::Thread() {
 674              		.loc 2 41 16 is_stmt 0
 675 02b8 97070000 		lla	a5,_ZTV6Thread+16
 675      93870700 
 676 02c0 2330F500 		sd	a5,0(a0)
  42:src/syscall_cpp.cpp ****     this->body = Thread::wrapper;
 677              		.loc 2 42 5 is_stmt 1
  42:src/syscall_cpp.cpp ****     this->body = Thread::wrapper;
 678              		.loc 2 42 16 is_stmt 0
 679 02c4 97070000 		lla	a5,_ZN6Thread7wrapperEPv
 679      93870700 
 680 02cc 2338F500 		sd	a5,16(a0)
  43:src/syscall_cpp.cpp ****     this->arg = this;
 681              		.loc 2 43 5 is_stmt 1
  43:src/syscall_cpp.cpp ****     this->arg = this;
 682              		.loc 2 43 15 is_stmt 0
 683 02d0 233CA500 		sd	a0,24(a0)
  44:src/syscall_cpp.cpp ****     myHandle = nullptr;
 684              		.loc 2 44 5 is_stmt 1
  44:src/syscall_cpp.cpp ****     myHandle = nullptr;
 685              		.loc 2 44 14 is_stmt 0
 686 02d4 23340500 		sd	zero,8(a0)
 687              	.LBE33:
  45:src/syscall_cpp.cpp **** }
 688              		.loc 2 45 1
 689 02d8 03348100 		ld	s0,8(sp)
 690              		.cfi_restore 8
 691              		.cfi_def_cfa 2, 16
 692 02dc 13010101 		addi	sp,sp,16
 693              		.cfi_def_cfa_offset 0
GAS LISTING /tmp/ccy5n7IV.s 			page 18


 694 02e0 67800000 		jr	ra
 695              		.cfi_endproc
 696              	.LFE62:
 698              		.globl	_ZN6ThreadC1Ev
 699              		.set	_ZN6ThreadC1Ev,_ZN6ThreadC2Ev
 700              		.align	2
 701              		.globl	_ZN6Thread5sleepEm
 703              	_ZN6Thread5sleepEm:
 704              	.LFB65:
  52:src/syscall_cpp.cpp **** int Thread::sleep(time_t time) {
 705              		.loc 2 52 32 is_stmt 1
 706              		.cfi_startproc
 707              	.LVL47:
 708 02e4 130101FF 		addi	sp,sp,-16
 709              		.cfi_def_cfa_offset 16
 710 02e8 23341100 		sd	ra,8(sp)
 711 02ec 23308100 		sd	s0,0(sp)
 712              		.cfi_offset 1, -8
 713              		.cfi_offset 8, -16
 714 02f0 13040101 		addi	s0,sp,16
 715              		.cfi_def_cfa 8, 0
  53:src/syscall_cpp.cpp ****     return time_sleep(time);
 716              		.loc 2 53 5
  53:src/syscall_cpp.cpp ****     return time_sleep(time);
 717              		.loc 2 53 22 is_stmt 0
 718 02f4 97000000 		call	_Z10time_sleepm@plt
 718      E7800000 
 719              	.LVL48:
  54:src/syscall_cpp.cpp **** }
 720              		.loc 2 54 1
 721 02fc 83308100 		ld	ra,8(sp)
 722              		.cfi_restore 1
 723 0300 03340100 		ld	s0,0(sp)
 724              		.cfi_restore 8
 725              		.cfi_def_cfa 2, 16
 726 0304 13010101 		addi	sp,sp,16
 727              		.cfi_def_cfa_offset 0
 728 0308 67800000 		jr	ra
 729              		.cfi_endproc
 730              	.LFE65:
 732              		.align	2
 733              		.globl	_ZN14PeriodicThread3runEv
 735              	_ZN14PeriodicThread3runEv:
 736              	.LFB72:
  78:src/syscall_cpp.cpp **** void PeriodicThread::run() {
 737              		.loc 2 78 28 is_stmt 1
 738              		.cfi_startproc
 739              	.LVL49:
 740 030c 130101FE 		addi	sp,sp,-32
 741              		.cfi_def_cfa_offset 32
 742 0310 233C1100 		sd	ra,24(sp)
 743 0314 23388100 		sd	s0,16(sp)
 744 0318 23349100 		sd	s1,8(sp)
 745              		.cfi_offset 1, -8
 746              		.cfi_offset 8, -16
 747              		.cfi_offset 9, -24
 748 031c 13040102 		addi	s0,sp,32
GAS LISTING /tmp/ccy5n7IV.s 			page 19


 749              		.cfi_def_cfa 8, 0
 750 0320 93040500 		mv	s1,a0
 751              	.LVL50:
 752              	.L43:
  79:src/syscall_cpp.cpp ****     while (!terminated) {
 753              		.loc 2 79 5
  79:src/syscall_cpp.cpp ****     while (!terminated) {
 754              		.loc 2 79 12
  79:src/syscall_cpp.cpp ****     while (!terminated) {
 755              		.loc 2 79 13 is_stmt 0
 756 0324 83C78402 		lbu	a5,40(s1)
  79:src/syscall_cpp.cpp ****     while (!terminated) {
 757              		.loc 2 79 12
 758 0328 63920702 		bnez	a5,.L41
  80:src/syscall_cpp.cpp ****         periodicActivation();
 759              		.loc 2 80 9 is_stmt 1
  80:src/syscall_cpp.cpp ****         periodicActivation();
 760              		.loc 2 80 28 is_stmt 0
 761 032c 83B70400 		ld	a5,0(s1)
 762 0330 83B78701 		ld	a5,24(a5)
  80:src/syscall_cpp.cpp ****         periodicActivation();
 763              		.loc 2 80 27
 764 0334 13850400 		mv	a0,s1
 765 0338 E7800700 		jalr	a5
 766              	.LVL51:
  81:src/syscall_cpp.cpp ****         Thread::sleep(period);
 767              		.loc 2 81 9 is_stmt 1
  81:src/syscall_cpp.cpp ****         Thread::sleep(period);
 768              		.loc 2 81 22 is_stmt 0
 769 033c 03B50402 		ld	a0,32(s1)
 770 0340 97000000 		call	_ZN6Thread5sleepEm
 770      E7800000 
 771              	.LVL52:
  79:src/syscall_cpp.cpp ****     while (!terminated) {
 772              		.loc 2 79 5
 773 0348 6FF0DFFD 		j	.L43
 774              	.L41:
 775              		.loc 2 83 1
 776 034c 83308101 		ld	ra,24(sp)
 777              		.cfi_restore 1
 778 0350 03340101 		ld	s0,16(sp)
 779              		.cfi_restore 8
 780              		.cfi_def_cfa 2, 32
 781 0354 83348100 		ld	s1,8(sp)
 782              		.cfi_restore 9
 783              	.LVL53:
 784 0358 13010102 		addi	sp,sp,32
 785              		.cfi_def_cfa_offset 0
 786 035c 67800000 		jr	ra
 787              		.cfi_endproc
 788              	.LFE72:
 790              		.align	2
 791              		.globl	_ZN7Console4putcEc
 793              	_ZN7Console4putcEc:
 794              	.LFB66:
  57:src/syscall_cpp.cpp **** void Console::putc(char c) {
 795              		.loc 2 57 28 is_stmt 1
GAS LISTING /tmp/ccy5n7IV.s 			page 20


 796              		.cfi_startproc
 797              	.LVL54:
 798 0360 130101FF 		addi	sp,sp,-16
 799              		.cfi_def_cfa_offset 16
 800 0364 23341100 		sd	ra,8(sp)
 801 0368 23308100 		sd	s0,0(sp)
 802              		.cfi_offset 1, -8
 803              		.cfi_offset 8, -16
 804 036c 13040101 		addi	s0,sp,16
 805              		.cfi_def_cfa 8, 0
  58:src/syscall_cpp.cpp ****     ::putc(c);
 806              		.loc 2 58 5
  58:src/syscall_cpp.cpp ****     ::putc(c);
 807              		.loc 2 58 11 is_stmt 0
 808 0370 97000000 		call	_Z4putcc@plt
 808      E7800000 
 809              	.LVL55:
  59:src/syscall_cpp.cpp **** }
 810              		.loc 2 59 1
 811 0378 83308100 		ld	ra,8(sp)
 812              		.cfi_restore 1
 813 037c 03340100 		ld	s0,0(sp)
 814              		.cfi_restore 8
 815              		.cfi_def_cfa 2, 16
 816 0380 13010101 		addi	sp,sp,16
 817              		.cfi_def_cfa_offset 0
 818 0384 67800000 		jr	ra
 819              		.cfi_endproc
 820              	.LFE66:
 822              		.align	2
 823              		.globl	_ZN7Console4getcEv
 825              	_ZN7Console4getcEv:
 826              	.LFB67:
  61:src/syscall_cpp.cpp **** char Console::getc() {
 827              		.loc 2 61 22 is_stmt 1
 828              		.cfi_startproc
 829 0388 130101FF 		addi	sp,sp,-16
 830              		.cfi_def_cfa_offset 16
 831 038c 23341100 		sd	ra,8(sp)
 832 0390 23308100 		sd	s0,0(sp)
 833              		.cfi_offset 1, -8
 834              		.cfi_offset 8, -16
 835 0394 13040101 		addi	s0,sp,16
 836              		.cfi_def_cfa 8, 0
  62:src/syscall_cpp.cpp ****     return ::getc();
 837              		.loc 2 62 5
  62:src/syscall_cpp.cpp ****     return ::getc();
 838              		.loc 2 62 18 is_stmt 0
 839 0398 97000000 		call	_Z4getcv@plt
 839      E7800000 
 840              	.LVL56:
  63:src/syscall_cpp.cpp **** }
 841              		.loc 2 63 1
 842 03a0 83308100 		ld	ra,8(sp)
 843              		.cfi_restore 1
 844 03a4 03340100 		ld	s0,0(sp)
 845              		.cfi_restore 8
GAS LISTING /tmp/ccy5n7IV.s 			page 21


 846              		.cfi_def_cfa 2, 16
 847 03a8 13010101 		addi	sp,sp,16
 848              		.cfi_def_cfa_offset 0
 849 03ac 67800000 		jr	ra
 850              		.cfi_endproc
 851              	.LFE67:
 853              		.align	2
 854              		.globl	_ZN14PeriodicThreadC2Em
 856              	_ZN14PeriodicThreadC2Em:
 857              	.LFB69:
  68:src/syscall_cpp.cpp **** PeriodicThread::PeriodicThread(time_t period)
 858              		.loc 2 68 1 is_stmt 1
 859              		.cfi_startproc
 860              		.cfi_personality 0x9b,DW.ref.__gxx_personality_v0
 861              		.cfi_lsda 0x1b,.LLSDA69
 862              	.LVL57:
 863 03b0 130101FE 		addi	sp,sp,-32
 864              		.cfi_def_cfa_offset 32
 865 03b4 233C1100 		sd	ra,24(sp)
 866 03b8 23388100 		sd	s0,16(sp)
 867 03bc 23349100 		sd	s1,8(sp)
 868 03c0 23302101 		sd	s2,0(sp)
 869              		.cfi_offset 1, -8
 870              		.cfi_offset 8, -16
 871              		.cfi_offset 9, -24
 872              		.cfi_offset 18, -32
 873 03c4 13040102 		addi	s0,sp,32
 874              		.cfi_def_cfa 8, 0
 875 03c8 93040500 		mv	s1,a0
 876 03cc 13890500 		mv	s2,a1
 877              	.LBB42:
  69:src/syscall_cpp.cpp ****     : Thread(), period(period), terminated(false)
 878              		.loc 2 69 49 is_stmt 0
 879 03d0 97000000 		call	_ZN6ThreadC2Ev
 879      E7800000 
 880              	.LVL58:
 881 03d8 97070000 		lla	a5,_ZTV14PeriodicThread+16
 881      93870700 
 882 03e0 23B0F400 		sd	a5,0(s1)
 883 03e4 23B02403 		sd	s2,32(s1)
 884 03e8 23840402 		sb	zero,40(s1)
  71:src/syscall_cpp.cpp ****     createdThreads.addLast(this);
 885              		.loc 2 71 5 is_stmt 1
 886              	.LVL59:
 887              	.LEHB0:
 888              	.LBB43:
 889              	.LBB44:
 890              	.LBB45:
 891              	.LBB46:
  17:src/../h/list.hpp ****         }
 892              		.loc 3 17 46 is_stmt 0
 893 03ec 97000000 		call	_ZN15MemoryAllocator8instanceEv@plt
 893      E7800000 
 894              	.LVL60:
  17:src/../h/list.hpp ****         }
 895              		.loc 3 17 58
 896 03f4 93050001 		li	a1,16
GAS LISTING /tmp/ccy5n7IV.s 			page 22


 897 03f8 97000000 		call	_ZN15MemoryAllocator10kmem_allocEm@plt
 897      E7800000 
 898              	.LVL61:
 899              	.LEHE0:
 900              	.LBE46:
 901              	.LBE45:
 902              	.LBB47:
 903              	.LBB48:
  14:src/../h/list.hpp **** 
 904              		.loc 3 14 58
 905 0400 23309500 		sd	s1,0(a0)
 906 0404 23340500 		sd	zero,8(a0)
 907              	.LVL62:
 908              	.LBE48:
 909              	.LBE47:
  36:src/../h/list.hpp **** 
  37:src/../h/list.hpp ****     List(const List<T> &) = delete;
  38:src/../h/list.hpp **** 
  39:src/../h/list.hpp ****     List<T> &operator=(const List<T> &) = delete;
  40:src/../h/list.hpp **** 
  41:src/../h/list.hpp ****     void addFirst(T *data)
  42:src/../h/list.hpp ****     {
  43:src/../h/list.hpp ****         Elem *elem = new Elem(data, head);
  44:src/../h/list.hpp ****         head = elem;
  45:src/../h/list.hpp ****         if (!tail) { tail = head; }
  46:src/../h/list.hpp ****         size++;
  47:src/../h/list.hpp ****     }
  48:src/../h/list.hpp **** 
  49:src/../h/list.hpp ****     void addLast(T *data)
  50:src/../h/list.hpp ****     {
  51:src/../h/list.hpp ****         Elem *elem = new Elem(data, 0);
  52:src/../h/list.hpp ****         if (tail)
 910              		.loc 3 52 13
 911 0408 97070000 		ld	a5,.LANCHOR0+8
 911      83B70700 
 912              		.loc 3 52 9
 913 0410 638E0702 		beqz	a5,.L50
  53:src/../h/list.hpp ****         {
  54:src/../h/list.hpp ****             tail->next = elem;
 914              		.loc 3 54 13
 915 0414 23B4A700 		sd	a0,8(a5)
  55:src/../h/list.hpp ****             tail = elem;
 916              		.loc 3 55 13
 917 0418 97070000 		sd	a0,.LANCHOR0+8,a5
 917      23B0A700 
 918              	.L51:
  56:src/../h/list.hpp ****         } else
  57:src/../h/list.hpp ****         {
  58:src/../h/list.hpp ****             head = tail = elem;
  59:src/../h/list.hpp ****         }
  60:src/../h/list.hpp ****         size++;
 919              		.loc 3 60 9
 920 0420 17070000 		lla	a4,.LANCHOR0
 920      13070700 
 921 0428 83370701 		ld	a5,16(a4)
 922 042c 93871700 		addi	a5,a5,1
 923 0430 2338F700 		sd	a5,16(a4)
GAS LISTING /tmp/ccy5n7IV.s 			page 23


 924              	.LVL63:
 925              	.LBE44:
 926              	.LBE43:
 927              	.LBE42:
  72:src/syscall_cpp.cpp **** }
 928              		.loc 2 72 1
 929 0434 83308101 		ld	ra,24(sp)
 930              		.cfi_remember_state
 931              		.cfi_restore 1
 932 0438 03340101 		ld	s0,16(sp)
 933              		.cfi_restore 8
 934              		.cfi_def_cfa 2, 32
 935 043c 83348100 		ld	s1,8(sp)
 936              		.cfi_restore 9
 937              	.LVL64:
 938 0440 03390100 		ld	s2,0(sp)
 939              		.cfi_restore 18
 940              	.LVL65:
 941 0444 13010102 		addi	sp,sp,32
 942              		.cfi_def_cfa_offset 0
 943 0448 67800000 		jr	ra
 944              	.LVL66:
 945              	.L50:
 946              		.cfi_restore_state
 947              	.LBB51:
 948              	.LBB50:
 949              	.LBB49:
  58:src/../h/list.hpp ****         }
 950              		.loc 3 58 13
 951 044c 97070000 		lla	a5,.LANCHOR0
 951      93870700 
 952 0454 23B4A700 		sd	a0,8(a5)
 953 0458 23B0A700 		sd	a0,0(a5)
 954 045c 6FF05FFC 		j	.L51
 955              	.LVL67:
 956              	.L53:
 957 0460 13090500 		mv	s2,a0
 958              	.LVL68:
 959              	.LBE49:
 960              	.LBE50:
  69:src/syscall_cpp.cpp ****     : Thread(), period(period), terminated(false)
 961              		.loc 2 69 49
 962 0464 13850400 		mv	a0,s1
 963 0468 97000000 		call	_ZN6ThreadD2Ev
 963      E7800000 
 964              	.LVL69:
 965 0470 13050900 		mv	a0,s2
 966              	.LEHB1:
 967 0474 97000000 		call	_Unwind_Resume@plt
 967      E7800000 
 968              	.LVL70:
 969              	.LEHE1:
 970              	.LBE51:
 971              		.cfi_endproc
 972              	.LFE69:
 973              		.section	.gcc_except_table
 974              	.LLSDA69:
GAS LISTING /tmp/ccy5n7IV.s 			page 24


 975 0008 FF       		.byte	0xff
 976 0009 FF       		.byte	0xff
 977 000a 03       		.byte	0x3
 978 000b 1A       		.byte	0x1a
 979 000c 00000000 		.4byte	.LEHB0-.LFB69
 980 0010 00000000 		.4byte	.LEHE0-.LEHB0
 981 0014 00000000 		.4byte	.L53-.LFB69
 982 0018 00       		.byte	0
 983 0019 00000000 		.4byte	.LEHB1-.LFB69
 984 001d 00000000 		.4byte	.LEHE1-.LEHB1
 985 0021 00000000 		.4byte	0
 986 0025 00       		.byte	0
 987              		.text
 989              		.globl	_ZN14PeriodicThreadC1Em
 990              		.set	_ZN14PeriodicThreadC1Em,_ZN14PeriodicThreadC2Em
 991              		.align	2
 992              		.globl	_ZN14PeriodicThread9terminateEv
 994              	_ZN14PeriodicThread9terminateEv:
 995              	.LFB71:
  74:src/syscall_cpp.cpp **** void PeriodicThread::terminate() {
 996              		.loc 2 74 34 is_stmt 1
 997              		.cfi_startproc
 998              	.LVL71:
 999 047c 130101FF 		addi	sp,sp,-16
 1000              		.cfi_def_cfa_offset 16
 1001 0480 23348100 		sd	s0,8(sp)
 1002              		.cfi_offset 8, -8
 1003 0484 13040101 		addi	s0,sp,16
 1004              		.cfi_def_cfa 8, 0
  75:src/syscall_cpp.cpp ****     terminated = true;
 1005              		.loc 2 75 5
  75:src/syscall_cpp.cpp ****     terminated = true;
 1006              		.loc 2 75 16 is_stmt 0
 1007 0488 93071000 		li	a5,1
 1008 048c 2304F502 		sb	a5,40(a0)
  76:src/syscall_cpp.cpp **** }
 1009              		.loc 2 76 1
 1010 0490 03348100 		ld	s0,8(sp)
 1011              		.cfi_restore 8
 1012              		.cfi_def_cfa 2, 16
 1013 0494 13010101 		addi	sp,sp,16
 1014              		.cfi_def_cfa_offset 0
 1015 0498 67800000 		jr	ra
 1016              		.cfi_endproc
 1017              	.LFE71:
 1019              		.align	2
 1021              	_GLOBAL__sub_I__ZN9SemaphoreC2Ej:
 1022              	.LFB93:
 1023              		.loc 2 83 1 is_stmt 1
 1024              		.cfi_startproc
 1025 049c 130101FF 		addi	sp,sp,-16
 1026              		.cfi_def_cfa_offset 16
 1027 04a0 23341100 		sd	ra,8(sp)
 1028 04a4 23308100 		sd	s0,0(sp)
 1029              		.cfi_offset 1, -8
 1030              		.cfi_offset 8, -16
 1031 04a8 13040101 		addi	s0,sp,16
GAS LISTING /tmp/ccy5n7IV.s 			page 25


 1032              		.cfi_def_cfa 8, 0
 1033              		.loc 2 83 1 is_stmt 0
 1034 04ac B7050100 		li	a1,65536
 1035 04b0 9385F5FF 		addi	a1,a1,-1
 1036 04b4 13051000 		li	a0,1
 1037 04b8 97000000 		call	_Z41__static_initialization_and_destruction_0ii
 1037      E7800000 
 1038              	.LVL72:
 1039 04c0 83308100 		ld	ra,8(sp)
 1040              		.cfi_restore 1
 1041 04c4 03340100 		ld	s0,0(sp)
 1042              		.cfi_restore 8
 1043              		.cfi_def_cfa 2, 16
 1044 04c8 13010101 		addi	sp,sp,16
 1045              		.cfi_def_cfa_offset 0
 1046 04cc 67800000 		jr	ra
 1047              		.cfi_endproc
 1048              	.LFE93:
 1050              		.section	.init_array,"aw"
 1051              		.align	3
 1052 0000 00000000 		.dword	_GLOBAL__sub_I__ZN9SemaphoreC2Ej
 1052      00000000 
 1053              		.weak	_ZTV9Semaphore
 1054              		.section	.data.rel.ro.local._ZTV9Semaphore,"awG",@progbits,_ZTV9Semaphore,comdat
 1055              		.align	3
 1058              	_ZTV9Semaphore:
 1059 0000 00000000 		.dword	0
 1059      00000000 
 1060 0008 00000000 		.dword	0
 1060      00000000 
 1061 0010 00000000 		.dword	_ZN9SemaphoreD1Ev
 1061      00000000 
 1062 0018 00000000 		.dword	_ZN9SemaphoreD0Ev
 1062      00000000 
 1063              		.weak	_ZTV6Thread
 1064              		.section	.data.rel.ro.local._ZTV6Thread,"awG",@progbits,_ZTV6Thread,comdat
 1065              		.align	3
 1068              	_ZTV6Thread:
 1069 0000 00000000 		.dword	0
 1069      00000000 
 1070 0008 00000000 		.dword	0
 1070      00000000 
 1071 0010 00000000 		.dword	_ZN6ThreadD1Ev
 1071      00000000 
 1072 0018 00000000 		.dword	_ZN6ThreadD0Ev
 1072      00000000 
 1073 0020 00000000 		.dword	_ZN6Thread3runEv
 1073      00000000 
 1074              		.weak	_ZTV14PeriodicThread
 1075              		.section	.data.rel.ro.local._ZTV14PeriodicThread,"awG",@progbits,_ZTV14PeriodicThread,comdat
 1076              		.align	3
 1079              	_ZTV14PeriodicThread:
 1080 0000 00000000 		.dword	0
 1080      00000000 
 1081 0008 00000000 		.dword	0
 1081      00000000 
 1082 0010 00000000 		.dword	_ZN14PeriodicThreadD1Ev
GAS LISTING /tmp/ccy5n7IV.s 			page 26


 1082      00000000 
 1083 0018 00000000 		.dword	_ZN14PeriodicThreadD0Ev
 1083      00000000 
 1084 0020 00000000 		.dword	_ZN14PeriodicThread3runEv
 1084      00000000 
 1085 0028 00000000 		.dword	_ZN14PeriodicThread18periodicActivationEv
 1085      00000000 
 1086              		.globl	_ZN14PeriodicThread14createdThreadsE
 1087              		.bss
 1088              		.align	3
 1089              		.set	.LANCHOR0,. + 0
 1092              	_ZN14PeriodicThread14createdThreadsE:
 1093 0000 00000000 		.zero	24
 1093      00000000 
 1093      00000000 
 1093      00000000 
 1093      00000000 
 1094              		.text
 1095              	.Letext0:
 1096              		.file 5 "src/../h/../lib/hw.h"
 1097              		.file 6 "src/../h/memory_allocator.hpp"
 1098              		.file 7 "src/../h/semaphore.hpp"
 1099              		.file 8 "src/../h/syscall_c.hpp"
 6637              		.align	3
 6640              	DW.ref.__gxx_personality_v0:
 6641 0000 00000000 		.dword	__gxx_personality_v0
 6641      00000000 
 6642              		.ident	"GCC: (Ubuntu 9.4.0-1ubuntu1~20.04) 9.4.0"
 6643              		.section	.note.GNU-stack,"",@progbits
GAS LISTING /tmp/ccy5n7IV.s 			page 27


DEFINED SYMBOLS
                            *ABS*:0000000000000000 syscall_cpp.cpp
     /tmp/ccy5n7IV.s:10     .text._ZN6Thread3runEv:0000000000000000 _ZN6Thread3runEv
     /tmp/ccy5n7IV.s:14     .text._ZN6Thread3runEv:0000000000000000 .L0 
     /tmp/ccy5n7IV.s:16     .text._ZN6Thread3runEv:0000000000000000 .L0 
     /tmp/ccy5n7IV.s:17     .text._ZN6Thread3runEv:0000000000000004 .L0 
     /tmp/ccy5n7IV.s:19     .text._ZN6Thread3runEv:0000000000000008 .L0 
     /tmp/ccy5n7IV.s:21     .text._ZN6Thread3runEv:000000000000000c .L0 
     /tmp/ccy5n7IV.s:23     .text._ZN6Thread3runEv:000000000000000c .L0 
     /tmp/ccy5n7IV.s:24     .text._ZN6Thread3runEv:0000000000000010 .L0 
     /tmp/ccy5n7IV.s:25     .text._ZN6Thread3runEv:0000000000000010 .L0 
     /tmp/ccy5n7IV.s:27     .text._ZN6Thread3runEv:0000000000000014 .L0 
     /tmp/ccy5n7IV.s:29     .text._ZN6Thread3runEv:0000000000000018 .L0 
     /tmp/ccy5n7IV.s:36     .text._ZN14PeriodicThread18periodicActivationEv:0000000000000000 _ZN14PeriodicThread18periodicActivationEv
     /tmp/ccy5n7IV.s:39     .text._ZN14PeriodicThread18periodicActivationEv:0000000000000000 .L0 
     /tmp/ccy5n7IV.s:41     .text._ZN14PeriodicThread18periodicActivationEv:0000000000000000 .L0 
     /tmp/ccy5n7IV.s:42     .text._ZN14PeriodicThread18periodicActivationEv:0000000000000004 .L0 
     /tmp/ccy5n7IV.s:44     .text._ZN14PeriodicThread18periodicActivationEv:0000000000000008 .L0 
     /tmp/ccy5n7IV.s:46     .text._ZN14PeriodicThread18periodicActivationEv:000000000000000c .L0 
     /tmp/ccy5n7IV.s:48     .text._ZN14PeriodicThread18periodicActivationEv:000000000000000c .L0 
     /tmp/ccy5n7IV.s:49     .text._ZN14PeriodicThread18periodicActivationEv:0000000000000010 .L0 
     /tmp/ccy5n7IV.s:50     .text._ZN14PeriodicThread18periodicActivationEv:0000000000000010 .L0 
     /tmp/ccy5n7IV.s:52     .text._ZN14PeriodicThread18periodicActivationEv:0000000000000014 .L0 
     /tmp/ccy5n7IV.s:54     .text._ZN14PeriodicThread18periodicActivationEv:0000000000000018 .L0 
     /tmp/ccy5n7IV.s:60     .text:0000000000000000 _Z41__static_initialization_and_destruction_0ii
     /tmp/ccy5n7IV.s:64     .text:0000000000000000 .L0 
     /tmp/ccy5n7IV.s:66     .text:0000000000000000 .L0 
     /tmp/ccy5n7IV.s:67     .text:0000000000000004 .L0 
     /tmp/ccy5n7IV.s:69     .text:0000000000000008 .L0 
     /tmp/ccy5n7IV.s:71     .text:000000000000000c .L0 
     /tmp/ccy5n7IV.s:73     .text:000000000000000c .L0 
     /tmp/ccy5n7IV.s:77     .text:0000000000000018 .L0 
     /tmp/ccy5n7IV.s:78     .text:0000000000000018 .L0 
     /tmp/ccy5n7IV.s:79     .text:0000000000000018 .L0 
     /tmp/ccy5n7IV.s:81     .text:000000000000001c .L0 
     /tmp/ccy5n7IV.s:84     .text:0000000000000020 .L0 
     /tmp/ccy5n7IV.s:86     .text:0000000000000020 .L0 
     /tmp/ccy5n7IV.s:95     .text:000000000000002c .L0 
     /tmp/ccy5n7IV.s:104    .text:0000000000000040 .L0 
     /tmp/ccy5n7IV.s:105    .text:0000000000000044 .L0 
     /tmp/ccy5n7IV.s:111    .text:0000000000000044 _ZN9SemaphoreD2Ev
     /tmp/ccy5n7IV.s:114    .text:0000000000000044 .L0 
     /tmp/ccy5n7IV.s:6640   .data.rel.local.DW.ref.__gxx_personality_v0:0000000000000000 DW.ref.__gxx_personality_v0
     /tmp/ccy5n7IV.s:118    .text:0000000000000044 .L0 
     /tmp/ccy5n7IV.s:119    .text:0000000000000048 .L0 
     /tmp/ccy5n7IV.s:122    .text:0000000000000050 .L0 
     /tmp/ccy5n7IV.s:123    .text:0000000000000050 .L0 
     /tmp/ccy5n7IV.s:125    .text:0000000000000054 .L0 
     /tmp/ccy5n7IV.s:1058   .data.rel.ro.local._ZTV9Semaphore:0000000000000000 _ZTV9Semaphore
     /tmp/ccy5n7IV.s:128    .text:0000000000000054 .L0 
     /tmp/ccy5n7IV.s:131    .text:0000000000000060 .L0 
     /tmp/ccy5n7IV.s:132    .text:0000000000000060 .L0 
     /tmp/ccy5n7IV.s:138    .text:000000000000006c .L0 
     /tmp/ccy5n7IV.s:139    .text:0000000000000070 .L0 
     /tmp/ccy5n7IV.s:141    .text:0000000000000074 .L0 
     /tmp/ccy5n7IV.s:142    .text:0000000000000074 .L0 
     /tmp/ccy5n7IV.s:144    .text:0000000000000078 .L0 
GAS LISTING /tmp/ccy5n7IV.s 			page 28


     /tmp/ccy5n7IV.s:146    .text:000000000000007c .L0 
     /tmp/ccy5n7IV.s:111    .text:0000000000000044 _ZN9SemaphoreD1Ev
     /tmp/ccy5n7IV.s:162    .text:000000000000007c _ZN9SemaphoreD0Ev
     /tmp/ccy5n7IV.s:165    .text:000000000000007c .L0 
     /tmp/ccy5n7IV.s:167    .text:000000000000007c .L0 
     /tmp/ccy5n7IV.s:168    .text:0000000000000080 .L0 
     /tmp/ccy5n7IV.s:172    .text:000000000000008c .L0 
     /tmp/ccy5n7IV.s:173    .text:000000000000008c .L0 
     /tmp/ccy5n7IV.s:174    .text:000000000000008c .L0 
     /tmp/ccy5n7IV.s:176    .text:0000000000000090 .L0 
     /tmp/ccy5n7IV.s:179    .text:0000000000000094 .L0 
     /tmp/ccy5n7IV.s:185    .text:00000000000000ac .L0 
     /tmp/ccy5n7IV.s:187    .text:00000000000000b0 .L0 
     /tmp/ccy5n7IV.s:188    .text:00000000000000b0 .L0 
     /tmp/ccy5n7IV.s:190    .text:00000000000000b4 .L0 
     /tmp/ccy5n7IV.s:193    .text:00000000000000b8 .L0 
     /tmp/ccy5n7IV.s:195    .text:00000000000000bc .L0 
     /tmp/ccy5n7IV.s:201    .text:00000000000000bc _ZN6ThreadD2Ev
     /tmp/ccy5n7IV.s:204    .text:00000000000000bc .L0 
     /tmp/ccy5n7IV.s:208    .text:00000000000000bc .L0 
     /tmp/ccy5n7IV.s:209    .text:00000000000000c0 .L0 
     /tmp/ccy5n7IV.s:213    .text:00000000000000cc .L0 
     /tmp/ccy5n7IV.s:214    .text:00000000000000cc .L0 
     /tmp/ccy5n7IV.s:215    .text:00000000000000cc .L0 
     /tmp/ccy5n7IV.s:217    .text:00000000000000d0 .L0 
     /tmp/ccy5n7IV.s:1068   .data.rel.ro.local._ZTV6Thread:0000000000000000 _ZTV6Thread
     /tmp/ccy5n7IV.s:220    .text:00000000000000d0 .L0 
     /tmp/ccy5n7IV.s:223    .text:00000000000000dc .L0 
     /tmp/ccy5n7IV.s:224    .text:00000000000000dc .L0 
     /tmp/ccy5n7IV.s:226    .text:00000000000000e0 .L0 
     /tmp/ccy5n7IV.s:232    .text:00000000000000e4 .L0 
     /tmp/ccy5n7IV.s:233    .text:00000000000000e4 .L0 
     /tmp/ccy5n7IV.s:236    .text:00000000000000e8 .L0 
     /tmp/ccy5n7IV.s:238    .text:00000000000000ec .L0 
     /tmp/ccy5n7IV.s:246    .text:00000000000000f4 .L0 
     /tmp/ccy5n7IV.s:247    .text:00000000000000f4 .L0 
     /tmp/ccy5n7IV.s:250    .text:00000000000000fc .L0 
     /tmp/ccy5n7IV.s:258    .text:0000000000000108 .L0 
     /tmp/ccy5n7IV.s:259    .text:000000000000010c .L0 
     /tmp/ccy5n7IV.s:261    .text:0000000000000110 .L0 
     /tmp/ccy5n7IV.s:262    .text:0000000000000110 .L0 
     /tmp/ccy5n7IV.s:264    .text:0000000000000114 .L0 
     /tmp/ccy5n7IV.s:266    .text:0000000000000118 .L0 
     /tmp/ccy5n7IV.s:268    .text:000000000000011c .L0 
     /tmp/ccy5n7IV.s:201    .text:00000000000000bc _ZN6ThreadD1Ev
     /tmp/ccy5n7IV.s:283    .text:000000000000011c _ZN6ThreadD0Ev
     /tmp/ccy5n7IV.s:286    .text:000000000000011c .L0 
     /tmp/ccy5n7IV.s:288    .text:000000000000011c .L0 
     /tmp/ccy5n7IV.s:289    .text:0000000000000120 .L0 
     /tmp/ccy5n7IV.s:293    .text:000000000000012c .L0 
     /tmp/ccy5n7IV.s:294    .text:000000000000012c .L0 
     /tmp/ccy5n7IV.s:295    .text:000000000000012c .L0 
     /tmp/ccy5n7IV.s:297    .text:0000000000000130 .L0 
     /tmp/ccy5n7IV.s:300    .text:0000000000000134 .L0 
     /tmp/ccy5n7IV.s:306    .text:000000000000014c .L0 
     /tmp/ccy5n7IV.s:308    .text:0000000000000150 .L0 
     /tmp/ccy5n7IV.s:309    .text:0000000000000150 .L0 
GAS LISTING /tmp/ccy5n7IV.s 			page 29


     /tmp/ccy5n7IV.s:311    .text:0000000000000154 .L0 
     /tmp/ccy5n7IV.s:314    .text:0000000000000158 .L0 
     /tmp/ccy5n7IV.s:316    .text:000000000000015c .L0 
     /tmp/ccy5n7IV.s:323    .text._ZN14PeriodicThreadD2Ev:0000000000000000 _ZN14PeriodicThreadD2Ev
     /tmp/ccy5n7IV.s:326    .text._ZN14PeriodicThreadD2Ev:0000000000000000 .L0 
     /tmp/ccy5n7IV.s:328    .text._ZN14PeriodicThreadD2Ev:0000000000000000 .L0 
     /tmp/ccy5n7IV.s:329    .text._ZN14PeriodicThreadD2Ev:0000000000000004 .L0 
     /tmp/ccy5n7IV.s:332    .text._ZN14PeriodicThreadD2Ev:000000000000000c .L0 
     /tmp/ccy5n7IV.s:333    .text._ZN14PeriodicThreadD2Ev:000000000000000c .L0 
     /tmp/ccy5n7IV.s:335    .text._ZN14PeriodicThreadD2Ev:0000000000000010 .L0 
     /tmp/ccy5n7IV.s:1079   .data.rel.ro.local._ZTV14PeriodicThread:0000000000000000 _ZTV14PeriodicThread
     /tmp/ccy5n7IV.s:338    .text._ZN14PeriodicThreadD2Ev:0000000000000010 .L0 
     /tmp/ccy5n7IV.s:344    .text._ZN14PeriodicThreadD2Ev:0000000000000028 .L0 
     /tmp/ccy5n7IV.s:346    .text._ZN14PeriodicThreadD2Ev:000000000000002c .L0 
     /tmp/ccy5n7IV.s:347    .text._ZN14PeriodicThreadD2Ev:000000000000002c .L0 
     /tmp/ccy5n7IV.s:349    .text._ZN14PeriodicThreadD2Ev:0000000000000030 .L0 
     /tmp/ccy5n7IV.s:351    .text._ZN14PeriodicThreadD2Ev:0000000000000034 .L0 
     /tmp/ccy5n7IV.s:323    .text._ZN14PeriodicThreadD2Ev:0000000000000000 _ZN14PeriodicThreadD1Ev
     /tmp/ccy5n7IV.s:360    .text._ZN14PeriodicThreadD0Ev:0000000000000000 _ZN14PeriodicThreadD0Ev
     /tmp/ccy5n7IV.s:363    .text._ZN14PeriodicThreadD0Ev:0000000000000000 .L0 
     /tmp/ccy5n7IV.s:365    .text._ZN14PeriodicThreadD0Ev:0000000000000000 .L0 
     /tmp/ccy5n7IV.s:366    .text._ZN14PeriodicThreadD0Ev:0000000000000004 .L0 
     /tmp/ccy5n7IV.s:370    .text._ZN14PeriodicThreadD0Ev:0000000000000010 .L0 
     /tmp/ccy5n7IV.s:371    .text._ZN14PeriodicThreadD0Ev:0000000000000010 .L0 
     /tmp/ccy5n7IV.s:372    .text._ZN14PeriodicThreadD0Ev:0000000000000010 .L0 
     /tmp/ccy5n7IV.s:374    .text._ZN14PeriodicThreadD0Ev:0000000000000014 .L0 
     /tmp/ccy5n7IV.s:380    .text._ZN14PeriodicThreadD0Ev:0000000000000018 .L0 
     /tmp/ccy5n7IV.s:390    .text._ZN14PeriodicThreadD0Ev:000000000000003c .L0 
     /tmp/ccy5n7IV.s:392    .text._ZN14PeriodicThreadD0Ev:0000000000000040 .L0 
     /tmp/ccy5n7IV.s:393    .text._ZN14PeriodicThreadD0Ev:0000000000000040 .L0 
     /tmp/ccy5n7IV.s:395    .text._ZN14PeriodicThreadD0Ev:0000000000000044 .L0 
     /tmp/ccy5n7IV.s:398    .text._ZN14PeriodicThreadD0Ev:0000000000000048 .L0 
     /tmp/ccy5n7IV.s:400    .text._ZN14PeriodicThreadD0Ev:000000000000004c .L0 
     /tmp/ccy5n7IV.s:407    .text:000000000000015c _ZN6Thread7wrapperEPv
     /tmp/ccy5n7IV.s:410    .text:000000000000015c .L0 
     /tmp/ccy5n7IV.s:412    .text:000000000000015c .L0 
     /tmp/ccy5n7IV.s:413    .text:0000000000000160 .L0 
     /tmp/ccy5n7IV.s:416    .text:0000000000000168 .L0 
     /tmp/ccy5n7IV.s:417    .text:0000000000000168 .L0 
     /tmp/ccy5n7IV.s:419    .text:000000000000016c .L0 
     /tmp/ccy5n7IV.s:421    .text:000000000000016c .L0 
     /tmp/ccy5n7IV.s:422    .text:000000000000016c .L0 
     /tmp/ccy5n7IV.s:425    .text:0000000000000174 .L0 
     /tmp/ccy5n7IV.s:428    .text:0000000000000178 .L0 
     /tmp/ccy5n7IV.s:429    .text:0000000000000178 .L0 
     /tmp/ccy5n7IV.s:432    .text:0000000000000180 .L0 
     /tmp/ccy5n7IV.s:433    .text:0000000000000184 .L0 
     /tmp/ccy5n7IV.s:435    .text:0000000000000188 .L0 
     /tmp/ccy5n7IV.s:436    .text:0000000000000188 .L0 
     /tmp/ccy5n7IV.s:438    .text:000000000000018c .L0 
     /tmp/ccy5n7IV.s:440    .text:0000000000000190 .L0 
     /tmp/ccy5n7IV.s:446    .text:0000000000000190 _ZN9SemaphoreC2Ej
     /tmp/ccy5n7IV.s:449    .text:0000000000000190 .L0 
     /tmp/ccy5n7IV.s:451    .text:0000000000000190 .L0 
     /tmp/ccy5n7IV.s:452    .text:0000000000000194 .L0 
     /tmp/ccy5n7IV.s:455    .text:000000000000019c .L0 
     /tmp/ccy5n7IV.s:456    .text:000000000000019c .L0 
GAS LISTING /tmp/ccy5n7IV.s 			page 30


     /tmp/ccy5n7IV.s:458    .text:00000000000001a0 .L0 
     /tmp/ccy5n7IV.s:461    .text:00000000000001a0 .L0 
     /tmp/ccy5n7IV.s:464    .text:00000000000001ac .L0 
     /tmp/ccy5n7IV.s:465    .text:00000000000001ac .L0 
     /tmp/ccy5n7IV.s:471    .text:00000000000001b8 .L0 
     /tmp/ccy5n7IV.s:472    .text:00000000000001bc .L0 
     /tmp/ccy5n7IV.s:474    .text:00000000000001c0 .L0 
     /tmp/ccy5n7IV.s:475    .text:00000000000001c0 .L0 
     /tmp/ccy5n7IV.s:477    .text:00000000000001c4 .L0 
     /tmp/ccy5n7IV.s:479    .text:00000000000001c8 .L0 
     /tmp/ccy5n7IV.s:446    .text:0000000000000190 _ZN9SemaphoreC1Ej
     /tmp/ccy5n7IV.s:487    .text:00000000000001c8 _ZN9Semaphore4waitEv
     /tmp/ccy5n7IV.s:490    .text:00000000000001c8 .L0 
     /tmp/ccy5n7IV.s:492    .text:00000000000001c8 .L0 
     /tmp/ccy5n7IV.s:493    .text:00000000000001cc .L0 
     /tmp/ccy5n7IV.s:496    .text:00000000000001d4 .L0 
     /tmp/ccy5n7IV.s:497    .text:00000000000001d4 .L0 
     /tmp/ccy5n7IV.s:499    .text:00000000000001d8 .L0 
     /tmp/ccy5n7IV.s:501    .text:00000000000001d8 .L0 
     /tmp/ccy5n7IV.s:502    .text:00000000000001d8 .L0 
     /tmp/ccy5n7IV.s:507    .text:00000000000001e4 .L0 
     /tmp/ccy5n7IV.s:508    .text:00000000000001e8 .L0 
     /tmp/ccy5n7IV.s:510    .text:00000000000001ec .L0 
     /tmp/ccy5n7IV.s:511    .text:00000000000001ec .L0 
     /tmp/ccy5n7IV.s:513    .text:00000000000001f0 .L0 
     /tmp/ccy5n7IV.s:515    .text:00000000000001f4 .L0 
     /tmp/ccy5n7IV.s:521    .text:00000000000001f4 _ZN9Semaphore6signalEv
     /tmp/ccy5n7IV.s:524    .text:00000000000001f4 .L0 
     /tmp/ccy5n7IV.s:526    .text:00000000000001f4 .L0 
     /tmp/ccy5n7IV.s:527    .text:00000000000001f8 .L0 
     /tmp/ccy5n7IV.s:530    .text:0000000000000200 .L0 
     /tmp/ccy5n7IV.s:531    .text:0000000000000200 .L0 
     /tmp/ccy5n7IV.s:533    .text:0000000000000204 .L0 
     /tmp/ccy5n7IV.s:535    .text:0000000000000204 .L0 
     /tmp/ccy5n7IV.s:536    .text:0000000000000204 .L0 
     /tmp/ccy5n7IV.s:541    .text:0000000000000210 .L0 
     /tmp/ccy5n7IV.s:542    .text:0000000000000214 .L0 
     /tmp/ccy5n7IV.s:544    .text:0000000000000218 .L0 
     /tmp/ccy5n7IV.s:545    .text:0000000000000218 .L0 
     /tmp/ccy5n7IV.s:547    .text:000000000000021c .L0 
     /tmp/ccy5n7IV.s:549    .text:0000000000000220 .L0 
     /tmp/ccy5n7IV.s:555    .text:0000000000000220 _ZN6Thread8dispatchEv
     /tmp/ccy5n7IV.s:558    .text:0000000000000220 .L0 
     /tmp/ccy5n7IV.s:559    .text:0000000000000220 .L0 
     /tmp/ccy5n7IV.s:560    .text:0000000000000224 .L0 
     /tmp/ccy5n7IV.s:563    .text:000000000000022c .L0 
     /tmp/ccy5n7IV.s:564    .text:000000000000022c .L0 
     /tmp/ccy5n7IV.s:566    .text:0000000000000230 .L0 
     /tmp/ccy5n7IV.s:568    .text:0000000000000230 .L0 
     /tmp/ccy5n7IV.s:569    .text:0000000000000230 .L0 
     /tmp/ccy5n7IV.s:572    .text:0000000000000238 .L0 
     /tmp/ccy5n7IV.s:573    .text:000000000000023c .L0 
     /tmp/ccy5n7IV.s:575    .text:0000000000000240 .L0 
     /tmp/ccy5n7IV.s:576    .text:0000000000000240 .L0 
     /tmp/ccy5n7IV.s:578    .text:0000000000000244 .L0 
     /tmp/ccy5n7IV.s:580    .text:0000000000000248 .L0 
     /tmp/ccy5n7IV.s:586    .text:0000000000000248 _ZN6ThreadC2EPFvPvES0_
GAS LISTING /tmp/ccy5n7IV.s 			page 31


     /tmp/ccy5n7IV.s:589    .text:0000000000000248 .L0 
     /tmp/ccy5n7IV.s:591    .text:0000000000000248 .L0 
     /tmp/ccy5n7IV.s:592    .text:000000000000024c .L0 
     /tmp/ccy5n7IV.s:594    .text:0000000000000250 .L0 
     /tmp/ccy5n7IV.s:596    .text:0000000000000254 .L0 
     /tmp/ccy5n7IV.s:599    .text:0000000000000254 .L0 
     /tmp/ccy5n7IV.s:602    .text:0000000000000260 .L0 
     /tmp/ccy5n7IV.s:603    .text:0000000000000260 .L0 
     /tmp/ccy5n7IV.s:605    .text:0000000000000264 .L0 
     /tmp/ccy5n7IV.s:606    .text:0000000000000264 .L0 
     /tmp/ccy5n7IV.s:608    .text:0000000000000268 .L0 
     /tmp/ccy5n7IV.s:609    .text:0000000000000268 .L0 
     /tmp/ccy5n7IV.s:612    .text:000000000000026c .L0 
     /tmp/ccy5n7IV.s:613    .text:0000000000000270 .L0 
     /tmp/ccy5n7IV.s:614    .text:0000000000000270 .L0 
     /tmp/ccy5n7IV.s:616    .text:0000000000000274 .L0 
     /tmp/ccy5n7IV.s:618    .text:0000000000000278 .L0 
     /tmp/ccy5n7IV.s:586    .text:0000000000000248 _ZN6ThreadC1EPFvPvES0_
     /tmp/ccy5n7IV.s:626    .text:0000000000000278 _ZN6Thread5startEv
     /tmp/ccy5n7IV.s:629    .text:0000000000000278 .L0 
     /tmp/ccy5n7IV.s:631    .text:0000000000000278 .L0 
     /tmp/ccy5n7IV.s:632    .text:000000000000027c .L0 
     /tmp/ccy5n7IV.s:635    .text:0000000000000284 .L0 
     /tmp/ccy5n7IV.s:636    .text:0000000000000284 .L0 
     /tmp/ccy5n7IV.s:638    .text:0000000000000288 .L0 
     /tmp/ccy5n7IV.s:640    .text:0000000000000288 .L0 
     /tmp/ccy5n7IV.s:641    .text:0000000000000288 .L0 
     /tmp/ccy5n7IV.s:648    .text:000000000000029c .L0 
     /tmp/ccy5n7IV.s:649    .text:00000000000002a0 .L0 
     /tmp/ccy5n7IV.s:651    .text:00000000000002a4 .L0 
     /tmp/ccy5n7IV.s:652    .text:00000000000002a4 .L0 
     /tmp/ccy5n7IV.s:654    .text:00000000000002a8 .L0 
     /tmp/ccy5n7IV.s:656    .text:00000000000002ac .L0 
     /tmp/ccy5n7IV.s:662    .text:00000000000002ac _ZN6ThreadC2Ev
     /tmp/ccy5n7IV.s:665    .text:00000000000002ac .L0 
     /tmp/ccy5n7IV.s:667    .text:00000000000002ac .L0 
     /tmp/ccy5n7IV.s:668    .text:00000000000002b0 .L0 
     /tmp/ccy5n7IV.s:670    .text:00000000000002b4 .L0 
     /tmp/ccy5n7IV.s:672    .text:00000000000002b8 .L0 
     /tmp/ccy5n7IV.s:675    .text:00000000000002b8 .L0 
     /tmp/ccy5n7IV.s:678    .text:00000000000002c4 .L0 
     /tmp/ccy5n7IV.s:679    .text:00000000000002c4 .L0 
     /tmp/ccy5n7IV.s:682    .text:00000000000002d0 .L0 
     /tmp/ccy5n7IV.s:683    .text:00000000000002d0 .L0 
     /tmp/ccy5n7IV.s:685    .text:00000000000002d4 .L0 
     /tmp/ccy5n7IV.s:686    .text:00000000000002d4 .L0 
     /tmp/ccy5n7IV.s:689    .text:00000000000002d8 .L0 
     /tmp/ccy5n7IV.s:690    .text:00000000000002dc .L0 
     /tmp/ccy5n7IV.s:691    .text:00000000000002dc .L0 
     /tmp/ccy5n7IV.s:693    .text:00000000000002e0 .L0 
     /tmp/ccy5n7IV.s:695    .text:00000000000002e4 .L0 
     /tmp/ccy5n7IV.s:662    .text:00000000000002ac _ZN6ThreadC1Ev
     /tmp/ccy5n7IV.s:703    .text:00000000000002e4 _ZN6Thread5sleepEm
     /tmp/ccy5n7IV.s:706    .text:00000000000002e4 .L0 
     /tmp/ccy5n7IV.s:708    .text:00000000000002e4 .L0 
     /tmp/ccy5n7IV.s:709    .text:00000000000002e8 .L0 
     /tmp/ccy5n7IV.s:712    .text:00000000000002f0 .L0 
GAS LISTING /tmp/ccy5n7IV.s 			page 32


     /tmp/ccy5n7IV.s:713    .text:00000000000002f0 .L0 
     /tmp/ccy5n7IV.s:715    .text:00000000000002f4 .L0 
     /tmp/ccy5n7IV.s:717    .text:00000000000002f4 .L0 
     /tmp/ccy5n7IV.s:718    .text:00000000000002f4 .L0 
     /tmp/ccy5n7IV.s:721    .text:00000000000002fc .L0 
     /tmp/ccy5n7IV.s:722    .text:0000000000000300 .L0 
     /tmp/ccy5n7IV.s:724    .text:0000000000000304 .L0 
     /tmp/ccy5n7IV.s:725    .text:0000000000000304 .L0 
     /tmp/ccy5n7IV.s:727    .text:0000000000000308 .L0 
     /tmp/ccy5n7IV.s:729    .text:000000000000030c .L0 
     /tmp/ccy5n7IV.s:735    .text:000000000000030c _ZN14PeriodicThread3runEv
     /tmp/ccy5n7IV.s:738    .text:000000000000030c .L0 
     /tmp/ccy5n7IV.s:740    .text:000000000000030c .L0 
     /tmp/ccy5n7IV.s:741    .text:0000000000000310 .L0 
     /tmp/ccy5n7IV.s:745    .text:000000000000031c .L0 
     /tmp/ccy5n7IV.s:746    .text:000000000000031c .L0 
     /tmp/ccy5n7IV.s:747    .text:000000000000031c .L0 
     /tmp/ccy5n7IV.s:749    .text:0000000000000320 .L0 
     /tmp/ccy5n7IV.s:754    .text:0000000000000324 .L0 
     /tmp/ccy5n7IV.s:755    .text:0000000000000324 .L0 
     /tmp/ccy5n7IV.s:756    .text:0000000000000324 .L0 
     /tmp/ccy5n7IV.s:758    .text:0000000000000328 .L0 
     /tmp/ccy5n7IV.s:760    .text:000000000000032c .L0 
     /tmp/ccy5n7IV.s:761    .text:000000000000032c .L0 
     /tmp/ccy5n7IV.s:764    .text:0000000000000334 .L0 
     /tmp/ccy5n7IV.s:768    .text:000000000000033c .L0 
     /tmp/ccy5n7IV.s:769    .text:000000000000033c .L0 
     /tmp/ccy5n7IV.s:773    .text:0000000000000348 .L0 
     /tmp/ccy5n7IV.s:776    .text:000000000000034c .L0 
     /tmp/ccy5n7IV.s:777    .text:0000000000000350 .L0 
     /tmp/ccy5n7IV.s:779    .text:0000000000000354 .L0 
     /tmp/ccy5n7IV.s:780    .text:0000000000000354 .L0 
     /tmp/ccy5n7IV.s:782    .text:0000000000000358 .L0 
     /tmp/ccy5n7IV.s:785    .text:000000000000035c .L0 
     /tmp/ccy5n7IV.s:787    .text:0000000000000360 .L0 
     /tmp/ccy5n7IV.s:793    .text:0000000000000360 _ZN7Console4putcEc
     /tmp/ccy5n7IV.s:796    .text:0000000000000360 .L0 
     /tmp/ccy5n7IV.s:798    .text:0000000000000360 .L0 
     /tmp/ccy5n7IV.s:799    .text:0000000000000364 .L0 
     /tmp/ccy5n7IV.s:802    .text:000000000000036c .L0 
     /tmp/ccy5n7IV.s:803    .text:000000000000036c .L0 
     /tmp/ccy5n7IV.s:805    .text:0000000000000370 .L0 
     /tmp/ccy5n7IV.s:807    .text:0000000000000370 .L0 
     /tmp/ccy5n7IV.s:808    .text:0000000000000370 .L0 
     /tmp/ccy5n7IV.s:811    .text:0000000000000378 .L0 
     /tmp/ccy5n7IV.s:812    .text:000000000000037c .L0 
     /tmp/ccy5n7IV.s:814    .text:0000000000000380 .L0 
     /tmp/ccy5n7IV.s:815    .text:0000000000000380 .L0 
     /tmp/ccy5n7IV.s:817    .text:0000000000000384 .L0 
     /tmp/ccy5n7IV.s:819    .text:0000000000000388 .L0 
     /tmp/ccy5n7IV.s:825    .text:0000000000000388 _ZN7Console4getcEv
     /tmp/ccy5n7IV.s:828    .text:0000000000000388 .L0 
     /tmp/ccy5n7IV.s:829    .text:0000000000000388 .L0 
     /tmp/ccy5n7IV.s:830    .text:000000000000038c .L0 
     /tmp/ccy5n7IV.s:833    .text:0000000000000394 .L0 
     /tmp/ccy5n7IV.s:834    .text:0000000000000394 .L0 
     /tmp/ccy5n7IV.s:836    .text:0000000000000398 .L0 
GAS LISTING /tmp/ccy5n7IV.s 			page 33


     /tmp/ccy5n7IV.s:838    .text:0000000000000398 .L0 
     /tmp/ccy5n7IV.s:839    .text:0000000000000398 .L0 
     /tmp/ccy5n7IV.s:842    .text:00000000000003a0 .L0 
     /tmp/ccy5n7IV.s:843    .text:00000000000003a4 .L0 
     /tmp/ccy5n7IV.s:845    .text:00000000000003a8 .L0 
     /tmp/ccy5n7IV.s:846    .text:00000000000003a8 .L0 
     /tmp/ccy5n7IV.s:848    .text:00000000000003ac .L0 
     /tmp/ccy5n7IV.s:850    .text:00000000000003b0 .L0 
     /tmp/ccy5n7IV.s:856    .text:00000000000003b0 _ZN14PeriodicThreadC2Em
     /tmp/ccy5n7IV.s:859    .text:00000000000003b0 .L0 
     /tmp/ccy5n7IV.s:863    .text:00000000000003b0 .L0 
     /tmp/ccy5n7IV.s:864    .text:00000000000003b4 .L0 
     /tmp/ccy5n7IV.s:869    .text:00000000000003c4 .L0 
     /tmp/ccy5n7IV.s:870    .text:00000000000003c4 .L0 
     /tmp/ccy5n7IV.s:871    .text:00000000000003c4 .L0 
     /tmp/ccy5n7IV.s:872    .text:00000000000003c4 .L0 
     /tmp/ccy5n7IV.s:874    .text:00000000000003c8 .L0 
     /tmp/ccy5n7IV.s:879    .text:00000000000003d0 .L0 
     /tmp/ccy5n7IV.s:892    .text:00000000000003ec .L0 
     /tmp/ccy5n7IV.s:893    .text:00000000000003ec .L0 
     /tmp/ccy5n7IV.s:896    .text:00000000000003f4 .L0 
     /tmp/ccy5n7IV.s:905    .text:0000000000000400 .L0 
     /tmp/ccy5n7IV.s:911    .text:0000000000000408 .L0 
     /tmp/ccy5n7IV.s:913    .text:0000000000000410 .L0 
     /tmp/ccy5n7IV.s:915    .text:0000000000000414 .L0 
     /tmp/ccy5n7IV.s:917    .text:0000000000000418 .L0 
     /tmp/ccy5n7IV.s:920    .text:0000000000000420 .L0 
     /tmp/ccy5n7IV.s:929    .text:0000000000000434 .L0 
     /tmp/ccy5n7IV.s:930    .text:0000000000000438 .L0 
     /tmp/ccy5n7IV.s:931    .text:0000000000000438 .L0 
     /tmp/ccy5n7IV.s:933    .text:000000000000043c .L0 
     /tmp/ccy5n7IV.s:934    .text:000000000000043c .L0 
     /tmp/ccy5n7IV.s:936    .text:0000000000000440 .L0 
     /tmp/ccy5n7IV.s:939    .text:0000000000000444 .L0 
     /tmp/ccy5n7IV.s:942    .text:0000000000000448 .L0 
     /tmp/ccy5n7IV.s:946    .text:000000000000044c .L0 
     /tmp/ccy5n7IV.s:951    .text:000000000000044c .L0 
     /tmp/ccy5n7IV.s:962    .text:0000000000000464 .L0 
     /tmp/ccy5n7IV.s:971    .text:000000000000047c .L0 
     /tmp/ccy5n7IV.s:856    .text:00000000000003b0 _ZN14PeriodicThreadC1Em
     /tmp/ccy5n7IV.s:994    .text:000000000000047c _ZN14PeriodicThread9terminateEv
     /tmp/ccy5n7IV.s:997    .text:000000000000047c .L0 
     /tmp/ccy5n7IV.s:999    .text:000000000000047c .L0 
     /tmp/ccy5n7IV.s:1000   .text:0000000000000480 .L0 
     /tmp/ccy5n7IV.s:1002   .text:0000000000000484 .L0 
     /tmp/ccy5n7IV.s:1004   .text:0000000000000488 .L0 
     /tmp/ccy5n7IV.s:1006   .text:0000000000000488 .L0 
     /tmp/ccy5n7IV.s:1007   .text:0000000000000488 .L0 
     /tmp/ccy5n7IV.s:1010   .text:0000000000000490 .L0 
     /tmp/ccy5n7IV.s:1011   .text:0000000000000494 .L0 
     /tmp/ccy5n7IV.s:1012   .text:0000000000000494 .L0 
     /tmp/ccy5n7IV.s:1014   .text:0000000000000498 .L0 
     /tmp/ccy5n7IV.s:1016   .text:000000000000049c .L0 
     /tmp/ccy5n7IV.s:1021   .text:000000000000049c _GLOBAL__sub_I__ZN9SemaphoreC2Ej
     /tmp/ccy5n7IV.s:1024   .text:000000000000049c .L0 
     /tmp/ccy5n7IV.s:1025   .text:000000000000049c .L0 
     /tmp/ccy5n7IV.s:1026   .text:00000000000004a0 .L0 
GAS LISTING /tmp/ccy5n7IV.s 			page 34


     /tmp/ccy5n7IV.s:1029   .text:00000000000004a8 .L0 
     /tmp/ccy5n7IV.s:1030   .text:00000000000004a8 .L0 
     /tmp/ccy5n7IV.s:1032   .text:00000000000004ac .L0 
     /tmp/ccy5n7IV.s:1034   .text:00000000000004ac .L0 
     /tmp/ccy5n7IV.s:1040   .text:00000000000004c4 .L0 
     /tmp/ccy5n7IV.s:1042   .text:00000000000004c8 .L0 
     /tmp/ccy5n7IV.s:1043   .text:00000000000004c8 .L0 
     /tmp/ccy5n7IV.s:1045   .text:00000000000004cc .L0 
     /tmp/ccy5n7IV.s:1047   .text:00000000000004d0 .L0 
     /tmp/ccy5n7IV.s:1092   .bss:0000000000000000 _ZN14PeriodicThread14createdThreadsE
     /tmp/ccy5n7IV.s:1089   .bss:0000000000000000 .LANCHOR0
     /tmp/ccy5n7IV.s:32     .text._ZN6Thread3runEv:0000000000000018 .L0 
     /tmp/ccy5n7IV.s:57     .text._ZN14PeriodicThread18periodicActivationEv:0000000000000018 .L0 
     /tmp/ccy5n7IV.s:1100   .text:00000000000004d0 .L0 
     /tmp/ccy5n7IV.s:356    .text._ZN14PeriodicThreadD2Ev:0000000000000034 .L0 
     /tmp/ccy5n7IV.s:403    .text._ZN14PeriodicThreadD0Ev:000000000000004c .L0 
     /tmp/ccy5n7IV.s:95     .text:000000000000002c .L0 
     /tmp/ccy5n7IV.s:128    .text:0000000000000054 .L0 
     /tmp/ccy5n7IV.s:220    .text:00000000000000d0 .L0 
     /tmp/ccy5n7IV.s:461    .text:00000000000001a0 .L0 
     /tmp/ccy5n7IV.s:599    .text:0000000000000254 .L0 
     /tmp/ccy5n7IV.s:675    .text:00000000000002b8 .L0 
     /tmp/ccy5n7IV.s:679    .text:00000000000002c4 .L0 
     /tmp/ccy5n7IV.s:881    .text:00000000000003d8 .L0 
     /tmp/ccy5n7IV.s:911    .text:0000000000000408 .L0 
     /tmp/ccy5n7IV.s:917    .text:0000000000000418 .L0 
     /tmp/ccy5n7IV.s:920    .text:0000000000000420 .L0 
     /tmp/ccy5n7IV.s:951    .text:000000000000044c .L0 
     /tmp/ccy5n7IV.s:83     .text:0000000000000020 .L8
     /tmp/ccy5n7IV.s:75     .text:0000000000000014 .L5
     /tmp/ccy5n7IV.s:253    .text:0000000000000108 .L13
     /tmp/ccy5n7IV.s:240    .text:00000000000000f4 .L15
     /tmp/ccy5n7IV.s:774    .text:000000000000034c .L41
     /tmp/ccy5n7IV.s:752    .text:0000000000000324 .L43
     /tmp/ccy5n7IV.s:945    .text:000000000000044c .L50
     /tmp/ccy5n7IV.s:918    .text:0000000000000420 .L51
     /tmp/ccy5n7IV.s:887    .text:00000000000003ec .LEHB0
     /tmp/ccy5n7IV.s:857    .text:00000000000003b0 .LFB69
     /tmp/ccy5n7IV.s:899    .text:0000000000000400 .LEHE0
     /tmp/ccy5n7IV.s:956    .text:0000000000000460 .L53
     /tmp/ccy5n7IV.s:966    .text:0000000000000474 .LEHB1
     /tmp/ccy5n7IV.s:969    .text:000000000000047c .LEHE1
     /tmp/ccy5n7IV.s:338    .text._ZN14PeriodicThreadD2Ev:0000000000000010 .L0 
     /tmp/ccy5n7IV.s:380    .text._ZN14PeriodicThreadD0Ev:0000000000000018 .L0 
     /tmp/ccy5n7IV.s:4085   .debug_abbrev:0000000000000000 .Ldebug_abbrev0
     /tmp/ccy5n7IV.s:6514   .debug_str:0000000000000f7b .LASF257
     /tmp/ccy5n7IV.s:6280   .debug_str:000000000000080e .LASF258
     /tmp/ccy5n7IV.s:6274   .debug_str:00000000000007c7 .LASF259
     /tmp/ccy5n7IV.s:6074   .debug_ranges:0000000000000000 .Ldebug_ranges0
     /tmp/ccy5n7IV.s:6094   .debug_line:0000000000000000 .Ldebug_line0
     /tmp/ccy5n7IV.s:6266   .debug_str:0000000000000778 .LASF0
     /tmp/ccy5n7IV.s:6306   .debug_str:000000000000090a .LASF1
     /tmp/ccy5n7IV.s:6426   .debug_str:0000000000000cd9 .LASF2
     /tmp/ccy5n7IV.s:6234   .debug_str:0000000000000645 .LASF3
     /tmp/ccy5n7IV.s:6438   .debug_str:0000000000000d3c .LASF4
     /tmp/ccy5n7IV.s:6282   .debug_str:0000000000000822 .LASF5
     /tmp/ccy5n7IV.s:6112   .debug_str:00000000000000b9 .LASF6
GAS LISTING /tmp/ccy5n7IV.s 			page 35


     /tmp/ccy5n7IV.s:6392   .debug_str:0000000000000bbf .LASF7
     /tmp/ccy5n7IV.s:6382   .debug_str:0000000000000b28 .LASF8
     /tmp/ccy5n7IV.s:6296   .debug_str:00000000000008c3 .LASF9
     /tmp/ccy5n7IV.s:6232   .debug_str:0000000000000635 .LASF10
     /tmp/ccy5n7IV.s:6246   .debug_str:00000000000006c0 .LASF11
     /tmp/ccy5n7IV.s:6164   .debug_str:00000000000002d7 .LASF12
     /tmp/ccy5n7IV.s:6220   .debug_str:000000000000059a .LASF13
     /tmp/ccy5n7IV.s:6182   .debug_str:00000000000003c2 .LASF14
     /tmp/ccy5n7IV.s:6162   .debug_str:00000000000002c7 .LASF15
     /tmp/ccy5n7IV.s:6478   .debug_str:0000000000000e9b .LASF16
     /tmp/ccy5n7IV.s:6204   .debug_str:00000000000004b2 .LASF17
     /tmp/ccy5n7IV.s:6464   .debug_str:0000000000000e26 .LASF18
     /tmp/ccy5n7IV.s:6378   .debug_str:0000000000000b0c .LASF28
     /tmp/ccy5n7IV.s:6256   .debug_str:000000000000072b .LASF60
     /tmp/ccy5n7IV.s:6444   .debug_str:0000000000000d5e .LASF19
     /tmp/ccy5n7IV.s:6304   .debug_str:0000000000000905 .LASF20
     /tmp/ccy5n7IV.s:6128   .debug_str:0000000000000148 .LASF21
     /tmp/ccy5n7IV.s:6166   .debug_str:00000000000002e6 .LASF22
     /tmp/ccy5n7IV.s:6546   .debug_str:0000000000001138 .LASF23
     /tmp/ccy5n7IV.s:6178   .debug_str:000000000000037e .LASF154
     /tmp/ccy5n7IV.s:6582   .debug_str:00000000000012d1 .LASF156
     /tmp/ccy5n7IV.s:6486   .debug_str:0000000000000ec9 .LASF24
     /tmp/ccy5n7IV.s:6158   .debug_str:000000000000026c .LASF26
     /tmp/ccy5n7IV.s:6560   .debug_str:00000000000011bb .LASF25
     /tmp/ccy5n7IV.s:6208   .debug_str:00000000000004d1 .LASF27
     /tmp/ccy5n7IV.s:6124   .debug_str:0000000000000129 .LASF30
     /tmp/ccy5n7IV.s:6354   .debug_str:0000000000000a50 .LASF29
     /tmp/ccy5n7IV.s:6610   .debug_str:00000000000013d1 .LASF31
     /tmp/ccy5n7IV.s:6286   .debug_str:000000000000083e .LASF32
     /tmp/ccy5n7IV.s:6430   .debug_str:0000000000000cf4 .LASF33
     /tmp/ccy5n7IV.s:6568   .debug_str:000000000000120b .LASF34
     /tmp/ccy5n7IV.s:6530   .debug_str:00000000000010a7 .LASF35
     /tmp/ccy5n7IV.s:6600   .debug_str:000000000000137f .LASF37
     /tmp/ccy5n7IV.s:6608   .debug_str:00000000000013c8 .LASF36
     /tmp/ccy5n7IV.s:6396   .debug_str:0000000000000bd5 .LASF38
     /tmp/ccy5n7IV.s:6472   .debug_str:0000000000000e71 .LASF39
     /tmp/ccy5n7IV.s:6522   .debug_str:0000000000001073 .LASF113
     /tmp/ccy5n7IV.s:6326   .debug_str:00000000000009c0 .LASF40
     /tmp/ccy5n7IV.s:6586   .debug_str:00000000000012fa .LASF41
     /tmp/ccy5n7IV.s:6562   .debug_str:00000000000011c5 .LASF139
     /tmp/ccy5n7IV.s:6358   .debug_str:0000000000000a78 .LASF42
     /tmp/ccy5n7IV.s:6350   .debug_str:0000000000000a40 .LASF43
     /tmp/ccy5n7IV.s:6466   .debug_str:0000000000000e3c .LASF44
     /tmp/ccy5n7IV.s:6216   .debug_str:000000000000056b .LASF45
     /tmp/ccy5n7IV.s:6416   .debug_str:0000000000000c88 .LASF142
     /tmp/ccy5n7IV.s:6300   .debug_str:00000000000008f0 .LASF46
     /tmp/ccy5n7IV.s:6152   .debug_str:0000000000000216 .LASF47
     /tmp/ccy5n7IV.s:6320   .debug_str:0000000000000988 .LASF48
     /tmp/ccy5n7IV.s:6278   .debug_str:00000000000007f2 .LASF49
     /tmp/ccy5n7IV.s:6380   .debug_str:0000000000000b1c .LASF50
     /tmp/ccy5n7IV.s:6588   .debug_str:0000000000001304 .LASF51
     /tmp/ccy5n7IV.s:6630   .debug_str:0000000000001463 .LASF52
     /tmp/ccy5n7IV.s:6618   .debug_str:000000000000140f .LASF53
     /tmp/ccy5n7IV.s:6452   .debug_str:0000000000000db1 .LASF54
     /tmp/ccy5n7IV.s:6294   .debug_str:00000000000008a6 .LASF55
     /tmp/ccy5n7IV.s:6408   .debug_str:0000000000000c4c .LASF56
     /tmp/ccy5n7IV.s:6104   .debug_str:0000000000000044 .LASF57
GAS LISTING /tmp/ccy5n7IV.s 			page 36


     /tmp/ccy5n7IV.s:6446   .debug_str:0000000000000d64 .LASF58
     /tmp/ccy5n7IV.s:6402   .debug_str:0000000000000c1e .LASF59
     /tmp/ccy5n7IV.s:6490   .debug_str:0000000000000edd .LASF61
     /tmp/ccy5n7IV.s:6440   .debug_str:0000000000000d43 .LASF62
     /tmp/ccy5n7IV.s:6108   .debug_str:0000000000000086 .LASF63
     /tmp/ccy5n7IV.s:6492   .debug_str:0000000000000ee5 .LASF64
     /tmp/ccy5n7IV.s:6356   .debug_str:0000000000000a61 .LASF65
     /tmp/ccy5n7IV.s:6142   .debug_str:00000000000001da .LASF66
     /tmp/ccy5n7IV.s:6548   .debug_str:000000000000113d .LASF67
     /tmp/ccy5n7IV.s:6598   .debug_str:0000000000001375 .LASF68
     /tmp/ccy5n7IV.s:6156   .debug_str:0000000000000257 .LASF69
     /tmp/ccy5n7IV.s:6496   .debug_str:0000000000000f05 .LASF70
     /tmp/ccy5n7IV.s:6120   .debug_str:000000000000010d .LASF71
     /tmp/ccy5n7IV.s:6540   .debug_str:00000000000010ff .LASF72
     /tmp/ccy5n7IV.s:6374   .debug_str:0000000000000adf .LASF73
     /tmp/ccy5n7IV.s:6352   .debug_str:0000000000000a45 .LASF74
     /tmp/ccy5n7IV.s:6322   .debug_str:0000000000000990 .LASF75
     /tmp/ccy5n7IV.s:6400   .debug_str:0000000000000c15 .LASF76
     /tmp/ccy5n7IV.s:6454   .debug_str:0000000000000dbc .LASF77
     /tmp/ccy5n7IV.s:6476   .debug_str:0000000000000e8e .LASF78
     /tmp/ccy5n7IV.s:6570   .debug_str:0000000000001227 .LASF79
     /tmp/ccy5n7IV.s:6372   .debug_str:0000000000000ada .LASF260
     /tmp/ccy5n7IV.s:6308   .debug_str:000000000000091d .LASF82
     /tmp/ccy5n7IV.s:6524   .debug_str:0000000000001079 .LASF84
     /tmp/ccy5n7IV.s:6418   .debug_str:0000000000000c9f .LASF80
     /tmp/ccy5n7IV.s:6442   .debug_str:0000000000000d48 .LASF81
     /tmp/ccy5n7IV.s:6348   .debug_str:0000000000000a36 .LASF83
     /tmp/ccy5n7IV.s:6432   .debug_str:0000000000000cfe .LASF85
     /tmp/ccy5n7IV.s:6512   .debug_str:0000000000000f73 .LASF86
     /tmp/ccy5n7IV.s:6616   .debug_str:00000000000013ff .LASF87
     /tmp/ccy5n7IV.s:6624   .debug_str:000000000000143f .LASF88
     /tmp/ccy5n7IV.s:6240   .debug_str:000000000000068d .LASF89
     /tmp/ccy5n7IV.s:6334   .debug_str:00000000000009ed .LASF90
     /tmp/ccy5n7IV.s:6228   .debug_str:0000000000000614 .LASF91
     /tmp/ccy5n7IV.s:6102   .debug_str:0000000000000034 .LASF92
     /tmp/ccy5n7IV.s:6364   .debug_str:0000000000000a94 .LASF93
     /tmp/ccy5n7IV.s:6462   .debug_str:0000000000000e13 .LASF94
     /tmp/ccy5n7IV.s:6428   .debug_str:0000000000000ce7 .LASF95
     /tmp/ccy5n7IV.s:6518   .debug_str:000000000000104c .LASF261
     /tmp/ccy5n7IV.s:6100   .debug_str:000000000000002f .LASF96
     /tmp/ccy5n7IV.s:6456   .debug_str:0000000000000dcf .LASF97
     /tmp/ccy5n7IV.s:6544   .debug_str:0000000000001130 .LASF98
     /tmp/ccy5n7IV.s:6488   .debug_str:0000000000000ed4 .LASF99
     /tmp/ccy5n7IV.s:6366   .debug_str:0000000000000aa1 .LASF100
     /tmp/ccy5n7IV.s:6538   .debug_str:00000000000010f5 .LASF101
     /tmp/ccy5n7IV.s:6528   .debug_str:00000000000010a0 .LASF102
     /tmp/ccy5n7IV.s:6150   .debug_str:0000000000000208 .LASF107
     /tmp/ccy5n7IV.s:6312   .debug_str:0000000000000936 .LASF109
     /tmp/ccy5n7IV.s:6186   .debug_str:00000000000003f7 .LASF103
     /tmp/ccy5n7IV.s:6106   .debug_str:000000000000005e .LASF105
     /tmp/ccy5n7IV.s:6504   .debug_str:0000000000000f31 .LASF104
     /tmp/ccy5n7IV.s:6224   .debug_str:00000000000005ca .LASF106
     /tmp/ccy5n7IV.s:6192   .debug_str:0000000000000430 .LASF108
     /tmp/ccy5n7IV.s:6174   .debug_str:0000000000000348 .LASF110
     /tmp/ccy5n7IV.s:6132   .debug_str:000000000000015d .LASF111
     /tmp/ccy5n7IV.s:6316   .debug_str:000000000000095e .LASF112
     /tmp/ccy5n7IV.s:6448   .debug_str:0000000000000d6c .LASF262
GAS LISTING /tmp/ccy5n7IV.s 			page 37


     /tmp/ccy5n7IV.s:6436   .debug_str:0000000000000d31 .LASF114
     /tmp/ccy5n7IV.s:6602   .debug_str:00000000000013a0 .LASF115
     /tmp/ccy5n7IV.s:6412   .debug_str:0000000000000c74 .LASF116
     /tmp/ccy5n7IV.s:6508   .debug_str:0000000000000f4b .LASF117
     /tmp/ccy5n7IV.s:6420   .debug_str:0000000000000caa .LASF118
     /tmp/ccy5n7IV.s:6550   .debug_str:0000000000001154 .LASF119
     /tmp/ccy5n7IV.s:6390   .debug_str:0000000000000b93 .LASF120
     /tmp/ccy5n7IV.s:6244   .debug_str:00000000000006ac .LASF121
     /tmp/ccy5n7IV.s:6558   .debug_str:00000000000011b3 .LASF122
     /tmp/ccy5n7IV.s:6214   .debug_str:0000000000000551 .LASF123
     /tmp/ccy5n7IV.s:6284   .debug_str:0000000000000834 .LASF124
     /tmp/ccy5n7IV.s:6194   .debug_str:0000000000000439 .LASF125
     /tmp/ccy5n7IV.s:6424   .debug_str:0000000000000cc9 .LASF126
     /tmp/ccy5n7IV.s:6176   .debug_str:000000000000035b .LASF127
     /tmp/ccy5n7IV.s:6200   .debug_str:0000000000000498 .LASF128
     /tmp/ccy5n7IV.s:6386   .debug_str:0000000000000b40 .LASF129
     /tmp/ccy5n7IV.s:6122   .debug_str:0000000000000123 .LASF130
     /tmp/ccy5n7IV.s:6218   .debug_str:0000000000000582 .LASF131
     /tmp/ccy5n7IV.s:6330   .debug_str:00000000000009cd .LASF132
     /tmp/ccy5n7IV.s:6318   .debug_str:0000000000000974 .LASF133
     /tmp/ccy5n7IV.s:6260   .debug_str:0000000000000742 .LASF134
     /tmp/ccy5n7IV.s:6494   .debug_str:0000000000000ef0 .LASF135
     /tmp/ccy5n7IV.s:6590   .debug_str:0000000000001322 .LASF136
     /tmp/ccy5n7IV.s:6468   .debug_str:0000000000000e4f .LASF137
     /tmp/ccy5n7IV.s:6118   .debug_str:00000000000000e9 .LASF138
     /tmp/ccy5n7IV.s:6196   .debug_str:0000000000000455 .LASF140
     /tmp/ccy5n7IV.s:6248   .debug_str:00000000000006ce .LASF141
     /tmp/ccy5n7IV.s:6450   .debug_str:0000000000000d7d .LASF143
     /tmp/ccy5n7IV.s:6210   .debug_str:00000000000004f3 .LASF144
     /tmp/ccy5n7IV.s:6226   .debug_str:00000000000005db .LASF145
     /tmp/ccy5n7IV.s:6180   .debug_str:0000000000000387 .LASF146
     /tmp/ccy5n7IV.s:6160   .debug_str:000000000000028f .LASF147
     /tmp/ccy5n7IV.s:6134   .debug_str:0000000000000168 .LASF148
     /tmp/ccy5n7IV.s:6388   .debug_str:0000000000000b5c .LASF149
     /tmp/ccy5n7IV.s:6458   .debug_str:0000000000000dd5 .LASF150
     /tmp/ccy5n7IV.s:6584   .debug_str:00000000000012f1 .LASF151
     /tmp/ccy5n7IV.s:6604   .debug_str:00000000000013ab .LASF152
     /tmp/ccy5n7IV.s:6328   .debug_str:00000000000009c5 .LASF153
     /tmp/ccy5n7IV.s:6272   .debug_str:00000000000007c2 .LASF155
     /tmp/ccy5n7IV.s:6188   .debug_str:0000000000000405 .LASF157
     /tmp/ccy5n7IV.s:6336   .debug_str:00000000000009fd .LASF158
     /tmp/ccy5n7IV.s:6198   .debug_str:0000000000000485 .LASF159
     /tmp/ccy5n7IV.s:6498   .debug_str:0000000000000f10 .LASF160
     /tmp/ccy5n7IV.s:6230   .debug_str:0000000000000620 .LASF161
     /tmp/ccy5n7IV.s:6622   .debug_str:000000000000143a .LASF162
     /tmp/ccy5n7IV.s:6270   .debug_str:0000000000000797 .LASF163
     /tmp/ccy5n7IV.s:6212   .debug_str:000000000000052d .LASF164
     /tmp/ccy5n7IV.s:6154   .debug_str:0000000000000233 .LASF165
     /tmp/ccy5n7IV.s:6576   .debug_str:000000000000125f .LASF166
     /tmp/ccy5n7IV.s:6172   .debug_str:0000000000000323 .LASF263
     /tmp/ccy5n7IV.s:6434   .debug_str:0000000000000d12 .LASF167
     /tmp/ccy5n7IV.s:6594   .debug_str:0000000000001343 .LASF168
     /tmp/ccy5n7IV.s:6578   .debug_str:0000000000001284 .LASF169
     /tmp/ccy5n7IV.s:6140   .debug_str:00000000000001b1 .LASF170
     /tmp/ccy5n7IV.s:6536   .debug_str:00000000000010cd .LASF171
     /tmp/ccy5n7IV.s:6368   .debug_str:0000000000000aa9 .LASF172
     /tmp/ccy5n7IV.s:6110   .debug_str:0000000000000092 .LASF173
GAS LISTING /tmp/ccy5n7IV.s 			page 38


     /tmp/ccy5n7IV.s:6566   .debug_str:00000000000011e2 .LASF174
     /tmp/ccy5n7IV.s:6170   .debug_str:00000000000002fd .LASF175
     /tmp/ccy5n7IV.s:6184   .debug_str:00000000000003d2 .LASF176
     /tmp/ccy5n7IV.s:6596   .debug_str:0000000000001366 .LASF177
     /tmp/ccy5n7IV.s:6324   .debug_str:00000000000009a6 .LASF178
     /tmp/ccy5n7IV.s:6556   .debug_str:0000000000001198 .LASF179
     /tmp/ccy5n7IV.s:6500   .debug_str:0000000000000f15 .LASF180
     /tmp/ccy5n7IV.s:6238   .debug_str:000000000000066d .LASF181
     /tmp/ccy5n7IV.s:6290   .debug_str:0000000000000875 .LASF182
     /tmp/ccy5n7IV.s:6242   .debug_str:0000000000000699 .LASF184
     /tmp/ccy5n7IV.s:6096   .debug_str:0000000000000000 .LASF264
     /tmp/ccy5n7IV.s:6250   .debug_str:0000000000000702 .LASF183
     /tmp/ccy5n7IV.s:6592   .debug_str:0000000000001329 .LASF201
     /tmp/ccy5n7IV.s:6532   .debug_str:00000000000010b1 .LASF185
     /tmp/ccy5n7IV.s:6258   .debug_str:0000000000000737 .LASF186
     /tmp/ccy5n7IV.s:6360   .debug_str:0000000000000a7d .LASF187
     /tmp/ccy5n7IV.s:6564   .debug_str:00000000000011ca .LASF265
     /tmp/ccy5n7IV.s:6542   .debug_str:000000000000110b .LASF266
     /tmp/ccy5n7IV.s:6344   .debug_str:0000000000000a26 .LASF188
     /tmp/ccy5n7IV.s:6144   .debug_str:00000000000001e6 .LASF189
     /tmp/ccy5n7IV.s:6516   .debug_str:000000000000103f .LASF206
     /tmp/ccy5n7IV.s:6606   .debug_str:00000000000013b1 .LASF190
     /tmp/ccy5n7IV.s:6460   .debug_str:0000000000000e0b .LASF191
     /tmp/ccy5n7IV.s:6554   .debug_str:0000000000001189 .LASF192
     /tmp/ccy5n7IV.s:6614   .debug_str:00000000000013f9 .LASF193
     /tmp/ccy5n7IV.s:6310   .debug_str:0000000000000923 .LASF194
     /tmp/ccy5n7IV.s:6376   .debug_str:0000000000000af6 .LASF195
     /tmp/ccy5n7IV.s:6126   .debug_str:0000000000000142 .LASF196
     /tmp/ccy5n7IV.s:6520   .debug_str:0000000000001060 .LASF197
     /tmp/ccy5n7IV.s:6572   .debug_str:0000000000001247 .LASF198
     /tmp/ccy5n7IV.s:6510   .debug_str:0000000000000f5d .LASF199
     /tmp/ccy5n7IV.s:6276   .debug_str:00000000000007e3 .LASF200
     /tmp/ccy5n7IV.s:6262   .debug_str:0000000000000757 .LASF202
     /tmp/ccy5n7IV.s:6206   .debug_str:00000000000004c8 .LASF203
     /tmp/ccy5n7IV.s:6264   .debug_str:0000000000000768 .LASF267
     /tmp/ccy5n7IV.s:6340   .debug_str:0000000000000a07 .LASF204
     /tmp/ccy5n7IV.s:6506   .debug_str:0000000000000f36 .LASF205
     /tmp/ccy5n7IV.s:6620   .debug_str:000000000000142a .LASF207
     /tmp/ccy5n7IV.s:6502   .debug_str:0000000000000f1f .LASF208
     /tmp/ccy5n7IV.s:6404   .debug_str:0000000000000c37 .LASF209
     /tmp/ccy5n7IV.s:6484   .debug_str:0000000000000eb7 .LASF210
     /tmp/ccy5n7IV.s:6098   .debug_str:000000000000002a .LASF211
     /tmp/ccy5n7IV.s:6534   .debug_str:00000000000010b8 .LASF212
     /tmp/ccy5n7IV.s:6482   .debug_str:0000000000000eb0 .LASF213
     /tmp/ccy5n7IV.s:6114   .debug_str:00000000000000c0 .LASF214
     /tmp/ccy5n7IV.s:6222   .debug_str:00000000000005a9 .LASF215
     /tmp/ccy5n7IV.s:1022   .text:000000000000049c .LFB93
     /tmp/ccy5n7IV.s:1048   .text:00000000000004d0 .LFE93
     /tmp/ccy5n7IV.s:1038   .text:00000000000004c0 .LVL72
     /tmp/ccy5n7IV.s:6580   .debug_str:00000000000012a7 .LASF216
     /tmp/ccy5n7IV.s:61     .text:0000000000000000 .LFB92
     /tmp/ccy5n7IV.s:106    .text:0000000000000044 .LFE92
     /tmp/ccy5n7IV.s:6252   .debug_str:0000000000000711 .LASF217
     /tmp/ccy5n7IV.s:6148   .debug_str:00000000000001fd .LASF218
     /tmp/ccy5n7IV.s:90     .text:000000000000002c .LBB19
     /tmp/ccy5n7IV.s:102    .text:0000000000000040 .LBE19
     /tmp/ccy5n7IV.s:5662   .debug_loc:0000000000000000 .LLST0
GAS LISTING /tmp/ccy5n7IV.s 			page 39


     /tmp/ccy5n7IV.s:6146   .debug_str:00000000000001f8 .LASF219
     /tmp/ccy5n7IV.s:6138   .debug_str:00000000000001a7 .LASF220
     /tmp/ccy5n7IV.s:6632   .debug_str:000000000000146d .LASF221
     /tmp/ccy5n7IV.s:361    .text._ZN14PeriodicThreadD0Ev:0000000000000000 .LFB91
     /tmp/ccy5n7IV.s:401    .text._ZN14PeriodicThreadD0Ev:000000000000004c .LFE91
     /tmp/ccy5n7IV.s:5671   .debug_loc:000000000000002c .LLST8
     /tmp/ccy5n7IV.s:377    .text._ZN14PeriodicThreadD0Ev:0000000000000018 .LBB29
     /tmp/ccy5n7IV.s:385    .text._ZN14PeriodicThreadD0Ev:000000000000002c .LBE29
     /tmp/ccy5n7IV.s:5689   .debug_loc:0000000000000078 .LLST9
     /tmp/ccy5n7IV.s:383    .text._ZN14PeriodicThreadD0Ev:000000000000002c .LVL26
     /tmp/ccy5n7IV.s:388    .text._ZN14PeriodicThreadD0Ev:0000000000000038 .LVL27
     /tmp/ccy5n7IV.s:6422   .debug_str:0000000000000cb1 .LASF222
     /tmp/ccy5n7IV.s:324    .text._ZN14PeriodicThreadD2Ev:0000000000000000 .LFB89
     /tmp/ccy5n7IV.s:352    .text._ZN14PeriodicThreadD2Ev:0000000000000034 .LFE89
     /tmp/ccy5n7IV.s:5700   .debug_loc:00000000000000ae .LLST7
     /tmp/ccy5n7IV.s:341    .text._ZN14PeriodicThreadD2Ev:0000000000000024 .LVL23
     /tmp/ccy5n7IV.s:6552   .debug_str:000000000000115e .LASF223
     /tmp/ccy5n7IV.s:6338   .debug_str:0000000000000a02 .LASF268
     /tmp/ccy5n7IV.s:6410   .debug_str:0000000000000c55 .LASF224
     /tmp/ccy5n7IV.s:736    .text:000000000000030c .LFB72
     /tmp/ccy5n7IV.s:788    .text:0000000000000360 .LFE72
     /tmp/ccy5n7IV.s:5714   .debug_loc:00000000000000e7 .LLST17
     /tmp/ccy5n7IV.s:766    .text:000000000000033c .LVL51
     /tmp/ccy5n7IV.s:771    .text:0000000000000348 .LVL52
     /tmp/ccy5n7IV.s:995    .text:000000000000047c .LFB71
     /tmp/ccy5n7IV.s:1017   .text:000000000000049c .LFE71
     /tmp/ccy5n7IV.s:6474   .debug_str:0000000000000e76 .LASF225
     /tmp/ccy5n7IV.s:972    .text:000000000000047c .LFE69
     /tmp/ccy5n7IV.s:5732   .debug_loc:0000000000000133 .LLST19
     /tmp/ccy5n7IV.s:5754   .debug_loc:0000000000000192 .LLST20
     /tmp/ccy5n7IV.s:888    .text:00000000000003ec .LBB43
     /tmp/ccy5n7IV.s:5783   .debug_loc:0000000000000207 .LLST21
     /tmp/ccy5n7IV.s:5794   .debug_loc:000000000000023d .LLST22
     /tmp/ccy5n7IV.s:5809   .debug_loc:0000000000000285 .LLST23
     /tmp/ccy5n7IV.s:890    .text:00000000000003ec .LBB45
     /tmp/ccy5n7IV.s:901    .text:0000000000000400 .LBE45
     /tmp/ccy5n7IV.s:5816   .debug_loc:00000000000002a8 .LLST24
     /tmp/ccy5n7IV.s:894    .text:00000000000003f4 .LVL60
     /tmp/ccy5n7IV.s:898    .text:0000000000000400 .LVL61
     /tmp/ccy5n7IV.s:902    .text:0000000000000400 .LBB47
     /tmp/ccy5n7IV.s:909    .text:0000000000000408 .LBE47
     /tmp/ccy5n7IV.s:5829   .debug_loc:00000000000002e0 .LLST25
     /tmp/ccy5n7IV.s:5837   .debug_loc:0000000000000304 .LLST26
     /tmp/ccy5n7IV.s:5844   .debug_loc:0000000000000327 .LLST27
     /tmp/ccy5n7IV.s:880    .text:00000000000003d8 .LVL58
     /tmp/ccy5n7IV.s:964    .text:0000000000000470 .LVL69
     /tmp/ccy5n7IV.s:968    .text:000000000000047c .LVL70
     /tmp/ccy5n7IV.s:826    .text:0000000000000388 .LFB67
     /tmp/ccy5n7IV.s:851    .text:00000000000003b0 .LFE67
     /tmp/ccy5n7IV.s:840    .text:00000000000003a0 .LVL56
     /tmp/ccy5n7IV.s:794    .text:0000000000000360 .LFB66
     /tmp/ccy5n7IV.s:820    .text:0000000000000388 .LFE66
     /tmp/ccy5n7IV.s:5851   .debug_loc:000000000000034a .LLST18
     /tmp/ccy5n7IV.s:809    .text:0000000000000378 .LVL55
     /tmp/ccy5n7IV.s:704    .text:00000000000002e4 .LFB65
     /tmp/ccy5n7IV.s:730    .text:000000000000030c .LFE65
     /tmp/ccy5n7IV.s:6384   .debug_str:0000000000000b3b .LASF226
GAS LISTING /tmp/ccy5n7IV.s 			page 40


     /tmp/ccy5n7IV.s:5865   .debug_loc:0000000000000383 .LLST16
     /tmp/ccy5n7IV.s:719    .text:00000000000002fc .LVL48
     /tmp/ccy5n7IV.s:408    .text:000000000000015c .LFB64
     /tmp/ccy5n7IV.s:441    .text:0000000000000190 .LFE64
     /tmp/ccy5n7IV.s:5879   .debug_loc:00000000000003bc .LLST10
     /tmp/ccy5n7IV.s:426    .text:0000000000000178 .LVL30
     /tmp/ccy5n7IV.s:430    .text:0000000000000180 .LVL31
     /tmp/ccy5n7IV.s:6394   .debug_str:0000000000000bc6 .LASF227
     /tmp/ccy5n7IV.s:663    .text:00000000000002ac .LFB62
     /tmp/ccy5n7IV.s:696    .text:00000000000002e4 .LFE62
     /tmp/ccy5n7IV.s:627    .text:0000000000000278 .LFB60
     /tmp/ccy5n7IV.s:657    .text:00000000000002ac .LFE60
     /tmp/ccy5n7IV.s:5893   .debug_loc:00000000000003f5 .LLST15
     /tmp/ccy5n7IV.s:646    .text:000000000000029c .LVL45
     /tmp/ccy5n7IV.s:6314   .debug_str:000000000000094f .LASF228
     /tmp/ccy5n7IV.s:284    .text:000000000000011c .LFB59
     /tmp/ccy5n7IV.s:317    .text:000000000000015c .LFE59
     /tmp/ccy5n7IV.s:5913   .debug_loc:0000000000000443 .LLST6
     /tmp/ccy5n7IV.s:301    .text:000000000000013c .LVL19
     /tmp/ccy5n7IV.s:304    .text:0000000000000148 .LVL20
     /tmp/ccy5n7IV.s:6398   .debug_str:0000000000000c06 .LASF229
     /tmp/ccy5n7IV.s:202    .text:00000000000000bc .LFB57
     /tmp/ccy5n7IV.s:269    .text:000000000000011c .LFE57
     /tmp/ccy5n7IV.s:5931   .debug_loc:000000000000048f .LLST3
     /tmp/ccy5n7IV.s:228    .text:00000000000000e4 .LBB24
     /tmp/ccy5n7IV.s:242    .text:00000000000000f4 .LBE24
     /tmp/ccy5n7IV.s:5945   .debug_loc:00000000000004c8 .LLST4
     /tmp/ccy5n7IV.s:239    .text:00000000000000f4 .LVL15
     /tmp/ccy5n7IV.s:243    .text:00000000000000f4 .LBB26
     /tmp/ccy5n7IV.s:255    .text:0000000000000108 .LBE26
     /tmp/ccy5n7IV.s:5952   .debug_loc:00000000000004eb .LLST5
     /tmp/ccy5n7IV.s:248    .text:00000000000000fc .LVL16
     /tmp/ccy5n7IV.s:252    .text:0000000000000108 .LVL17
     /tmp/ccy5n7IV.s:6526   .debug_str:0000000000001089 .LASF230
     /tmp/ccy5n7IV.s:587    .text:0000000000000248 .LFB54
     /tmp/ccy5n7IV.s:619    .text:0000000000000278 .LFE54
     /tmp/ccy5n7IV.s:556    .text:0000000000000220 .LFB52
     /tmp/ccy5n7IV.s:581    .text:0000000000000248 .LFE52
     /tmp/ccy5n7IV.s:570    .text:0000000000000238 .LVL41
     /tmp/ccy5n7IV.s:522    .text:00000000000001f4 .LFB51
     /tmp/ccy5n7IV.s:550    .text:0000000000000220 .LFE51
     /tmp/ccy5n7IV.s:5959   .debug_loc:000000000000050e .LLST14
     /tmp/ccy5n7IV.s:539    .text:0000000000000210 .LVL40
     /tmp/ccy5n7IV.s:488    .text:00000000000001c8 .LFB50
     /tmp/ccy5n7IV.s:516    .text:00000000000001f4 .LFE50
     /tmp/ccy5n7IV.s:5973   .debug_loc:0000000000000547 .LLST13
     /tmp/ccy5n7IV.s:505    .text:00000000000001e4 .LVL37
     /tmp/ccy5n7IV.s:6268   .debug_str:0000000000000785 .LASF231
     /tmp/ccy5n7IV.s:163    .text:000000000000007c .LFB49
     /tmp/ccy5n7IV.s:196    .text:00000000000000bc .LFE49
     /tmp/ccy5n7IV.s:5987   .debug_loc:0000000000000580 .LLST2
     /tmp/ccy5n7IV.s:180    .text:000000000000009c .LVL9
     /tmp/ccy5n7IV.s:183    .text:00000000000000a8 .LVL10
     /tmp/ccy5n7IV.s:6116   .debug_str:00000000000000d7 .LASF232
     /tmp/ccy5n7IV.s:112    .text:0000000000000044 .LFB47
     /tmp/ccy5n7IV.s:147    .text:000000000000007c .LFE47
     /tmp/ccy5n7IV.s:6005   .debug_loc:00000000000005cc .LLST1
GAS LISTING /tmp/ccy5n7IV.s 			page 41


     /tmp/ccy5n7IV.s:135    .text:000000000000006c .LVL7
     /tmp/ccy5n7IV.s:6136   .debug_str:00000000000001a2 .LASF233
     /tmp/ccy5n7IV.s:6168   .debug_str:00000000000002eb .LASF234
     /tmp/ccy5n7IV.s:447    .text:0000000000000190 .LFB44
     /tmp/ccy5n7IV.s:480    .text:00000000000001c8 .LFE44
     /tmp/ccy5n7IV.s:6019   .debug_loc:0000000000000605 .LLST11
     /tmp/ccy5n7IV.s:6039   .debug_loc:0000000000000653 .LLST12
     /tmp/ccy5n7IV.s:468    .text:00000000000001b8 .LVL34
     /tmp/ccy5n7IV.s:37     .text._ZN14PeriodicThread18periodicActivationEv:0000000000000000 .LFB42
     /tmp/ccy5n7IV.s:55     .text._ZN14PeriodicThread18periodicActivationEv:0000000000000018 .LFE42
     /tmp/ccy5n7IV.s:11     .text._ZN6Thread3runEv:0000000000000000 .LFB41
     /tmp/ccy5n7IV.s:30     .text._ZN6Thread3runEv:0000000000000018 .LFE41
     /tmp/ccy5n7IV.s:6302   .debug_str:00000000000008f9 .LASF235
     /tmp/ccy5n7IV.s:6370   .debug_str:0000000000000ad3 .LASF236
     /tmp/ccy5n7IV.s:6612   .debug_str:00000000000013ea .LASF244
     /tmp/ccy5n7IV.s:6190   .debug_str:0000000000000418 .LASF246
     /tmp/ccy5n7IV.s:6346   .debug_str:0000000000000a2d .LASF237
     /tmp/ccy5n7IV.s:6480   .debug_str:0000000000000ea7 .LASF238
     /tmp/ccy5n7IV.s:6130   .debug_str:000000000000014d .LASF239
     /tmp/ccy5n7IV.s:6202   .debug_str:00000000000004a1 .LASF240
     /tmp/ccy5n7IV.s:6332   .debug_str:00000000000009e1 .LASF241
     /tmp/ccy5n7IV.s:6236   .debug_str:000000000000064c .LASF242
     /tmp/ccy5n7IV.s:6626   .debug_str:000000000000144c .LASF243
     /tmp/ccy5n7IV.s:6362   .debug_str:0000000000000a8d .LASF245
     /tmp/ccy5n7IV.s:6342   .debug_str:0000000000000a11 .LASF247
     /tmp/ccy5n7IV.s:6574   .debug_str:000000000000124f .LASF248
     /tmp/ccy5n7IV.s:6470   .debug_str:0000000000000e55 .LASF249
     /tmp/ccy5n7IV.s:6254   .debug_str:0000000000000720 .LASF250
     /tmp/ccy5n7IV.s:6292   .debug_str:000000000000088d .LASF251
     /tmp/ccy5n7IV.s:6628   .debug_str:000000000000145a .LASF252
     /tmp/ccy5n7IV.s:6298   .debug_str:00000000000008d6 .LASF253
     /tmp/ccy5n7IV.s:6406   .debug_str:0000000000000c42 .LASF254
     /tmp/ccy5n7IV.s:6288   .debug_str:000000000000085a .LASF255
     /tmp/ccy5n7IV.s:6414   .debug_str:0000000000000c7f .LASF256
     /tmp/ccy5n7IV.s:89     .text:000000000000002c .LVL3
     /tmp/ccy5n7IV.s:99     .text:0000000000000040 .LVL4
     /tmp/ccy5n7IV.s:364    .text._ZN14PeriodicThreadD0Ev:0000000000000000 .LVL24
     /tmp/ccy5n7IV.s:396    .text._ZN14PeriodicThreadD0Ev:0000000000000044 .LVL28
     /tmp/ccy5n7IV.s:376    .text._ZN14PeriodicThreadD0Ev:0000000000000018 .LVL25
     /tmp/ccy5n7IV.s:327    .text._ZN14PeriodicThreadD2Ev:0000000000000000 .LVL22
     /tmp/ccy5n7IV.s:739    .text:000000000000030c .LVL49
     /tmp/ccy5n7IV.s:751    .text:0000000000000324 .LVL50
     /tmp/ccy5n7IV.s:783    .text:0000000000000358 .LVL53
     /tmp/ccy5n7IV.s:862    .text:00000000000003b0 .LVL57
     /tmp/ccy5n7IV.s:937    .text:0000000000000440 .LVL64
     /tmp/ccy5n7IV.s:944    .text:000000000000044c .LVL66
     /tmp/ccy5n7IV.s:940    .text:0000000000000444 .LVL65
     /tmp/ccy5n7IV.s:958    .text:0000000000000464 .LVL68
     /tmp/ccy5n7IV.s:886    .text:00000000000003ec .LVL59
     /tmp/ccy5n7IV.s:924    .text:0000000000000434 .LVL63
     /tmp/ccy5n7IV.s:907    .text:0000000000000408 .LVL62
     /tmp/ccy5n7IV.s:955    .text:0000000000000460 .LVL67
     /tmp/ccy5n7IV.s:797    .text:0000000000000360 .LVL54
     /tmp/ccy5n7IV.s:707    .text:00000000000002e4 .LVL47
     /tmp/ccy5n7IV.s:411    .text:000000000000015c .LVL29
     /tmp/ccy5n7IV.s:630    .text:0000000000000278 .LVL43
     /tmp/ccy5n7IV.s:644    .text:0000000000000294 .LVL44
GAS LISTING /tmp/ccy5n7IV.s 			page 42


     /tmp/ccy5n7IV.s:287    .text:000000000000011c .LVL18
     /tmp/ccy5n7IV.s:312    .text:0000000000000154 .LVL21
     /tmp/ccy5n7IV.s:207    .text:00000000000000bc .LVL12
     /tmp/ccy5n7IV.s:234    .text:00000000000000e8 .LVL14
     /tmp/ccy5n7IV.s:227    .text:00000000000000e4 .LVL13
     /tmp/ccy5n7IV.s:525    .text:00000000000001f4 .LVL38
     /tmp/ccy5n7IV.s:537    .text:0000000000000208 .LVL39
     /tmp/ccy5n7IV.s:491    .text:00000000000001c8 .LVL35
     /tmp/ccy5n7IV.s:503    .text:00000000000001dc .LVL36
     /tmp/ccy5n7IV.s:166    .text:000000000000007c .LVL8
     /tmp/ccy5n7IV.s:191    .text:00000000000000b4 .LVL11
     /tmp/ccy5n7IV.s:117    .text:0000000000000044 .LVL5
     /tmp/ccy5n7IV.s:133    .text:0000000000000064 .LVL6
     /tmp/ccy5n7IV.s:450    .text:0000000000000190 .LVL32
     /tmp/ccy5n7IV.s:466    .text:00000000000001b0 .LVL33
     /tmp/ccy5n7IV.s:1101   .debug_info:0000000000000000 .Ldebug_info0
     /tmp/ccy5n7IV.s:5      .text:0000000000000000 .Ltext0
     /tmp/ccy5n7IV.s:1095   .text:00000000000004d0 .Letext0
     /tmp/ccy5n7IV.s:926    .text:0000000000000434 .LBE43
     /tmp/ccy5n7IV.s:948    .text:000000000000044c .LBB50
     /tmp/ccy5n7IV.s:960    .text:0000000000000464 .LBE50
     /tmp/ccy5n7IV.s:150    .gcc_except_table:0000000000000000 .LLSDA47
     /tmp/ccy5n7IV.s:271    .gcc_except_table:0000000000000004 .LLSDA57
     /tmp/ccy5n7IV.s:974    .gcc_except_table:0000000000000008 .LLSDA69
                           .group:0000000000000000 _ZN14PeriodicThreadD5Ev

UNDEFINED SYMBOLS
_Z9sem_closeP10KSemaphore
__gxx_personality_v0
_ZdlPv
_ZdaPv
_ZN15MemoryAllocator8instanceEv
_ZN15MemoryAllocator9kmem_freeEPv
_Z11thread_exitv
_Z8sem_openPP10KSemaphorej
_Z8sem_waitP10KSemaphore
_Z10sem_signalP10KSemaphore
_Z15thread_dispatchv
_Z13thread_createPP3TCBPFvPvES2_
_Z10time_sleepm
_Z4putcc
_Z4getcv
_ZN15MemoryAllocator10kmem_allocEm
_Unwind_Resume
