GAS LISTING /tmp/cc79WQQ6.s 			page 1


   1              		.file	"syscall_c.cpp"
   2              		.option pic
   3              		.option norelax
   4              		.text
   5              	.Ltext0:
   6              		.align	2
   7              		.globl	_Z9mem_allocm
   9              	_Z9mem_allocm:
  10              	.LFB19:
  11              		.file 1 "src/syscall_c.cpp"
   1:src/syscall_c.cpp **** #include "../h/syscall_c.hpp"
   2:src/syscall_c.cpp **** #include "../lib/console.h"
   3:src/syscall_c.cpp **** 
   4:src/syscall_c.cpp **** /**
   5:src/syscall_c.cpp ****  * C API function for allocation on heap
   6:src/syscall_c.cpp ****  * @param size Size in bytes to be allocated
   7:src/syscall_c.cpp ****  * @return pointer to allocated heap space
   8:src/syscall_c.cpp ****  */
   9:src/syscall_c.cpp **** void* mem_alloc(size_t size) {
  12              		.loc 1 9 30
  13              		.cfi_startproc
  14              	.LVL0:
  15 0000 130101FF 		addi	sp,sp,-16
  16              		.cfi_def_cfa_offset 16
  17 0004 23348100 		sd	s0,8(sp)
  18              		.cfi_offset 8, -8
  19 0008 13040101 		addi	s0,sp,16
  20              		.cfi_def_cfa 8, 0
  10:src/syscall_c.cpp ****     size_t size_in_blocks = (size + MEM_BLOCK_SIZE - 1) / MEM_BLOCK_SIZE;
  21              		.loc 1 10 5
  22              		.loc 1 10 52 is_stmt 0
  23 000c 1305F503 		addi	a0,a0,63
  24              	.LVL1:
  25              		.loc 1 10 12
  26 0010 13556500 		srli	a0,a0,6
  27              	.LVL2:
  11:src/syscall_c.cpp ****     
  12:src/syscall_c.cpp ****     __asm__ volatile("mv a1, %0" : : "r"(size_in_blocks)); //send size as argument for ecall
  28              		.loc 1 12 5 is_stmt 1
  29              		.loc 1 12 58 is_stmt 0
  30              	#APP
  31              	# 12 "src/syscall_c.cpp" 1
  13              	    __asm__ volatile("li a0, 0x01"); //send opcode as second argument (0x01 - mem_alloc)
  32              		mv a1, a0
  33              	# 0 "" 2
  34              		.loc 1 13 5 is_stmt 1
  35              		.loc 1 13 36 is_stmt 0
  36              	# 13 "src/syscall_c.cpp" 1
  14              	    __asm__ volatile("ecall");
  37              		li a0, 0x01
  38              	# 0 "" 2
  39              		.loc 1 14 5 is_stmt 1
  40              		.loc 1 14 30 is_stmt 0
  41              	# 14 "src/syscall_c.cpp" 1
  15              	
  16:src/syscall_c.cpp ****     void* ret;
  42              		ecall
GAS LISTING /tmp/cc79WQQ6.s 			page 2


  43              	# 0 "" 2
  44              		.loc 1 16 5 is_stmt 1
  17:src/syscall_c.cpp ****     __asm__ volatile("mv %0, a0" : "=r"(ret));
  45              		.loc 1 17 5
  46              		.loc 1 17 46 is_stmt 0
  47              	# 17 "src/syscall_c.cpp" 1
  18              	    return ret;
  48              		mv a0, a0
  49              	# 0 "" 2
  50              	.LVL3:
  51              		.loc 1 18 5 is_stmt 1
  19:src/syscall_c.cpp **** }
  52              		.loc 1 19 1 is_stmt 0
  53              	#NO_APP
  54 0024 03348100 		ld	s0,8(sp)
  55              		.cfi_restore 8
  56              		.cfi_def_cfa 2, 16
  57 0028 13010101 		addi	sp,sp,16
  58              		.cfi_def_cfa_offset 0
  59 002c 67800000 		jr	ra
  60              		.cfi_endproc
  61              	.LFE19:
  63              		.align	2
  64              		.globl	_Z8mem_freePv
  66              	_Z8mem_freePv:
  67              	.LFB20:
  20:src/syscall_c.cpp **** 
  21:src/syscall_c.cpp **** /**
  22:src/syscall_c.cpp ****  * C API function to free allocated space
  23:src/syscall_c.cpp ****  * @param ptr pointer to heap space allocated by mem_alloc
  24:src/syscall_c.cpp ****  * @return negative error code or 0 for successfull free
  25:src/syscall_c.cpp ****  */
  26:src/syscall_c.cpp **** int mem_free (void* ptr) {
  68              		.loc 1 26 26 is_stmt 1
  69              		.cfi_startproc
  70              	.LVL4:
  71 0030 130101FF 		addi	sp,sp,-16
  72              		.cfi_def_cfa_offset 16
  73 0034 23348100 		sd	s0,8(sp)
  74              		.cfi_offset 8, -8
  75 0038 13040101 		addi	s0,sp,16
  76              		.cfi_def_cfa 8, 0
  27:src/syscall_c.cpp ****     __asm__ volatile("mv a1, %0" : : "r"(ptr)); //send pointer as argument for ecall
  77              		.loc 1 27 5
  78              		.loc 1 27 47 is_stmt 0
  79              	#APP
  80              	# 27 "src/syscall_c.cpp" 1
  28              	    __asm__ volatile("li a0, 0x02"); //send opcode as second argument (0x02 - mem_free)
  81              		mv a1, a0
  82              	# 0 "" 2
  83              		.loc 1 28 5 is_stmt 1
  84              		.loc 1 28 36 is_stmt 0
  85              	# 28 "src/syscall_c.cpp" 1
  29              	    __asm__ volatile("ecall");
  86              		li a0, 0x02
  87              	# 0 "" 2
  88              		.loc 1 29 5 is_stmt 1
GAS LISTING /tmp/cc79WQQ6.s 			page 3


  89              		.loc 1 29 30 is_stmt 0
  90              	# 29 "src/syscall_c.cpp" 1
  30              	
  31:src/syscall_c.cpp ****     uint64 ret;
  91              		ecall
  92              	# 0 "" 2
  93              		.loc 1 31 5 is_stmt 1
  32:src/syscall_c.cpp ****     __asm__ volatile("mv %0, a0" : "=r"(ret));
  94              		.loc 1 32 5
  95              		.loc 1 32 46 is_stmt 0
  96              	# 32 "src/syscall_c.cpp" 1
  33              	    return (int)ret;
  97              		mv a0, a0
  98              	# 0 "" 2
  99              	.LVL5:
 100              		.loc 1 33 5 is_stmt 1
  34:src/syscall_c.cpp **** }
 101              		.loc 1 34 1 is_stmt 0
 102              	#NO_APP
 103 004c 1B050500 		sext.w	a0,a0
 104              	.LVL6:
 105 0050 03348100 		ld	s0,8(sp)
 106              		.cfi_restore 8
 107              		.cfi_def_cfa 2, 16
 108 0054 13010101 		addi	sp,sp,16
 109              		.cfi_def_cfa_offset 0
 110 0058 67800000 		jr	ra
 111              		.cfi_endproc
 112              	.LFE20:
 114              		.align	2
 115              		.globl	_Z13thread_createPP3TCBPFvPvES2_
 117              	_Z13thread_createPP3TCBPFvPvES2_:
 118              	.LFB21:
  35:src/syscall_c.cpp **** 
  36:src/syscall_c.cpp **** /**
  37:src/syscall_c.cpp ****  * C API function to start thread on start_routine function
  38:src/syscall_c.cpp ****  * @param arg pointer to the function argument
  39:src/syscall_c.cpp ****  * @param handle if created successfully here is written the handle of new thread
  40:src/syscall_c.cpp ****  * @return negative error code or 0 for successfull free
  41:src/syscall_c.cpp ****  */
  42:src/syscall_c.cpp **** int thread_create(thread_t* handle, void (*start_routine)(void*), void* arg) {
 119              		.loc 1 42 78 is_stmt 1
 120              		.cfi_startproc
 121              	.LVL7:
 122 005c 130101FF 		addi	sp,sp,-16
 123              		.cfi_def_cfa_offset 16
 124 0060 23348100 		sd	s0,8(sp)
 125              		.cfi_offset 8, -8
 126 0064 13040101 		addi	s0,sp,16
 127              		.cfi_def_cfa 8, 0
  43:src/syscall_c.cpp **** 
  44:src/syscall_c.cpp ****     __asm__ volatile("mv a7, %0" : : "r"(arg));
 128              		.loc 1 44 5
 129              		.loc 1 44 47 is_stmt 0
 130              	#APP
 131              	# 44 "src/syscall_c.cpp" 1
  45              	    __asm__ volatile("mv a2, %0" : : "r"(start_routine));
GAS LISTING /tmp/cc79WQQ6.s 			page 4


 132              		mv a7, a2
 133              	# 0 "" 2
 134              		.loc 1 45 5 is_stmt 1
 135              		.loc 1 45 57 is_stmt 0
 136              	# 45 "src/syscall_c.cpp" 1
  46              	    __asm__ volatile("mv a1, %0" : : "r"(handle));
 137              		mv a2, a1
 138              	# 0 "" 2
 139              		.loc 1 46 5 is_stmt 1
 140              		.loc 1 46 50 is_stmt 0
 141              	# 46 "src/syscall_c.cpp" 1
  47              	    __asm__ volatile("li a0, 0x11");
 142              		mv a1, a0
 143              	# 0 "" 2
 144              		.loc 1 47 5 is_stmt 1
 145              		.loc 1 47 36 is_stmt 0
 146              	# 47 "src/syscall_c.cpp" 1
  48              	    __asm__ volatile("ecall");
 147              		li a0, 0x11
 148              	# 0 "" 2
 149              		.loc 1 48 5 is_stmt 1
 150              		.loc 1 48 30 is_stmt 0
 151              	# 48 "src/syscall_c.cpp" 1
  49              	
  50:src/syscall_c.cpp ****     uint64 returnValue;
 152              		ecall
 153              	# 0 "" 2
 154              		.loc 1 50 5 is_stmt 1
  51:src/syscall_c.cpp ****     __asm__ volatile("mv %0, a0" : "=r"(returnValue));
 155              		.loc 1 51 5
 156              		.loc 1 51 54 is_stmt 0
 157              	# 51 "src/syscall_c.cpp" 1
  52              	    return (int)returnValue;
 158              		mv a0, a0
 159              	# 0 "" 2
 160              	.LVL8:
 161              		.loc 1 52 5 is_stmt 1
  53:src/syscall_c.cpp **** }
 162              		.loc 1 53 1 is_stmt 0
 163              	#NO_APP
 164 0080 1B050500 		sext.w	a0,a0
 165              	.LVL9:
 166 0084 03348100 		ld	s0,8(sp)
 167              		.cfi_restore 8
 168              		.cfi_def_cfa 2, 16
 169 0088 13010101 		addi	sp,sp,16
 170              		.cfi_def_cfa_offset 0
 171 008c 67800000 		jr	ra
 172              		.cfi_endproc
 173              	.LFE21:
 175              		.align	2
 176              		.globl	_Z15thread_dispatchv
 178              	_Z15thread_dispatchv:
 179              	.LFB22:
  54:src/syscall_c.cpp **** 
  55:src/syscall_c.cpp **** /**
  56:src/syscall_c.cpp ****  * C API function to potentially switch to another thread
GAS LISTING /tmp/cc79WQQ6.s 			page 5


  57:src/syscall_c.cpp ****  */
  58:src/syscall_c.cpp **** void thread_dispatch (){
 180              		.loc 1 58 24 is_stmt 1
 181              		.cfi_startproc
 182 0090 130101FF 		addi	sp,sp,-16
 183              		.cfi_def_cfa_offset 16
 184 0094 23348100 		sd	s0,8(sp)
 185              		.cfi_offset 8, -8
 186 0098 13040101 		addi	s0,sp,16
 187              		.cfi_def_cfa 8, 0
  59:src/syscall_c.cpp ****     __asm__ volatile("li a0, 0x13");
 188              		.loc 1 59 5
 189              		.loc 1 59 36 is_stmt 0
 190              	#APP
 191              	# 59 "src/syscall_c.cpp" 1
  60              	    __asm__ volatile ("ecall");
 192              		li a0, 0x13
 193              	# 0 "" 2
 194              		.loc 1 60 5 is_stmt 1
 195              		.loc 1 60 31 is_stmt 0
 196              	# 60 "src/syscall_c.cpp" 1
  61              	}...
 197              		ecall
 198              	# 0 "" 2
 199              		.loc 1 61 1
 200              	#NO_APP
 201 00a4 03348100 		ld	s0,8(sp)
 202              		.cfi_restore 8
 203              		.cfi_def_cfa 2, 16
 204 00a8 13010101 		addi	sp,sp,16
 205              		.cfi_def_cfa_offset 0
 206 00ac 67800000 		jr	ra
 207              		.cfi_endproc
 208              	.LFE22:
 210              	.Letext0:
 211              		.file 2 "src/../h/../lib/hw.h"
 212              		.file 3 "src/../h/list.hpp"
 213              		.file 4 "src/../h/tcb.hpp"
 214              		.file 5 "src/../h/syscall_c.hpp"
GAS LISTING /tmp/cc79WQQ6.s 			page 6


DEFINED SYMBOLS
                            *ABS*:0000000000000000 syscall_c.cpp
     /tmp/cc79WQQ6.s:9      .text:0000000000000000 _Z9mem_allocm
     /tmp/cc79WQQ6.s:13     .text:0000000000000000 .L0 
     /tmp/cc79WQQ6.s:15     .text:0000000000000000 .L0 
     /tmp/cc79WQQ6.s:16     .text:0000000000000004 .L0 
     /tmp/cc79WQQ6.s:18     .text:0000000000000008 .L0 
     /tmp/cc79WQQ6.s:20     .text:000000000000000c .L0 
     /tmp/cc79WQQ6.s:22     .text:000000000000000c .L0 
     /tmp/cc79WQQ6.s:23     .text:000000000000000c .L0 
     /tmp/cc79WQQ6.s:26     .text:0000000000000010 .L0 
     /tmp/cc79WQQ6.s:29     .text:0000000000000014 .L0 
   src/syscall_c.cpp:12     .text:0000000000000014 .L0 
     /tmp/cc79WQQ6.s:35     .text:0000000000000018 .L0 
   src/syscall_c.cpp:13     .text:0000000000000018 .L0 
     /tmp/cc79WQQ6.s:40     .text:000000000000001c .L0 
   src/syscall_c.cpp:14     .text:000000000000001c .L0 
     /tmp/cc79WQQ6.s:45     .text:0000000000000020 .L0 
     /tmp/cc79WQQ6.s:46     .text:0000000000000020 .L0 
   src/syscall_c.cpp:17     .text:0000000000000020 .L0 
     /tmp/cc79WQQ6.s:52     .text:0000000000000024 .L0 
     /tmp/cc79WQQ6.s:54     .text:0000000000000024 .L0 
     /tmp/cc79WQQ6.s:55     .text:0000000000000028 .L0 
     /tmp/cc79WQQ6.s:56     .text:0000000000000028 .L0 
     /tmp/cc79WQQ6.s:58     .text:000000000000002c .L0 
     /tmp/cc79WQQ6.s:60     .text:0000000000000030 .L0 
     /tmp/cc79WQQ6.s:66     .text:0000000000000030 _Z8mem_freePv
     /tmp/cc79WQQ6.s:69     .text:0000000000000030 .L0 
     /tmp/cc79WQQ6.s:71     .text:0000000000000030 .L0 
     /tmp/cc79WQQ6.s:72     .text:0000000000000034 .L0 
     /tmp/cc79WQQ6.s:74     .text:0000000000000038 .L0 
     /tmp/cc79WQQ6.s:76     .text:000000000000003c .L0 
     /tmp/cc79WQQ6.s:78     .text:000000000000003c .L0 
   src/syscall_c.cpp:27     .text:000000000000003c .L0 
     /tmp/cc79WQQ6.s:84     .text:0000000000000040 .L0 
   src/syscall_c.cpp:28     .text:0000000000000040 .L0 
     /tmp/cc79WQQ6.s:89     .text:0000000000000044 .L0 
   src/syscall_c.cpp:29     .text:0000000000000044 .L0 
     /tmp/cc79WQQ6.s:94     .text:0000000000000048 .L0 
     /tmp/cc79WQQ6.s:95     .text:0000000000000048 .L0 
   src/syscall_c.cpp:32     .text:0000000000000048 .L0 
     /tmp/cc79WQQ6.s:101    .text:000000000000004c .L0 
     /tmp/cc79WQQ6.s:103    .text:000000000000004c .L0 
     /tmp/cc79WQQ6.s:106    .text:0000000000000054 .L0 
     /tmp/cc79WQQ6.s:107    .text:0000000000000054 .L0 
     /tmp/cc79WQQ6.s:109    .text:0000000000000058 .L0 
     /tmp/cc79WQQ6.s:111    .text:000000000000005c .L0 
     /tmp/cc79WQQ6.s:117    .text:000000000000005c _Z13thread_createPP3TCBPFvPvES2_
     /tmp/cc79WQQ6.s:120    .text:000000000000005c .L0 
     /tmp/cc79WQQ6.s:122    .text:000000000000005c .L0 
     /tmp/cc79WQQ6.s:123    .text:0000000000000060 .L0 
     /tmp/cc79WQQ6.s:125    .text:0000000000000064 .L0 
     /tmp/cc79WQQ6.s:127    .text:0000000000000068 .L0 
     /tmp/cc79WQQ6.s:129    .text:0000000000000068 .L0 
   src/syscall_c.cpp:44     .text:0000000000000068 .L0 
     /tmp/cc79WQQ6.s:135    .text:000000000000006c .L0 
   src/syscall_c.cpp:45     .text:000000000000006c .L0 
GAS LISTING /tmp/cc79WQQ6.s 			page 7


     /tmp/cc79WQQ6.s:140    .text:0000000000000070 .L0 
   src/syscall_c.cpp:46     .text:0000000000000070 .L0 
     /tmp/cc79WQQ6.s:145    .text:0000000000000074 .L0 
   src/syscall_c.cpp:47     .text:0000000000000074 .L0 
     /tmp/cc79WQQ6.s:150    .text:0000000000000078 .L0 
   src/syscall_c.cpp:48     .text:0000000000000078 .L0 
     /tmp/cc79WQQ6.s:155    .text:000000000000007c .L0 
     /tmp/cc79WQQ6.s:156    .text:000000000000007c .L0 
   src/syscall_c.cpp:51     .text:000000000000007c .L0 
     /tmp/cc79WQQ6.s:162    .text:0000000000000080 .L0 
     /tmp/cc79WQQ6.s:164    .text:0000000000000080 .L0 
     /tmp/cc79WQQ6.s:167    .text:0000000000000088 .L0 
     /tmp/cc79WQQ6.s:168    .text:0000000000000088 .L0 
     /tmp/cc79WQQ6.s:170    .text:000000000000008c .L0 
     /tmp/cc79WQQ6.s:172    .text:0000000000000090 .L0 
     /tmp/cc79WQQ6.s:178    .text:0000000000000090 _Z15thread_dispatchv
     /tmp/cc79WQQ6.s:181    .text:0000000000000090 .L0 
     /tmp/cc79WQQ6.s:182    .text:0000000000000090 .L0 
     /tmp/cc79WQQ6.s:183    .text:0000000000000094 .L0 
     /tmp/cc79WQQ6.s:185    .text:0000000000000098 .L0 
     /tmp/cc79WQQ6.s:187    .text:000000000000009c .L0 
     /tmp/cc79WQQ6.s:189    .text:000000000000009c .L0 
   src/syscall_c.cpp:59     .text:000000000000009c .L0 
     /tmp/cc79WQQ6.s:195    .text:00000000000000a0 .L0 
   src/syscall_c.cpp:60     .text:00000000000000a0 .L0 
     /tmp/cc79WQQ6.s:201    .text:00000000000000a4 .L0 
     /tmp/cc79WQQ6.s:202    .text:00000000000000a8 .L0 
     /tmp/cc79WQQ6.s:203    .text:00000000000000a8 .L0 
     /tmp/cc79WQQ6.s:205    .text:00000000000000ac .L0 
     /tmp/cc79WQQ6.s:207    .text:00000000000000b0 .L0 
     /tmp/cc79WQQ6.s:215    .text:00000000000000b0 .L0 
     /tmp/cc79WQQ6.s:954    .debug_abbrev:0000000000000000 .Ldebug_abbrev0
     /tmp/cc79WQQ6.s:2061   .debug_str:00000000000004ee .LASF84
     /tmp/cc79WQQ6.s:1967   .debug_str:0000000000000269 .LASF85
     /tmp/cc79WQQ6.s:2017   .debug_str:00000000000003b4 .LASF86
     /tmp/cc79WQQ6.s:5      .text:0000000000000000 .Ltext0
     /tmp/cc79WQQ6.s:210    .text:00000000000000b0 .Letext0
     /tmp/cc79WQQ6.s:1885   .debug_line:0000000000000000 .Ldebug_line0
     /tmp/cc79WQQ6.s:2003   .debug_str:0000000000000350 .LASF0
     /tmp/cc79WQQ6.s:2015   .debug_str:00000000000003a1 .LASF1
     /tmp/cc79WQQ6.s:1993   .debug_str:0000000000000309 .LASF2
     /tmp/cc79WQQ6.s:1963   .debug_str:0000000000000257 .LASF4
     /tmp/cc79WQQ6.s:2047   .debug_str:000000000000049a .LASF3
     /tmp/cc79WQQ6.s:1905   .debug_str:0000000000000096 .LASF5
     /tmp/cc79WQQ6.s:2021   .debug_str:00000000000003ef .LASF6
     /tmp/cc79WQQ6.s:2001   .debug_str:000000000000033d .LASF7
     /tmp/cc79WQQ6.s:2069   .debug_str:00000000000005e3 .LASF8
     /tmp/cc79WQQ6.s:1949   .debug_str:00000000000001ce .LASF9
     /tmp/cc79WQQ6.s:2027   .debug_str:000000000000041b .LASF10
     /tmp/cc79WQQ6.s:2065   .debug_str:00000000000005be .LASF11
     /tmp/cc79WQQ6.s:1909   .debug_str:00000000000000a8 .LASF12
     /tmp/cc79WQQ6.s:1893   .debug_str:000000000000002f .LASF13
     /tmp/cc79WQQ6.s:1917   .debug_str:00000000000000db .LASF14
     /tmp/cc79WQQ6.s:2043   .debug_str:000000000000047e .LASF15
     /tmp/cc79WQQ6.s:1925   .debug_str:000000000000011c .LASF16
     /tmp/cc79WQQ6.s:1983   .debug_str:00000000000002dc .LASF34
     /tmp/cc79WQQ6.s:1985   .debug_str:00000000000002e6 .LASF87
GAS LISTING /tmp/cc79WQQ6.s 			page 8


     /tmp/cc79WQQ6.s:1929   .debug_str:0000000000000140 .LASF17
     /tmp/cc79WQQ6.s:1989   .debug_str:00000000000002f8 .LASF18
     /tmp/cc79WQQ6.s:1961   .debug_str:0000000000000252 .LASF19
     /tmp/cc79WQQ6.s:2057   .debug_str:00000000000004d2 .LASF21
     /tmp/cc79WQQ6.s:2041   .debug_str:0000000000000467 .LASF26
     /tmp/cc79WQQ6.s:1999   .debug_str:0000000000000333 .LASF71
     /tmp/cc79WQQ6.s:1951   .debug_str:00000000000001dc .LASF73
     /tmp/cc79WQQ6.s:2059   .debug_str:00000000000004e5 .LASF20
     /tmp/cc79WQQ6.s:1933   .debug_str:0000000000000161 .LASF22
     /tmp/cc79WQQ6.s:1947   .debug_str:00000000000001c6 .LASF23
     /tmp/cc79WQQ6.s:1931   .debug_str:0000000000000145 .LASF24
     /tmp/cc79WQQ6.s:2063   .debug_str:00000000000005b2 .LASF25
     /tmp/cc79WQQ6.s:1891   .debug_str:0000000000000011 .LASF27
     /tmp/cc79WQQ6.s:1915   .debug_str:00000000000000d1 .LASF28
     /tmp/cc79WQQ6.s:1975   .debug_str:0000000000000295 .LASF29
     /tmp/cc79WQQ6.s:2009   .debug_str:000000000000036c .LASF30
     /tmp/cc79WQQ6.s:1899   .debug_str:0000000000000051 .LASF31
     /tmp/cc79WQQ6.s:1979   .debug_str:00000000000002c5 .LASF32
     /tmp/cc79WQQ6.s:2077   .debug_str:0000000000000616 .LASF33
     /tmp/cc79WQQ6.s:1897   .debug_str:0000000000000049 .LASF88
     /tmp/cc79WQQ6.s:1935   .debug_str:000000000000017e .LASF35
     /tmp/cc79WQQ6.s:2033   .debug_str:0000000000000444 .LASF36
     /tmp/cc79WQQ6.s:2023   .debug_str:0000000000000402 .LASF37
     /tmp/cc79WQQ6.s:1921   .debug_str:00000000000000f7 .LASF38
     /tmp/cc79WQQ6.s:1995   .debug_str:0000000000000317 .LASF39
     /tmp/cc79WQQ6.s:1957   .debug_str:0000000000000213 .LASF40
     /tmp/cc79WQQ6.s:1895   .debug_str:000000000000003f .LASF41
     /tmp/cc79WQQ6.s:1977   .debug_str:00000000000002b0 .LASF42
     /tmp/cc79WQQ6.s:1965   .debug_str:000000000000025e .LASF43
     /tmp/cc79WQQ6.s:2067   .debug_str:00000000000005cd .LASF44
     /tmp/cc79WQQ6.s:1987   .debug_str:00000000000002eb .LASF45
     /tmp/cc79WQQ6.s:1903   .debug_str:000000000000007d .LASF46
     /tmp/cc79WQQ6.s:1973   .debug_str:0000000000000288 .LASF47
     /tmp/cc79WQQ6.s:2013   .debug_str:0000000000000381 .LASF48
     /tmp/cc79WQQ6.s:2037   .debug_str:000000000000045d .LASF89
     /tmp/cc79WQQ6.s:2045   .debug_str:0000000000000494 .LASF90
     /tmp/cc79WQQ6.s:1997   .debug_str:0000000000000323 .LASF91
     /tmp/cc79WQQ6.s:1937   .debug_str:0000000000000183 .LASF92
     /tmp/cc79WQQ6.s:2079   .debug_str:0000000000000630 .LASF93
     /tmp/cc79WQQ6.s:1969   .debug_str:000000000000027b .LASF49
     /tmp/cc79WQQ6.s:2007   .debug_str:0000000000000366 .LASF50
     /tmp/cc79WQQ6.s:1971   .debug_str:0000000000000280 .LASF51
     /tmp/cc79WQQ6.s:2011   .debug_str:0000000000000377 .LASF52
     /tmp/cc79WQQ6.s:2053   .debug_str:00000000000004c2 .LASF53
     /tmp/cc79WQQ6.s:1889   .debug_str:0000000000000009 .LASF54
     /tmp/cc79WQQ6.s:1955   .debug_str:000000000000020c .LASF55
     /tmp/cc79WQQ6.s:1981   .debug_str:00000000000002ce .LASF60
     /tmp/cc79WQQ6.s:1953   .debug_str:00000000000001f3 .LASF62
     /tmp/cc79WQQ6.s:2073   .debug_str:00000000000005fd .LASF56
     /tmp/cc79WQQ6.s:1959   .debug_str:000000000000022a .LASF58
     /tmp/cc79WQQ6.s:2051   .debug_str:00000000000004bd .LASF57
     /tmp/cc79WQQ6.s:2029   .debug_str:000000000000042a .LASF59
     /tmp/cc79WQQ6.s:2005   .debug_str:000000000000035d .LASF61
     /tmp/cc79WQQ6.s:1939   .debug_str:000000000000018b .LASF63
     /tmp/cc79WQQ6.s:1911   .debug_str:00000000000000b8 .LASF64
     /tmp/cc79WQQ6.s:2081   .debug_str:0000000000000642 .LASF94
     /tmp/cc79WQQ6.s:2049   .debug_str:00000000000004ac .LASF95
GAS LISTING /tmp/cc79WQQ6.s 			page 9


     /tmp/cc79WQQ6.s:1907   .debug_str:000000000000009d .LASF65
     /tmp/cc79WQQ6.s:2075   .debug_str:000000000000060b .LASF66
     /tmp/cc79WQQ6.s:1941   .debug_str:000000000000019e .LASF67
     /tmp/cc79WQQ6.s:1887   .debug_str:0000000000000000 .LASF68
     /tmp/cc79WQQ6.s:1913   .debug_str:00000000000000c3 .LASF69
     /tmp/cc79WQQ6.s:2035   .debug_str:0000000000000450 .LASF70
     /tmp/cc79WQQ6.s:1919   .debug_str:00000000000000e7 .LASF96
     /tmp/cc79WQQ6.s:1943   .debug_str:00000000000001a3 .LASF97
     /tmp/cc79WQQ6.s:179    .text:0000000000000090 .LFB22
     /tmp/cc79WQQ6.s:208    .text:00000000000000b0 .LFE22
     /tmp/cc79WQQ6.s:1927   .debug_str:0000000000000132 .LASF72
     /tmp/cc79WQQ6.s:2019   .debug_str:00000000000003ce .LASF74
     /tmp/cc79WQQ6.s:118    .text:000000000000005c .LFB21
     /tmp/cc79WQQ6.s:173    .text:0000000000000090 .LFE21
     /tmp/cc79WQQ6.s:2055   .debug_str:00000000000004cb .LASF75
     /tmp/cc79WQQ6.s:1792   .debug_loc:0000000000000000 .LLST4
     /tmp/cc79WQQ6.s:1945   .debug_str:00000000000001b8 .LASF76
     /tmp/cc79WQQ6.s:1991   .debug_str:00000000000002fd .LASF77
     /tmp/cc79WQQ6.s:1806   .debug_loc:0000000000000039 .LLST5
     /tmp/cc79WQQ6.s:2031   .debug_str:000000000000043b .LASF78
     /tmp/cc79WQQ6.s:2025   .debug_str:000000000000040d .LASF79
     /tmp/cc79WQQ6.s:67     .text:0000000000000030 .LFB20
     /tmp/cc79WQQ6.s:112    .text:000000000000005c .LFE20
     /tmp/cc79WQQ6.s:1813   .debug_loc:000000000000005c .LLST2
     /tmp/cc79WQQ6.s:1827   .debug_loc:0000000000000095 .LLST3
     /tmp/cc79WQQ6.s:2071   .debug_str:00000000000005f3 .LASF80
     /tmp/cc79WQQ6.s:1923   .debug_str:000000000000010e .LASF81
     /tmp/cc79WQQ6.s:10     .text:0000000000000000 .LFB19
     /tmp/cc79WQQ6.s:61     .text:0000000000000030 .LFE19
     /tmp/cc79WQQ6.s:2039   .debug_str:0000000000000462 .LASF82
     /tmp/cc79WQQ6.s:1834   .debug_loc:00000000000000b8 .LLST0
     /tmp/cc79WQQ6.s:1901   .debug_str:000000000000006e .LASF83
     /tmp/cc79WQQ6.s:1854   .debug_loc:0000000000000106 .LLST1
     /tmp/cc79WQQ6.s:121    .text:000000000000005c .LVL7
     /tmp/cc79WQQ6.s:160    .text:0000000000000080 .LVL8
     /tmp/cc79WQQ6.s:165    .text:0000000000000084 .LVL9
     /tmp/cc79WQQ6.s:70     .text:0000000000000030 .LVL4
     /tmp/cc79WQQ6.s:99     .text:000000000000004c .LVL5
     /tmp/cc79WQQ6.s:104    .text:0000000000000050 .LVL6
     /tmp/cc79WQQ6.s:14     .text:0000000000000000 .LVL0
     /tmp/cc79WQQ6.s:24     .text:0000000000000010 .LVL1
     /tmp/cc79WQQ6.s:27     .text:0000000000000014 .LVL2
     /tmp/cc79WQQ6.s:50     .text:0000000000000024 .LVL3
     /tmp/cc79WQQ6.s:216    .debug_info:0000000000000000 .Ldebug_info0

NO UNDEFINED SYMBOLS
