GAS LISTING /tmp/cc3JgJUP.s 			page 1


   1              		.file	"syscall_c.cpp"
   2              		.option pic
   3              		.option norelax
   4              		.text
   5              	.Ltext0:
   6              		.align	2
   7              		.globl	_Z9mem_allocm
   9              	_Z9mem_allocm:
  10              	.LFB41:
  11              		.file 1 "src/syscall_c.cpp"
   1:src/syscall_c.cpp **** #include "../h/syscall_c.hpp"
   2:src/syscall_c.cpp **** #include "../lib/console.h"
   3:src/syscall_c.cpp **** 
   4:src/syscall_c.cpp **** /**
   5:src/syscall_c.cpp ****  * C API function for allocation on heap
   6:src/syscall_c.cpp ****  * @param size Size in bytes to be allocated
   7:src/syscall_c.cpp ****  * @return pointer to allocated heap space
   8:src/syscall_c.cpp ****  */
   9:src/syscall_c.cpp **** void* mem_alloc(size_t size) {
  12              		.loc 1 9 30
  13              		.cfi_startproc
  14              	.LVL0:
  15 0000 130101FF 		addi	sp,sp,-16
  16              		.cfi_def_cfa_offset 16
  17 0004 23348100 		sd	s0,8(sp)
  18              		.cfi_offset 8, -8
  19 0008 13040101 		addi	s0,sp,16
  20              		.cfi_def_cfa 8, 0
  10:src/syscall_c.cpp ****     size_t size_in_blocks = (size + MEM_BLOCK_SIZE - 1) / MEM_BLOCK_SIZE;
  21              		.loc 1 10 5
  22              		.loc 1 10 52 is_stmt 0
  23 000c 1305F503 		addi	a0,a0,63
  24              	.LVL1:
  25              		.loc 1 10 12
  26 0010 13556500 		srli	a0,a0,6
  27              	.LVL2:
  11:src/syscall_c.cpp ****     
  12:src/syscall_c.cpp ****     __asm__ volatile("mv a1, %0" : : "r"(size_in_blocks)); //send size as argument for ecall
  28              		.loc 1 12 5 is_stmt 1
  29              		.loc 1 12 58 is_stmt 0
  30              	#APP
  31              	# 12 "src/syscall_c.cpp" 1
  13              	    __asm__ volatile("li a0, 0x01"); //send opcode as second argument (0x01 - mem_alloc)
  32              		mv a1, a0
  33              	# 0 "" 2
  34              		.loc 1 13 5 is_stmt 1
  35              		.loc 1 13 36 is_stmt 0
  36              	# 13 "src/syscall_c.cpp" 1
  14              	    __asm__ volatile("ecall");
  37              		li a0, 0x01
  38              	# 0 "" 2
  39              		.loc 1 14 5 is_stmt 1
  40              		.loc 1 14 30 is_stmt 0
  41              	# 14 "src/syscall_c.cpp" 1
  15              	
  16:src/syscall_c.cpp ****     void* ret;
  42              		ecall
GAS LISTING /tmp/cc3JgJUP.s 			page 2


  43              	# 0 "" 2
  44              		.loc 1 16 5 is_stmt 1
  17:src/syscall_c.cpp ****     __asm__ volatile("mv %0, a0" : "=r"(ret));
  45              		.loc 1 17 5
  46              		.loc 1 17 46 is_stmt 0
  47              	# 17 "src/syscall_c.cpp" 1
  18              	    return ret;
  48              		mv a0, a0
  49              	# 0 "" 2
  50              	.LVL3:
  51              		.loc 1 18 5 is_stmt 1
  19:src/syscall_c.cpp **** }
  52              		.loc 1 19 1 is_stmt 0
  53              	#NO_APP
  54 0024 03348100 		ld	s0,8(sp)
  55              		.cfi_restore 8
  56              		.cfi_def_cfa 2, 16
  57 0028 13010101 		addi	sp,sp,16
  58              		.cfi_def_cfa_offset 0
  59 002c 67800000 		jr	ra
  60              		.cfi_endproc
  61              	.LFE41:
  63              		.align	2
  64              		.globl	_Z8mem_freePv
  66              	_Z8mem_freePv:
  67              	.LFB42:
  20:src/syscall_c.cpp **** 
  21:src/syscall_c.cpp **** /**
  22:src/syscall_c.cpp ****  * C API function to free allocated space
  23:src/syscall_c.cpp ****  * @param ptr pointer to heap space allocated by mem_alloc
  24:src/syscall_c.cpp ****  * @return negative error code or 0 for successfull free
  25:src/syscall_c.cpp ****  */
  26:src/syscall_c.cpp **** int mem_free (void* ptr) {
  68              		.loc 1 26 26 is_stmt 1
  69              		.cfi_startproc
  70              	.LVL4:
  71 0030 130101FF 		addi	sp,sp,-16
  72              		.cfi_def_cfa_offset 16
  73 0034 23348100 		sd	s0,8(sp)
  74              		.cfi_offset 8, -8
  75 0038 13040101 		addi	s0,sp,16
  76              		.cfi_def_cfa 8, 0
  27:src/syscall_c.cpp ****     __asm__ volatile("mv a1, %0" : : "r"(ptr)); //send pointer as argument for ecall
  77              		.loc 1 27 5
  78              		.loc 1 27 47 is_stmt 0
  79              	#APP
  80              	# 27 "src/syscall_c.cpp" 1
  28              	    __asm__ volatile("li a0, 0x02"); //send opcode as second argument (0x02 - mem_free)
  81              		mv a1, a0
  82              	# 0 "" 2
  83              		.loc 1 28 5 is_stmt 1
  84              		.loc 1 28 36 is_stmt 0
  85              	# 28 "src/syscall_c.cpp" 1
  29              	    __asm__ volatile("ecall");
  86              		li a0, 0x02
  87              	# 0 "" 2
  88              		.loc 1 29 5 is_stmt 1
GAS LISTING /tmp/cc3JgJUP.s 			page 3


  89              		.loc 1 29 30 is_stmt 0
  90              	# 29 "src/syscall_c.cpp" 1
  30              	
  31:src/syscall_c.cpp ****     uint64 ret;
  91              		ecall
  92              	# 0 "" 2
  93              		.loc 1 31 5 is_stmt 1
  32:src/syscall_c.cpp ****     __asm__ volatile("mv %0, a0" : "=r"(ret));
  94              		.loc 1 32 5
  95              		.loc 1 32 46 is_stmt 0
  96              	# 32 "src/syscall_c.cpp" 1
  33              	    return (int)ret;
  97              		mv a0, a0
  98              	# 0 "" 2
  99              	.LVL5:
 100              		.loc 1 33 5 is_stmt 1
  34:src/syscall_c.cpp **** }
 101              		.loc 1 34 1 is_stmt 0
 102              	#NO_APP
 103 004c 1B050500 		sext.w	a0,a0
 104              	.LVL6:
 105 0050 03348100 		ld	s0,8(sp)
 106              		.cfi_restore 8
 107              		.cfi_def_cfa 2, 16
 108 0054 13010101 		addi	sp,sp,16
 109              		.cfi_def_cfa_offset 0
 110 0058 67800000 		jr	ra
 111              		.cfi_endproc
 112              	.LFE42:
 114              		.align	2
 115              		.globl	_Z13thread_createPP3TCBPFvPvES2_
 117              	_Z13thread_createPP3TCBPFvPvES2_:
 118              	.LFB43:
  35:src/syscall_c.cpp **** 
  36:src/syscall_c.cpp **** /**
  37:src/syscall_c.cpp ****  * C API function to start thread on start_routine function
  38:src/syscall_c.cpp ****  * @param arg pointer to the function argument
  39:src/syscall_c.cpp ****  * @param handle if created successfully here is written the handle of new thread
  40:src/syscall_c.cpp ****  * @return negative error code or 0 for successfull free
  41:src/syscall_c.cpp ****  */
  42:src/syscall_c.cpp **** int thread_create(thread_t* handle, void (*start_routine)(void*), void* arg) {
 119              		.loc 1 42 78 is_stmt 1
 120              		.cfi_startproc
 121              	.LVL7:
 122 005c 130101FF 		addi	sp,sp,-16
 123              		.cfi_def_cfa_offset 16
 124 0060 23348100 		sd	s0,8(sp)
 125              		.cfi_offset 8, -8
 126 0064 13040101 		addi	s0,sp,16
 127              		.cfi_def_cfa 8, 0
  43:src/syscall_c.cpp **** 
  44:src/syscall_c.cpp ****     __asm__ volatile("mv a7, %0" : : "r"(arg));
 128              		.loc 1 44 5
 129              		.loc 1 44 47 is_stmt 0
 130              	#APP
 131              	# 44 "src/syscall_c.cpp" 1
  45              	    __asm__ volatile("mv a2, %0" : : "r"(start_routine));
GAS LISTING /tmp/cc3JgJUP.s 			page 4


 132              		mv a7, a2
 133              	# 0 "" 2
 134              		.loc 1 45 5 is_stmt 1
 135              		.loc 1 45 57 is_stmt 0
 136              	# 45 "src/syscall_c.cpp" 1
  46              	    __asm__ volatile("mv a1, %0" : : "r"(handle));
 137              		mv a2, a1
 138              	# 0 "" 2
 139              		.loc 1 46 5 is_stmt 1
 140              		.loc 1 46 50 is_stmt 0
 141              	# 46 "src/syscall_c.cpp" 1
  47              	    __asm__ volatile("li a0, 0x11");
 142              		mv a1, a0
 143              	# 0 "" 2
 144              		.loc 1 47 5 is_stmt 1
 145              		.loc 1 47 36 is_stmt 0
 146              	# 47 "src/syscall_c.cpp" 1
  48              	    __asm__ volatile("ecall");
 147              		li a0, 0x11
 148              	# 0 "" 2
 149              		.loc 1 48 5 is_stmt 1
 150              		.loc 1 48 30 is_stmt 0
 151              	# 48 "src/syscall_c.cpp" 1
  49              	
  50:src/syscall_c.cpp ****     uint64 returnValue;
 152              		ecall
 153              	# 0 "" 2
 154              		.loc 1 50 5 is_stmt 1
  51:src/syscall_c.cpp ****     __asm__ volatile("mv %0, a0" : "=r"(returnValue));
 155              		.loc 1 51 5
 156              		.loc 1 51 54 is_stmt 0
 157              	# 51 "src/syscall_c.cpp" 1
  52              	    return (int)returnValue;
 158              		mv a0, a0
 159              	# 0 "" 2
 160              	.LVL8:
 161              		.loc 1 52 5 is_stmt 1
  53:src/syscall_c.cpp **** }
 162              		.loc 1 53 1 is_stmt 0
 163              	#NO_APP
 164 0080 1B050500 		sext.w	a0,a0
 165              	.LVL9:
 166 0084 03348100 		ld	s0,8(sp)
 167              		.cfi_restore 8
 168              		.cfi_def_cfa 2, 16
 169 0088 13010101 		addi	sp,sp,16
 170              		.cfi_def_cfa_offset 0
 171 008c 67800000 		jr	ra
 172              		.cfi_endproc
 173              	.LFE43:
 175              		.align	2
 176              		.globl	_Z11thread_exitv
 178              	_Z11thread_exitv:
 179              	.LFB44:
  54:src/syscall_c.cpp **** 
  55:src/syscall_c.cpp **** /**
  56:src/syscall_c.cpp ****  * C API function to terminate current thread
GAS LISTING /tmp/cc3JgJUP.s 			page 5


  57:src/syscall_c.cpp ****  * @return negative error code or 0 for successfull free
  58:src/syscall_c.cpp ****  */
  59:src/syscall_c.cpp **** int thread_exit() {
 180              		.loc 1 59 19 is_stmt 1
 181              		.cfi_startproc
 182 0090 130101FF 		addi	sp,sp,-16
 183              		.cfi_def_cfa_offset 16
 184 0094 23348100 		sd	s0,8(sp)
 185              		.cfi_offset 8, -8
 186 0098 13040101 		addi	s0,sp,16
 187              		.cfi_def_cfa 8, 0
  60:src/syscall_c.cpp ****     __asm__ volatile("li a0, 0x12");
 188              		.loc 1 60 5
 189              		.loc 1 60 36 is_stmt 0
 190              	#APP
 191              	# 60 "src/syscall_c.cpp" 1
  61              	    __asm__ volatile("ecall");
 192              		li a0, 0x12
 193              	# 0 "" 2
 194              		.loc 1 61 5 is_stmt 1
 195              		.loc 1 61 30 is_stmt 0
 196              	# 61 "src/syscall_c.cpp" 1
  62              	
  63:src/syscall_c.cpp ****     uint64 returnValue;
 197              		ecall
 198              	# 0 "" 2
 199              		.loc 1 63 5 is_stmt 1
  64:src/syscall_c.cpp ****     __asm__ volatile("mv %0, a0" : "=r"(returnValue));
 200              		.loc 1 64 5
 201              		.loc 1 64 54 is_stmt 0
 202              	# 64 "src/syscall_c.cpp" 1
  65              	    return (int)returnValue;
 203              		mv a0, a0
 204              	# 0 "" 2
 205              	.LVL10:
 206              		.loc 1 65 5 is_stmt 1
  66:src/syscall_c.cpp **** }
 207              		.loc 1 66 1 is_stmt 0
 208              	#NO_APP
 209 00a8 1B050500 		sext.w	a0,a0
 210              	.LVL11:
 211 00ac 03348100 		ld	s0,8(sp)
 212              		.cfi_restore 8
 213              		.cfi_def_cfa 2, 16
 214 00b0 13010101 		addi	sp,sp,16
 215              		.cfi_def_cfa_offset 0
 216 00b4 67800000 		jr	ra
 217              		.cfi_endproc
 218              	.LFE44:
 220              		.align	2
 221              		.globl	_Z15thread_dispatchv
 223              	_Z15thread_dispatchv:
 224              	.LFB45:
  67:src/syscall_c.cpp **** 
  68:src/syscall_c.cpp **** /**
  69:src/syscall_c.cpp ****  * C API function to potentially switch to another thread
  70:src/syscall_c.cpp ****  */
GAS LISTING /tmp/cc3JgJUP.s 			page 6


  71:src/syscall_c.cpp **** void thread_dispatch (){
 225              		.loc 1 71 24 is_stmt 1
 226              		.cfi_startproc
 227 00b8 130101FF 		addi	sp,sp,-16
 228              		.cfi_def_cfa_offset 16
 229 00bc 23348100 		sd	s0,8(sp)
 230              		.cfi_offset 8, -8
 231 00c0 13040101 		addi	s0,sp,16
 232              		.cfi_def_cfa 8, 0
  72:src/syscall_c.cpp ****     __asm__ volatile("li a0, 0x13");
 233              		.loc 1 72 5
 234              		.loc 1 72 36 is_stmt 0
 235              	#APP
 236              	# 72 "src/syscall_c.cpp" 1
  73              	    __asm__ volatile ("ecall");
 237              		li a0, 0x13
 238              	# 0 "" 2
 239              		.loc 1 73 5 is_stmt 1
 240              		.loc 1 73 31 is_stmt 0
 241              	# 73 "src/syscall_c.cpp" 1
  74              	}
 242              		ecall
 243              	# 0 "" 2
 244              		.loc 1 74 1
 245              	#NO_APP
 246 00cc 03348100 		ld	s0,8(sp)
 247              		.cfi_restore 8
 248              		.cfi_def_cfa 2, 16
 249 00d0 13010101 		addi	sp,sp,16
 250              		.cfi_def_cfa_offset 0
 251 00d4 67800000 		jr	ra
 252              		.cfi_endproc
 253              	.LFE45:
 255              		.align	2
 256              		.globl	_Z8sem_openPP10KSemaphorej
 258              	_Z8sem_openPP10KSemaphorej:
 259              	.LFB46:
  75:src/syscall_c.cpp **** 
  76:src/syscall_c.cpp **** /**
  77:src/syscall_c.cpp ****  * C API function to open a semaphore
  78:src/syscall_c.cpp ****  * @param handle pointer to semaphore handle
  79:src/syscall_c.cpp ****  * @param init initial value of semaphore
  80:src/syscall_c.cpp ****  * @return negative error code or 0 for success
  81:src/syscall_c.cpp ****  */
  82:src/syscall_c.cpp **** int sem_open(sem_t* handle, unsigned init) {
 260              		.loc 1 82 44 is_stmt 1
 261              		.cfi_startproc
 262              	.LVL12:
 263 00d8 130101FF 		addi	sp,sp,-16
 264              		.cfi_def_cfa_offset 16
 265 00dc 23348100 		sd	s0,8(sp)
 266              		.cfi_offset 8, -8
 267 00e0 13040101 		addi	s0,sp,16
 268              		.cfi_def_cfa 8, 0
  83:src/syscall_c.cpp ****     __asm__ volatile ("mv a2, %0" : : "r" (init));
 269              		.loc 1 83 5
 270              		.loc 1 83 50 is_stmt 0
GAS LISTING /tmp/cc3JgJUP.s 			page 7


 271              	#APP
 272              	# 83 "src/syscall_c.cpp" 1
  84              	    __asm__ volatile ("mv a1, %0" : : "r" (handle));
 273              		mv a2, a1
 274              	# 0 "" 2
 275              		.loc 1 84 5 is_stmt 1
 276              		.loc 1 84 52 is_stmt 0
 277              	# 84 "src/syscall_c.cpp" 1
  85              	    __asm__ volatile("li a0, 0x21");
 278              		mv a1, a0
 279              	# 0 "" 2
 280              		.loc 1 85 5 is_stmt 1
 281              		.loc 1 85 36 is_stmt 0
 282              	# 85 "src/syscall_c.cpp" 1
  86              	    __asm__ volatile ("ecall");
 283              		li a0, 0x21
 284              	# 0 "" 2
 285              		.loc 1 86 5 is_stmt 1
 286              		.loc 1 86 31 is_stmt 0
 287              	# 86 "src/syscall_c.cpp" 1
  87              	
  88:src/syscall_c.cpp ****     uint64 returnValue;
 288              		ecall
 289              	# 0 "" 2
 290              		.loc 1 88 5 is_stmt 1
  89:src/syscall_c.cpp ****     __asm__ volatile("mv %0, a0" : "=r"(returnValue));
 291              		.loc 1 89 5
 292              		.loc 1 89 54 is_stmt 0
 293              	# 89 "src/syscall_c.cpp" 1
  90              	    return (int)returnValue;
 294              		mv a0, a0
 295              	# 0 "" 2
 296              	.LVL13:
 297              		.loc 1 90 5 is_stmt 1
  91:src/syscall_c.cpp **** }
 298              		.loc 1 91 1 is_stmt 0
 299              	#NO_APP
 300 00f8 1B050500 		sext.w	a0,a0
 301              	.LVL14:
 302 00fc 03348100 		ld	s0,8(sp)
 303              		.cfi_restore 8
 304              		.cfi_def_cfa 2, 16
 305 0100 13010101 		addi	sp,sp,16
 306              		.cfi_def_cfa_offset 0
 307 0104 67800000 		jr	ra
 308              		.cfi_endproc
 309              	.LFE46:
 311              		.align	2
 312              		.globl	_Z9sem_closeP10KSemaphore
 314              	_Z9sem_closeP10KSemaphore:
 315              	.LFB47:
  92:src/syscall_c.cpp **** 
  93:src/syscall_c.cpp **** /**
  94:src/syscall_c.cpp ****  * C API function to close a semaphore
  95:src/syscall_c.cpp ****  * @param handle semaphore handle
  96:src/syscall_c.cpp ****  * @return negative error code or 0 for success
  97:src/syscall_c.cpp ****  */
GAS LISTING /tmp/cc3JgJUP.s 			page 8


  98:src/syscall_c.cpp **** int sem_close(sem_t handle) {
 316              		.loc 1 98 29 is_stmt 1
 317              		.cfi_startproc
 318              	.LVL15:
 319 0108 130101FF 		addi	sp,sp,-16
 320              		.cfi_def_cfa_offset 16
 321 010c 23348100 		sd	s0,8(sp)
 322              		.cfi_offset 8, -8
 323 0110 13040101 		addi	s0,sp,16
 324              		.cfi_def_cfa 8, 0
  99:src/syscall_c.cpp ****     __asm__ volatile ("mv a1, %0" : : "r" (handle));
 325              		.loc 1 99 5
 326              		.loc 1 99 52 is_stmt 0
 327              	#APP
 328              	# 99 "src/syscall_c.cpp" 1
 100              	    __asm__ volatile("li a0, 0x22");
 329              		mv a1, a0
 330              	# 0 "" 2
 331              		.loc 1 100 5 is_stmt 1
 332              		.loc 1 100 36 is_stmt 0
 333              	# 100 "src/syscall_c.cpp" 1
 101              	    __asm__ volatile ("ecall");
 334              		li a0, 0x22
 335              	# 0 "" 2
 336              		.loc 1 101 5 is_stmt 1
 337              		.loc 1 101 31 is_stmt 0
 338              	# 101 "src/syscall_c.cpp" 1
 102              	
 103:src/syscall_c.cpp ****     uint64 returnValue;
 339              		ecall
 340              	# 0 "" 2
 341              		.loc 1 103 5 is_stmt 1
 104:src/syscall_c.cpp ****     __asm__ volatile("mv %0, a0" : "=r"(returnValue));
 342              		.loc 1 104 5
 343              		.loc 1 104 54 is_stmt 0
 344              	# 104 "src/syscall_c.cpp" 1
 105              	    return (int)returnValue;
 345              		mv a0, a0
 346              	# 0 "" 2
 347              	.LVL16:
 348              		.loc 1 105 5 is_stmt 1
 106:src/syscall_c.cpp **** }
 349              		.loc 1 106 1 is_stmt 0
 350              	#NO_APP
 351 0124 1B050500 		sext.w	a0,a0
 352              	.LVL17:
 353 0128 03348100 		ld	s0,8(sp)
 354              		.cfi_restore 8
 355              		.cfi_def_cfa 2, 16
 356 012c 13010101 		addi	sp,sp,16
 357              		.cfi_def_cfa_offset 0
 358 0130 67800000 		jr	ra
 359              		.cfi_endproc
 360              	.LFE47:
 362              		.align	2
 363              		.globl	_Z8sem_waitP10KSemaphore
 365              	_Z8sem_waitP10KSemaphore:
GAS LISTING /tmp/cc3JgJUP.s 			page 9


 366              	.LFB48:
 107:src/syscall_c.cpp **** 
 108:src/syscall_c.cpp **** /**
 109:src/syscall_c.cpp ****  * C API function to wait on a semaphore
 110:src/syscall_c.cpp ****  * @param id semaphore handle
 111:src/syscall_c.cpp ****  * @return negative error code or 0 for success
 112:src/syscall_c.cpp ****  */
 113:src/syscall_c.cpp **** int sem_wait(sem_t id) {
 367              		.loc 1 113 24 is_stmt 1
 368              		.cfi_startproc
 369              	.LVL18:
 370 0134 130101FF 		addi	sp,sp,-16
 371              		.cfi_def_cfa_offset 16
 372 0138 23348100 		sd	s0,8(sp)
 373              		.cfi_offset 8, -8
 374 013c 13040101 		addi	s0,sp,16
 375              		.cfi_def_cfa 8, 0
 114:src/syscall_c.cpp ****     __asm__ volatile ("mv a1, %0" : : "r" (id));
 376              		.loc 1 114 5
 377              		.loc 1 114 48 is_stmt 0
 378              	#APP
 379              	# 114 "src/syscall_c.cpp" 1
 115              	    __asm__ volatile("li a0, 0x23");
 380              		mv a1, a0
 381              	# 0 "" 2
 382              		.loc 1 115 5 is_stmt 1
 383              		.loc 1 115 36 is_stmt 0
 384              	# 115 "src/syscall_c.cpp" 1
 116              	    __asm__ volatile ("ecall");
 385              		li a0, 0x23
 386              	# 0 "" 2
 387              		.loc 1 116 5 is_stmt 1
 388              		.loc 1 116 31 is_stmt 0
 389              	# 116 "src/syscall_c.cpp" 1
 117              	
 118:src/syscall_c.cpp ****     uint64 returnValue;
 390              		ecall
 391              	# 0 "" 2
 392              		.loc 1 118 5 is_stmt 1
 119:src/syscall_c.cpp ****     __asm__ volatile("mv %0, a0" : "=r"(returnValue));
 393              		.loc 1 119 5
 394              		.loc 1 119 54 is_stmt 0
 395              	# 119 "src/syscall_c.cpp" 1
 120              	    return (int)returnValue;
 396              		mv a0, a0
 397              	# 0 "" 2
 398              	.LVL19:
 399              		.loc 1 120 5 is_stmt 1
 121:src/syscall_c.cpp **** }
 400              		.loc 1 121 1 is_stmt 0
 401              	#NO_APP
 402 0150 1B050500 		sext.w	a0,a0
 403              	.LVL20:
 404 0154 03348100 		ld	s0,8(sp)
 405              		.cfi_restore 8
 406              		.cfi_def_cfa 2, 16
 407 0158 13010101 		addi	sp,sp,16
GAS LISTING /tmp/cc3JgJUP.s 			page 10


 408              		.cfi_def_cfa_offset 0
 409 015c 67800000 		jr	ra
 410              		.cfi_endproc
 411              	.LFE48:
 413              		.align	2
 414              		.globl	_Z10sem_wait_nP10KSemaphorej
 416              	_Z10sem_wait_nP10KSemaphorej:
 417              	.LFB49:
 122:src/syscall_c.cpp **** 
 123:src/syscall_c.cpp **** /**
 124:src/syscall_c.cpp ****  * C API function to wait on a semaphore for n resources
 125:src/syscall_c.cpp ****  * @param id semaphore handle
 126:src/syscall_c.cpp ****  * @param n number of resources to wait for
 127:src/syscall_c.cpp ****  * @return negative error code or 0 for success
 128:src/syscall_c.cpp ****  */
 129:src/syscall_c.cpp **** int sem_wait_n(sem_t id, unsigned n) { //bitan je redosled jer n stize u a1 a id u a0, i drugi redo
 418              		.loc 1 129 38 is_stmt 1
 419              		.cfi_startproc
 420              	.LVL21:
 421 0160 130101FF 		addi	sp,sp,-16
 422              		.cfi_def_cfa_offset 16
 423 0164 23348100 		sd	s0,8(sp)
 424              		.cfi_offset 8, -8
 425 0168 13040101 		addi	s0,sp,16
 426              		.cfi_def_cfa 8, 0
 130:src/syscall_c.cpp ****     __asm__ volatile ("mv a2, %0" : : "r" (n));
 427              		.loc 1 130 5
 428              		.loc 1 130 47 is_stmt 0
 429              	#APP
 430              	# 130 "src/syscall_c.cpp" 1
 131              	    __asm__ volatile ("mv a1, %0" : : "r" (id));
 431              		mv a2, a1
 432              	# 0 "" 2
 433              		.loc 1 131 5 is_stmt 1
 434              		.loc 1 131 48 is_stmt 0
 435              	# 131 "src/syscall_c.cpp" 1
 132              	    __asm__ volatile("li a0, 0x25");
 436              		mv a1, a0
 437              	# 0 "" 2
 438              		.loc 1 132 5 is_stmt 1
 439              		.loc 1 132 36 is_stmt 0
 440              	# 132 "src/syscall_c.cpp" 1
 133              	    __asm__ volatile ("ecall");
 441              		li a0, 0x25
 442              	# 0 "" 2
 443              		.loc 1 133 5 is_stmt 1
 444              		.loc 1 133 31 is_stmt 0
 445              	# 133 "src/syscall_c.cpp" 1
 134              	
 135:src/syscall_c.cpp ****     uint64 returnValue;
 446              		ecall
 447              	# 0 "" 2
 448              		.loc 1 135 5 is_stmt 1
 136:src/syscall_c.cpp ****     __asm__ volatile("mv %0, a0" : "=r"(returnValue));
 449              		.loc 1 136 5
 450              		.loc 1 136 54 is_stmt 0
 451              	# 136 "src/syscall_c.cpp" 1
GAS LISTING /tmp/cc3JgJUP.s 			page 11


 137              	    return (int)returnValue;
 452              		mv a0, a0
 453              	# 0 "" 2
 454              	.LVL22:
 455              		.loc 1 137 5 is_stmt 1
 138:src/syscall_c.cpp **** }
 456              		.loc 1 138 1 is_stmt 0
 457              	#NO_APP
 458 0180 1B050500 		sext.w	a0,a0
 459              	.LVL23:
 460 0184 03348100 		ld	s0,8(sp)
 461              		.cfi_restore 8
 462              		.cfi_def_cfa 2, 16
 463 0188 13010101 		addi	sp,sp,16
 464              		.cfi_def_cfa_offset 0
 465 018c 67800000 		jr	ra
 466              		.cfi_endproc
 467              	.LFE49:
 469              		.align	2
 470              		.globl	_Z10sem_signalP10KSemaphore
 472              	_Z10sem_signalP10KSemaphore:
 473              	.LFB50:
 139:src/syscall_c.cpp **** 
 140:src/syscall_c.cpp **** /**
 141:src/syscall_c.cpp ****  * C API function to signal a semaphore
 142:src/syscall_c.cpp ****  * @param id semaphore handle
 143:src/syscall_c.cpp ****  * @return negative error code or 0 for success
 144:src/syscall_c.cpp ****  */
 145:src/syscall_c.cpp **** int sem_signal(sem_t id) {
 474              		.loc 1 145 26 is_stmt 1
 475              		.cfi_startproc
 476              	.LVL24:
 477 0190 130101FF 		addi	sp,sp,-16
 478              		.cfi_def_cfa_offset 16
 479 0194 23348100 		sd	s0,8(sp)
 480              		.cfi_offset 8, -8
 481 0198 13040101 		addi	s0,sp,16
 482              		.cfi_def_cfa 8, 0
 146:src/syscall_c.cpp ****     __asm__ volatile ("mv a1, %0" : : "r" (id));
 483              		.loc 1 146 5
 484              		.loc 1 146 48 is_stmt 0
 485              	#APP
 486              	# 146 "src/syscall_c.cpp" 1
 147              	    __asm__ volatile("li a0, 0x24");
 487              		mv a1, a0
 488              	# 0 "" 2
 489              		.loc 1 147 5 is_stmt 1
 490              		.loc 1 147 36 is_stmt 0
 491              	# 147 "src/syscall_c.cpp" 1
 148              	    __asm__ volatile ("ecall");
 492              		li a0, 0x24
 493              	# 0 "" 2
 494              		.loc 1 148 5 is_stmt 1
 495              		.loc 1 148 31 is_stmt 0
 496              	# 148 "src/syscall_c.cpp" 1
 149              	
 150:src/syscall_c.cpp ****     uint64 returnValue;
GAS LISTING /tmp/cc3JgJUP.s 			page 12


 497              		ecall
 498              	# 0 "" 2
 499              		.loc 1 150 5 is_stmt 1
 151:src/syscall_c.cpp ****     __asm__ volatile("mv %0, a0" : "=r"(returnValue));
 500              		.loc 1 151 5
 501              		.loc 1 151 54 is_stmt 0
 502              	# 151 "src/syscall_c.cpp" 1
 152              	    return (int)returnValue;
 503              		mv a0, a0
 504              	# 0 "" 2
 505              	.LVL25:
 506              		.loc 1 152 5 is_stmt 1
 153:src/syscall_c.cpp **** }
 507              		.loc 1 153 1 is_stmt 0
 508              	#NO_APP
 509 01ac 1B050500 		sext.w	a0,a0
 510              	.LVL26:
 511 01b0 03348100 		ld	s0,8(sp)
 512              		.cfi_restore 8
 513              		.cfi_def_cfa 2, 16
 514 01b4 13010101 		addi	sp,sp,16
 515              		.cfi_def_cfa_offset 0
 516 01b8 67800000 		jr	ra
 517              		.cfi_endproc
 518              	.LFE50:
 520              		.align	2
 521              		.globl	_Z12sem_signal_nP10KSemaphorej
 523              	_Z12sem_signal_nP10KSemaphorej:
 524              	.LFB51:
 154:src/syscall_c.cpp **** 
 155:src/syscall_c.cpp **** /**
 156:src/syscall_c.cpp ****  * C API function to signal a semaphore for n resources
 157:src/syscall_c.cpp ****  * @param id semaphore handle
 158:src/syscall_c.cpp ****  * @param n number of resources to signal
 159:src/syscall_c.cpp ****  * @return negative error code or 0 for success
 160:src/syscall_c.cpp ****  */
 161:src/syscall_c.cpp **** int sem_signal_n(sem_t id, unsigned n) {
 525              		.loc 1 161 40 is_stmt 1
 526              		.cfi_startproc
 527              	.LVL27:
 528 01bc 130101FF 		addi	sp,sp,-16
 529              		.cfi_def_cfa_offset 16
 530 01c0 23348100 		sd	s0,8(sp)
 531              		.cfi_offset 8, -8
 532 01c4 13040101 		addi	s0,sp,16
 533              		.cfi_def_cfa 8, 0
 162:src/syscall_c.cpp ****     __asm__ volatile ("mv a2, %0" : : "r" (n));
 534              		.loc 1 162 5
 535              		.loc 1 162 47 is_stmt 0
 536              	#APP
 537              	# 162 "src/syscall_c.cpp" 1
 163              	    __asm__ volatile ("mv a1, %0" : : "r" (id));
 538              		mv a2, a1
 539              	# 0 "" 2
 540              		.loc 1 163 5 is_stmt 1
 541              		.loc 1 163 48 is_stmt 0
 542              	# 163 "src/syscall_c.cpp" 1
GAS LISTING /tmp/cc3JgJUP.s 			page 13


 164              	    __asm__ volatile("li a0, 0x26");
 543              		mv a1, a0
 544              	# 0 "" 2
 545              		.loc 1 164 5 is_stmt 1
 546              		.loc 1 164 36 is_stmt 0
 547              	# 164 "src/syscall_c.cpp" 1
 165              	    __asm__ volatile ("ecall");
 548              		li a0, 0x26
 549              	# 0 "" 2
 550              		.loc 1 165 5 is_stmt 1
 551              		.loc 1 165 31 is_stmt 0
 552              	# 165 "src/syscall_c.cpp" 1
 166              	
 167:src/syscall_c.cpp ****     uint64 returnValue;
 553              		ecall
 554              	# 0 "" 2
 555              		.loc 1 167 5 is_stmt 1
 168:src/syscall_c.cpp ****     __asm__ volatile("mv %0, a0" : "=r"(returnValue));
 556              		.loc 1 168 5
 557              		.loc 1 168 54 is_stmt 0
 558              	# 168 "src/syscall_c.cpp" 1
 169              	    return (int)returnValue;
 559              		mv a0, a0
 560              	# 0 "" 2
 561              	.LVL28:
 562              		.loc 1 169 5 is_stmt 1
 170:src/syscall_c.cpp **** }
 563              		.loc 1 170 1 is_stmt 0
 564              	#NO_APP
 565 01dc 1B050500 		sext.w	a0,a0
 566              	.LVL29:
 567 01e0 03348100 		ld	s0,8(sp)
 568              		.cfi_restore 8
 569              		.cfi_def_cfa 2, 16
 570 01e4 13010101 		addi	sp,sp,16
 571              		.cfi_def_cfa_offset 0
 572 01e8 67800000 		jr	ra
 573              		.cfi_endproc
 574              	.LFE51:
 576              		.align	2
 577              		.globl	_Z10time_sleepm
 579              	_Z10time_sleepm:
 580              	.LFB52:
 171:src/syscall_c.cpp **** 
 172:src/syscall_c.cpp **** /**
 173:src/syscall_c.cpp ****  * C API function to sleep for a specified time
 174:src/syscall_c.cpp ****  * @param time time to sleep
 175:src/syscall_c.cpp ****  * @return negative error code or 0 for success
 176:src/syscall_c.cpp ****  */
 177:src/syscall_c.cpp **** int time_sleep(time_t time) {
 581              		.loc 1 177 29 is_stmt 1
 582              		.cfi_startproc
 583              	.LVL30:
 584 01ec 130101FF 		addi	sp,sp,-16
 585              		.cfi_def_cfa_offset 16
 586 01f0 23348100 		sd	s0,8(sp)
 587              		.cfi_offset 8, -8
GAS LISTING /tmp/cc3JgJUP.s 			page 14


 588 01f4 13040101 		addi	s0,sp,16
 589              		.cfi_def_cfa 8, 0
 178:src/syscall_c.cpp ****     __asm__ volatile ("mv a1, %0" : : "r" (time));
 590              		.loc 1 178 5
 591              		.loc 1 178 50 is_stmt 0
 592              	#APP
 593              	# 178 "src/syscall_c.cpp" 1
 179              	    __asm__ volatile("li a0, 0x31");
 594              		mv a1, a0
 595              	# 0 "" 2
 596              		.loc 1 179 5 is_stmt 1
 597              		.loc 1 179 36 is_stmt 0
 598              	# 179 "src/syscall_c.cpp" 1
 180              	    __asm__ volatile ("ecall");
 599              		li a0, 0x31
 600              	# 0 "" 2
 601              		.loc 1 180 5 is_stmt 1
 602              		.loc 1 180 31 is_stmt 0
 603              	# 180 "src/syscall_c.cpp" 1
 181              	
 182:src/syscall_c.cpp ****     uint64 returnValue;
 604              		ecall
 605              	# 0 "" 2
 606              		.loc 1 182 5 is_stmt 1
 183:src/syscall_c.cpp ****     __asm__ volatile("mv %0, a0" : "=r"(returnValue));
 607              		.loc 1 183 5
 608              		.loc 1 183 54 is_stmt 0
 609              	# 183 "src/syscall_c.cpp" 1
 184              	    return (int)returnValue;
 610              		mv a0, a0
 611              	# 0 "" 2
 612              	.LVL31:
 613              		.loc 1 184 5 is_stmt 1
 185:src/syscall_c.cpp **** }
 614              		.loc 1 185 1 is_stmt 0
 615              	#NO_APP
 616 0208 1B050500 		sext.w	a0,a0
 617              	.LVL32:
 618 020c 03348100 		ld	s0,8(sp)
 619              		.cfi_restore 8
 620              		.cfi_def_cfa 2, 16
 621 0210 13010101 		addi	sp,sp,16
 622              		.cfi_def_cfa_offset 0
 623 0214 67800000 		jr	ra
 624              		.cfi_endproc
 625              	.LFE52:
 627              		.align	2
 628              		.globl	_Z4getcv
 630              	_Z4getcv:
 631              	.LFB53:
 186:src/syscall_c.cpp **** 
 187:src/syscall_c.cpp **** /**
 188:src/syscall_c.cpp ****  * C API function to get a character from the input buffer
 189:src/syscall_c.cpp ****  * @return character from the input buffer
 190:src/syscall_c.cpp ****  */
 191:src/syscall_c.cpp **** char getc() {
 632              		.loc 1 191 13 is_stmt 1
GAS LISTING /tmp/cc3JgJUP.s 			page 15


 633              		.cfi_startproc
 634 0218 130101FF 		addi	sp,sp,-16
 635              		.cfi_def_cfa_offset 16
 636 021c 23348100 		sd	s0,8(sp)
 637              		.cfi_offset 8, -8
 638 0220 13040101 		addi	s0,sp,16
 639              		.cfi_def_cfa 8, 0
 192:src/syscall_c.cpp ****     __asm__ volatile("li a0, 0x41");
 640              		.loc 1 192 5
 641              		.loc 1 192 36 is_stmt 0
 642              	#APP
 643              	# 192 "src/syscall_c.cpp" 1
 193              	    __asm__ volatile ("ecall");
 644              		li a0, 0x41
 645              	# 0 "" 2
 646              		.loc 1 193 5 is_stmt 1
 647              		.loc 1 193 31 is_stmt 0
 648              	# 193 "src/syscall_c.cpp" 1
 194              	
 195:src/syscall_c.cpp ****     char ret;
 649              		ecall
 650              	# 0 "" 2
 651              		.loc 1 195 5 is_stmt 1
 196:src/syscall_c.cpp ****     __asm__ volatile("mv %0, a0" : "=r"(ret));
 652              		.loc 1 196 5
 653              		.loc 1 196 46 is_stmt 0
 654              	# 196 "src/syscall_c.cpp" 1
 197              	    return ret;
 655              		mv a0, a0
 656              	# 0 "" 2
 657              	.LVL33:
 658              		.loc 1 197 5 is_stmt 1
 198:src/syscall_c.cpp **** }
 659              		.loc 1 198 1 is_stmt 0
 660              	#NO_APP
 661 0230 1375F50F 		andi	a0,a0,0xff
 662 0234 03348100 		ld	s0,8(sp)
 663              		.cfi_restore 8
 664              		.cfi_def_cfa 2, 16
 665 0238 13010101 		addi	sp,sp,16
 666              		.cfi_def_cfa_offset 0
 667 023c 67800000 		jr	ra
 668              		.cfi_endproc
 669              	.LFE53:
 671              		.align	2
 672              		.globl	_Z4putcc
 674              	_Z4putcc:
 675              	.LFB54:
 199:src/syscall_c.cpp **** 
 200:src/syscall_c.cpp **** /**
 201:src/syscall_c.cpp ****  * C API function to put a character into the output buffer
 202:src/syscall_c.cpp ****  * @param c character to put into the output buffer
 203:src/syscall_c.cpp ****  */
 204:src/syscall_c.cpp **** void putc(char c) {
 676              		.loc 1 204 19 is_stmt 1
 677              		.cfi_startproc
 678              	.LVL34:
GAS LISTING /tmp/cc3JgJUP.s 			page 16


 679 0240 130101FF 		addi	sp,sp,-16
 680              		.cfi_def_cfa_offset 16
 681 0244 23348100 		sd	s0,8(sp)
 682              		.cfi_offset 8, -8
 683 0248 13040101 		addi	s0,sp,16
 684              		.cfi_def_cfa 8, 0
 205:src/syscall_c.cpp ****     __asm__ volatile("mv a1, %0" : : "r" (c));
 685              		.loc 1 205 5
 686              		.loc 1 205 46 is_stmt 0
 687              	#APP
 688              	# 205 "src/syscall_c.cpp" 1
 206              	    __asm__ volatile("li a0, 0x42");
 689              		mv a1, a0
 690              	# 0 "" 2
 691              		.loc 1 206 5 is_stmt 1
 692              		.loc 1 206 36 is_stmt 0
 693              	# 206 "src/syscall_c.cpp" 1
 207              	    __asm__ volatile ("ecall");
 694              		li a0, 0x42
 695              	# 0 "" 2
 696              		.loc 1 207 5 is_stmt 1
 697              		.loc 1 207 31 is_stmt 0
 698              	# 207 "src/syscall_c.cpp" 1
 208              	}
 699              		ecall
 700              	# 0 "" 2
 701              		.loc 1 208 1
 702              	#NO_APP
 703 0258 03348100 		ld	s0,8(sp)
 704              		.cfi_restore 8
 705              		.cfi_def_cfa 2, 16
 706 025c 13010101 		addi	sp,sp,16
 707              		.cfi_def_cfa_offset 0
 708 0260 67800000 		jr	ra
 709              		.cfi_endproc
 710              	.LFE54:
 712              	.Letext0:
 713              		.file 2 "src/../h/../lib/hw.h"
 714              		.file 3 "src/../h/list.hpp"
 715              		.file 4 "src/../h/tcb.hpp"
 716              		.file 5 "src/../h/semaphore.hpp"
 717              		.file 6 "src/../h/syscall_c.hpp"
GAS LISTING /tmp/cc3JgJUP.s 			page 17


DEFINED SYMBOLS
                            *ABS*:0000000000000000 syscall_c.cpp
     /tmp/cc3JgJUP.s:9      .text:0000000000000000 _Z9mem_allocm
     /tmp/cc3JgJUP.s:13     .text:0000000000000000 .L0 
     /tmp/cc3JgJUP.s:15     .text:0000000000000000 .L0 
     /tmp/cc3JgJUP.s:16     .text:0000000000000004 .L0 
     /tmp/cc3JgJUP.s:18     .text:0000000000000008 .L0 
     /tmp/cc3JgJUP.s:20     .text:000000000000000c .L0 
     /tmp/cc3JgJUP.s:22     .text:000000000000000c .L0 
     /tmp/cc3JgJUP.s:23     .text:000000000000000c .L0 
     /tmp/cc3JgJUP.s:26     .text:0000000000000010 .L0 
     /tmp/cc3JgJUP.s:29     .text:0000000000000014 .L0 
   src/syscall_c.cpp:12     .text:0000000000000014 .L0 
     /tmp/cc3JgJUP.s:35     .text:0000000000000018 .L0 
   src/syscall_c.cpp:13     .text:0000000000000018 .L0 
     /tmp/cc3JgJUP.s:40     .text:000000000000001c .L0 
   src/syscall_c.cpp:14     .text:000000000000001c .L0 
     /tmp/cc3JgJUP.s:45     .text:0000000000000020 .L0 
     /tmp/cc3JgJUP.s:46     .text:0000000000000020 .L0 
   src/syscall_c.cpp:17     .text:0000000000000020 .L0 
     /tmp/cc3JgJUP.s:52     .text:0000000000000024 .L0 
     /tmp/cc3JgJUP.s:54     .text:0000000000000024 .L0 
     /tmp/cc3JgJUP.s:55     .text:0000000000000028 .L0 
     /tmp/cc3JgJUP.s:56     .text:0000000000000028 .L0 
     /tmp/cc3JgJUP.s:58     .text:000000000000002c .L0 
     /tmp/cc3JgJUP.s:60     .text:0000000000000030 .L0 
     /tmp/cc3JgJUP.s:66     .text:0000000000000030 _Z8mem_freePv
     /tmp/cc3JgJUP.s:69     .text:0000000000000030 .L0 
     /tmp/cc3JgJUP.s:71     .text:0000000000000030 .L0 
     /tmp/cc3JgJUP.s:72     .text:0000000000000034 .L0 
     /tmp/cc3JgJUP.s:74     .text:0000000000000038 .L0 
     /tmp/cc3JgJUP.s:76     .text:000000000000003c .L0 
     /tmp/cc3JgJUP.s:78     .text:000000000000003c .L0 
   src/syscall_c.cpp:27     .text:000000000000003c .L0 
     /tmp/cc3JgJUP.s:84     .text:0000000000000040 .L0 
   src/syscall_c.cpp:28     .text:0000000000000040 .L0 
     /tmp/cc3JgJUP.s:89     .text:0000000000000044 .L0 
   src/syscall_c.cpp:29     .text:0000000000000044 .L0 
     /tmp/cc3JgJUP.s:94     .text:0000000000000048 .L0 
     /tmp/cc3JgJUP.s:95     .text:0000000000000048 .L0 
   src/syscall_c.cpp:32     .text:0000000000000048 .L0 
     /tmp/cc3JgJUP.s:101    .text:000000000000004c .L0 
     /tmp/cc3JgJUP.s:103    .text:000000000000004c .L0 
     /tmp/cc3JgJUP.s:106    .text:0000000000000054 .L0 
     /tmp/cc3JgJUP.s:107    .text:0000000000000054 .L0 
     /tmp/cc3JgJUP.s:109    .text:0000000000000058 .L0 
     /tmp/cc3JgJUP.s:111    .text:000000000000005c .L0 
     /tmp/cc3JgJUP.s:117    .text:000000000000005c _Z13thread_createPP3TCBPFvPvES2_
     /tmp/cc3JgJUP.s:120    .text:000000000000005c .L0 
     /tmp/cc3JgJUP.s:122    .text:000000000000005c .L0 
     /tmp/cc3JgJUP.s:123    .text:0000000000000060 .L0 
     /tmp/cc3JgJUP.s:125    .text:0000000000000064 .L0 
     /tmp/cc3JgJUP.s:127    .text:0000000000000068 .L0 
     /tmp/cc3JgJUP.s:129    .text:0000000000000068 .L0 
   src/syscall_c.cpp:44     .text:0000000000000068 .L0 
     /tmp/cc3JgJUP.s:135    .text:000000000000006c .L0 
   src/syscall_c.cpp:45     .text:000000000000006c .L0 
GAS LISTING /tmp/cc3JgJUP.s 			page 18


     /tmp/cc3JgJUP.s:140    .text:0000000000000070 .L0 
   src/syscall_c.cpp:46     .text:0000000000000070 .L0 
     /tmp/cc3JgJUP.s:145    .text:0000000000000074 .L0 
   src/syscall_c.cpp:47     .text:0000000000000074 .L0 
     /tmp/cc3JgJUP.s:150    .text:0000000000000078 .L0 
   src/syscall_c.cpp:48     .text:0000000000000078 .L0 
     /tmp/cc3JgJUP.s:155    .text:000000000000007c .L0 
     /tmp/cc3JgJUP.s:156    .text:000000000000007c .L0 
   src/syscall_c.cpp:51     .text:000000000000007c .L0 
     /tmp/cc3JgJUP.s:162    .text:0000000000000080 .L0 
     /tmp/cc3JgJUP.s:164    .text:0000000000000080 .L0 
     /tmp/cc3JgJUP.s:167    .text:0000000000000088 .L0 
     /tmp/cc3JgJUP.s:168    .text:0000000000000088 .L0 
     /tmp/cc3JgJUP.s:170    .text:000000000000008c .L0 
     /tmp/cc3JgJUP.s:172    .text:0000000000000090 .L0 
     /tmp/cc3JgJUP.s:178    .text:0000000000000090 _Z11thread_exitv
     /tmp/cc3JgJUP.s:181    .text:0000000000000090 .L0 
     /tmp/cc3JgJUP.s:182    .text:0000000000000090 .L0 
     /tmp/cc3JgJUP.s:183    .text:0000000000000094 .L0 
     /tmp/cc3JgJUP.s:185    .text:0000000000000098 .L0 
     /tmp/cc3JgJUP.s:187    .text:000000000000009c .L0 
     /tmp/cc3JgJUP.s:189    .text:000000000000009c .L0 
   src/syscall_c.cpp:60     .text:000000000000009c .L0 
     /tmp/cc3JgJUP.s:195    .text:00000000000000a0 .L0 
   src/syscall_c.cpp:61     .text:00000000000000a0 .L0 
     /tmp/cc3JgJUP.s:200    .text:00000000000000a4 .L0 
     /tmp/cc3JgJUP.s:201    .text:00000000000000a4 .L0 
   src/syscall_c.cpp:64     .text:00000000000000a4 .L0 
     /tmp/cc3JgJUP.s:207    .text:00000000000000a8 .L0 
     /tmp/cc3JgJUP.s:209    .text:00000000000000a8 .L0 
     /tmp/cc3JgJUP.s:212    .text:00000000000000b0 .L0 
     /tmp/cc3JgJUP.s:213    .text:00000000000000b0 .L0 
     /tmp/cc3JgJUP.s:215    .text:00000000000000b4 .L0 
     /tmp/cc3JgJUP.s:217    .text:00000000000000b8 .L0 
     /tmp/cc3JgJUP.s:223    .text:00000000000000b8 _Z15thread_dispatchv
     /tmp/cc3JgJUP.s:226    .text:00000000000000b8 .L0 
     /tmp/cc3JgJUP.s:227    .text:00000000000000b8 .L0 
     /tmp/cc3JgJUP.s:228    .text:00000000000000bc .L0 
     /tmp/cc3JgJUP.s:230    .text:00000000000000c0 .L0 
     /tmp/cc3JgJUP.s:232    .text:00000000000000c4 .L0 
     /tmp/cc3JgJUP.s:234    .text:00000000000000c4 .L0 
   src/syscall_c.cpp:72     .text:00000000000000c4 .L0 
     /tmp/cc3JgJUP.s:240    .text:00000000000000c8 .L0 
   src/syscall_c.cpp:73     .text:00000000000000c8 .L0 
     /tmp/cc3JgJUP.s:246    .text:00000000000000cc .L0 
     /tmp/cc3JgJUP.s:247    .text:00000000000000d0 .L0 
     /tmp/cc3JgJUP.s:248    .text:00000000000000d0 .L0 
     /tmp/cc3JgJUP.s:250    .text:00000000000000d4 .L0 
     /tmp/cc3JgJUP.s:252    .text:00000000000000d8 .L0 
     /tmp/cc3JgJUP.s:258    .text:00000000000000d8 _Z8sem_openPP10KSemaphorej
     /tmp/cc3JgJUP.s:261    .text:00000000000000d8 .L0 
     /tmp/cc3JgJUP.s:263    .text:00000000000000d8 .L0 
     /tmp/cc3JgJUP.s:264    .text:00000000000000dc .L0 
     /tmp/cc3JgJUP.s:266    .text:00000000000000e0 .L0 
     /tmp/cc3JgJUP.s:268    .text:00000000000000e4 .L0 
     /tmp/cc3JgJUP.s:270    .text:00000000000000e4 .L0 
   src/syscall_c.cpp:83     .text:00000000000000e4 .L0 
GAS LISTING /tmp/cc3JgJUP.s 			page 19


     /tmp/cc3JgJUP.s:276    .text:00000000000000e8 .L0 
   src/syscall_c.cpp:84     .text:00000000000000e8 .L0 
     /tmp/cc3JgJUP.s:281    .text:00000000000000ec .L0 
   src/syscall_c.cpp:85     .text:00000000000000ec .L0 
     /tmp/cc3JgJUP.s:286    .text:00000000000000f0 .L0 
   src/syscall_c.cpp:86     .text:00000000000000f0 .L0 
     /tmp/cc3JgJUP.s:291    .text:00000000000000f4 .L0 
     /tmp/cc3JgJUP.s:292    .text:00000000000000f4 .L0 
   src/syscall_c.cpp:89     .text:00000000000000f4 .L0 
     /tmp/cc3JgJUP.s:298    .text:00000000000000f8 .L0 
     /tmp/cc3JgJUP.s:300    .text:00000000000000f8 .L0 
     /tmp/cc3JgJUP.s:303    .text:0000000000000100 .L0 
     /tmp/cc3JgJUP.s:304    .text:0000000000000100 .L0 
     /tmp/cc3JgJUP.s:306    .text:0000000000000104 .L0 
     /tmp/cc3JgJUP.s:308    .text:0000000000000108 .L0 
     /tmp/cc3JgJUP.s:314    .text:0000000000000108 _Z9sem_closeP10KSemaphore
     /tmp/cc3JgJUP.s:317    .text:0000000000000108 .L0 
     /tmp/cc3JgJUP.s:319    .text:0000000000000108 .L0 
     /tmp/cc3JgJUP.s:320    .text:000000000000010c .L0 
     /tmp/cc3JgJUP.s:322    .text:0000000000000110 .L0 
     /tmp/cc3JgJUP.s:324    .text:0000000000000114 .L0 
     /tmp/cc3JgJUP.s:326    .text:0000000000000114 .L0 
   src/syscall_c.cpp:99     .text:0000000000000114 .L0 
     /tmp/cc3JgJUP.s:332    .text:0000000000000118 .L0 
   src/syscall_c.cpp:100    .text:0000000000000118 .L0 
     /tmp/cc3JgJUP.s:337    .text:000000000000011c .L0 
   src/syscall_c.cpp:101    .text:000000000000011c .L0 
     /tmp/cc3JgJUP.s:342    .text:0000000000000120 .L0 
     /tmp/cc3JgJUP.s:343    .text:0000000000000120 .L0 
   src/syscall_c.cpp:104    .text:0000000000000120 .L0 
     /tmp/cc3JgJUP.s:349    .text:0000000000000124 .L0 
     /tmp/cc3JgJUP.s:351    .text:0000000000000124 .L0 
     /tmp/cc3JgJUP.s:354    .text:000000000000012c .L0 
     /tmp/cc3JgJUP.s:355    .text:000000000000012c .L0 
     /tmp/cc3JgJUP.s:357    .text:0000000000000130 .L0 
     /tmp/cc3JgJUP.s:359    .text:0000000000000134 .L0 
     /tmp/cc3JgJUP.s:365    .text:0000000000000134 _Z8sem_waitP10KSemaphore
     /tmp/cc3JgJUP.s:368    .text:0000000000000134 .L0 
     /tmp/cc3JgJUP.s:370    .text:0000000000000134 .L0 
     /tmp/cc3JgJUP.s:371    .text:0000000000000138 .L0 
     /tmp/cc3JgJUP.s:373    .text:000000000000013c .L0 
     /tmp/cc3JgJUP.s:375    .text:0000000000000140 .L0 
     /tmp/cc3JgJUP.s:377    .text:0000000000000140 .L0 
   src/syscall_c.cpp:114    .text:0000000000000140 .L0 
     /tmp/cc3JgJUP.s:383    .text:0000000000000144 .L0 
   src/syscall_c.cpp:115    .text:0000000000000144 .L0 
     /tmp/cc3JgJUP.s:388    .text:0000000000000148 .L0 
   src/syscall_c.cpp:116    .text:0000000000000148 .L0 
     /tmp/cc3JgJUP.s:393    .text:000000000000014c .L0 
     /tmp/cc3JgJUP.s:394    .text:000000000000014c .L0 
   src/syscall_c.cpp:119    .text:000000000000014c .L0 
     /tmp/cc3JgJUP.s:400    .text:0000000000000150 .L0 
     /tmp/cc3JgJUP.s:402    .text:0000000000000150 .L0 
     /tmp/cc3JgJUP.s:405    .text:0000000000000158 .L0 
     /tmp/cc3JgJUP.s:406    .text:0000000000000158 .L0 
     /tmp/cc3JgJUP.s:408    .text:000000000000015c .L0 
     /tmp/cc3JgJUP.s:410    .text:0000000000000160 .L0 
GAS LISTING /tmp/cc3JgJUP.s 			page 20


     /tmp/cc3JgJUP.s:416    .text:0000000000000160 _Z10sem_wait_nP10KSemaphorej
     /tmp/cc3JgJUP.s:419    .text:0000000000000160 .L0 
     /tmp/cc3JgJUP.s:421    .text:0000000000000160 .L0 
     /tmp/cc3JgJUP.s:422    .text:0000000000000164 .L0 
     /tmp/cc3JgJUP.s:424    .text:0000000000000168 .L0 
     /tmp/cc3JgJUP.s:426    .text:000000000000016c .L0 
     /tmp/cc3JgJUP.s:428    .text:000000000000016c .L0 
   src/syscall_c.cpp:130    .text:000000000000016c .L0 
     /tmp/cc3JgJUP.s:434    .text:0000000000000170 .L0 
   src/syscall_c.cpp:131    .text:0000000000000170 .L0 
     /tmp/cc3JgJUP.s:439    .text:0000000000000174 .L0 
   src/syscall_c.cpp:132    .text:0000000000000174 .L0 
     /tmp/cc3JgJUP.s:444    .text:0000000000000178 .L0 
   src/syscall_c.cpp:133    .text:0000000000000178 .L0 
     /tmp/cc3JgJUP.s:449    .text:000000000000017c .L0 
     /tmp/cc3JgJUP.s:450    .text:000000000000017c .L0 
   src/syscall_c.cpp:136    .text:000000000000017c .L0 
     /tmp/cc3JgJUP.s:456    .text:0000000000000180 .L0 
     /tmp/cc3JgJUP.s:458    .text:0000000000000180 .L0 
     /tmp/cc3JgJUP.s:461    .text:0000000000000188 .L0 
     /tmp/cc3JgJUP.s:462    .text:0000000000000188 .L0 
     /tmp/cc3JgJUP.s:464    .text:000000000000018c .L0 
     /tmp/cc3JgJUP.s:466    .text:0000000000000190 .L0 
     /tmp/cc3JgJUP.s:472    .text:0000000000000190 _Z10sem_signalP10KSemaphore
     /tmp/cc3JgJUP.s:475    .text:0000000000000190 .L0 
     /tmp/cc3JgJUP.s:477    .text:0000000000000190 .L0 
     /tmp/cc3JgJUP.s:478    .text:0000000000000194 .L0 
     /tmp/cc3JgJUP.s:480    .text:0000000000000198 .L0 
     /tmp/cc3JgJUP.s:482    .text:000000000000019c .L0 
     /tmp/cc3JgJUP.s:484    .text:000000000000019c .L0 
   src/syscall_c.cpp:146    .text:000000000000019c .L0 
     /tmp/cc3JgJUP.s:490    .text:00000000000001a0 .L0 
   src/syscall_c.cpp:147    .text:00000000000001a0 .L0 
     /tmp/cc3JgJUP.s:495    .text:00000000000001a4 .L0 
   src/syscall_c.cpp:148    .text:00000000000001a4 .L0 
     /tmp/cc3JgJUP.s:500    .text:00000000000001a8 .L0 
     /tmp/cc3JgJUP.s:501    .text:00000000000001a8 .L0 
   src/syscall_c.cpp:151    .text:00000000000001a8 .L0 
     /tmp/cc3JgJUP.s:507    .text:00000000000001ac .L0 
     /tmp/cc3JgJUP.s:509    .text:00000000000001ac .L0 
     /tmp/cc3JgJUP.s:512    .text:00000000000001b4 .L0 
     /tmp/cc3JgJUP.s:513    .text:00000000000001b4 .L0 
     /tmp/cc3JgJUP.s:515    .text:00000000000001b8 .L0 
     /tmp/cc3JgJUP.s:517    .text:00000000000001bc .L0 
     /tmp/cc3JgJUP.s:523    .text:00000000000001bc _Z12sem_signal_nP10KSemaphorej
     /tmp/cc3JgJUP.s:526    .text:00000000000001bc .L0 
     /tmp/cc3JgJUP.s:528    .text:00000000000001bc .L0 
     /tmp/cc3JgJUP.s:529    .text:00000000000001c0 .L0 
     /tmp/cc3JgJUP.s:531    .text:00000000000001c4 .L0 
     /tmp/cc3JgJUP.s:533    .text:00000000000001c8 .L0 
     /tmp/cc3JgJUP.s:535    .text:00000000000001c8 .L0 
   src/syscall_c.cpp:162    .text:00000000000001c8 .L0 
     /tmp/cc3JgJUP.s:541    .text:00000000000001cc .L0 
   src/syscall_c.cpp:163    .text:00000000000001cc .L0 
     /tmp/cc3JgJUP.s:546    .text:00000000000001d0 .L0 
   src/syscall_c.cpp:164    .text:00000000000001d0 .L0 
     /tmp/cc3JgJUP.s:551    .text:00000000000001d4 .L0 
GAS LISTING /tmp/cc3JgJUP.s 			page 21


   src/syscall_c.cpp:165    .text:00000000000001d4 .L0 
     /tmp/cc3JgJUP.s:556    .text:00000000000001d8 .L0 
     /tmp/cc3JgJUP.s:557    .text:00000000000001d8 .L0 
   src/syscall_c.cpp:168    .text:00000000000001d8 .L0 
     /tmp/cc3JgJUP.s:563    .text:00000000000001dc .L0 
     /tmp/cc3JgJUP.s:565    .text:00000000000001dc .L0 
     /tmp/cc3JgJUP.s:568    .text:00000000000001e4 .L0 
     /tmp/cc3JgJUP.s:569    .text:00000000000001e4 .L0 
     /tmp/cc3JgJUP.s:571    .text:00000000000001e8 .L0 
     /tmp/cc3JgJUP.s:573    .text:00000000000001ec .L0 
     /tmp/cc3JgJUP.s:579    .text:00000000000001ec _Z10time_sleepm
     /tmp/cc3JgJUP.s:582    .text:00000000000001ec .L0 
     /tmp/cc3JgJUP.s:584    .text:00000000000001ec .L0 
     /tmp/cc3JgJUP.s:585    .text:00000000000001f0 .L0 
     /tmp/cc3JgJUP.s:587    .text:00000000000001f4 .L0 
     /tmp/cc3JgJUP.s:589    .text:00000000000001f8 .L0 
     /tmp/cc3JgJUP.s:591    .text:00000000000001f8 .L0 
   src/syscall_c.cpp:178    .text:00000000000001f8 .L0 
     /tmp/cc3JgJUP.s:597    .text:00000000000001fc .L0 
   src/syscall_c.cpp:179    .text:00000000000001fc .L0 
     /tmp/cc3JgJUP.s:602    .text:0000000000000200 .L0 
   src/syscall_c.cpp:180    .text:0000000000000200 .L0 
     /tmp/cc3JgJUP.s:607    .text:0000000000000204 .L0 
     /tmp/cc3JgJUP.s:608    .text:0000000000000204 .L0 
   src/syscall_c.cpp:183    .text:0000000000000204 .L0 
     /tmp/cc3JgJUP.s:614    .text:0000000000000208 .L0 
     /tmp/cc3JgJUP.s:616    .text:0000000000000208 .L0 
     /tmp/cc3JgJUP.s:619    .text:0000000000000210 .L0 
     /tmp/cc3JgJUP.s:620    .text:0000000000000210 .L0 
     /tmp/cc3JgJUP.s:622    .text:0000000000000214 .L0 
     /tmp/cc3JgJUP.s:624    .text:0000000000000218 .L0 
     /tmp/cc3JgJUP.s:630    .text:0000000000000218 _Z4getcv
     /tmp/cc3JgJUP.s:633    .text:0000000000000218 .L0 
     /tmp/cc3JgJUP.s:634    .text:0000000000000218 .L0 
     /tmp/cc3JgJUP.s:635    .text:000000000000021c .L0 
     /tmp/cc3JgJUP.s:637    .text:0000000000000220 .L0 
     /tmp/cc3JgJUP.s:639    .text:0000000000000224 .L0 
     /tmp/cc3JgJUP.s:641    .text:0000000000000224 .L0 
   src/syscall_c.cpp:192    .text:0000000000000224 .L0 
     /tmp/cc3JgJUP.s:647    .text:0000000000000228 .L0 
   src/syscall_c.cpp:193    .text:0000000000000228 .L0 
     /tmp/cc3JgJUP.s:652    .text:000000000000022c .L0 
     /tmp/cc3JgJUP.s:653    .text:000000000000022c .L0 
   src/syscall_c.cpp:196    .text:000000000000022c .L0 
     /tmp/cc3JgJUP.s:659    .text:0000000000000230 .L0 
     /tmp/cc3JgJUP.s:661    .text:0000000000000230 .L0 
     /tmp/cc3JgJUP.s:663    .text:0000000000000238 .L0 
     /tmp/cc3JgJUP.s:664    .text:0000000000000238 .L0 
     /tmp/cc3JgJUP.s:666    .text:000000000000023c .L0 
     /tmp/cc3JgJUP.s:668    .text:0000000000000240 .L0 
     /tmp/cc3JgJUP.s:674    .text:0000000000000240 _Z4putcc
     /tmp/cc3JgJUP.s:677    .text:0000000000000240 .L0 
     /tmp/cc3JgJUP.s:679    .text:0000000000000240 .L0 
     /tmp/cc3JgJUP.s:680    .text:0000000000000244 .L0 
     /tmp/cc3JgJUP.s:682    .text:0000000000000248 .L0 
     /tmp/cc3JgJUP.s:684    .text:000000000000024c .L0 
     /tmp/cc3JgJUP.s:686    .text:000000000000024c .L0 
GAS LISTING /tmp/cc3JgJUP.s 			page 22


   src/syscall_c.cpp:205    .text:000000000000024c .L0 
     /tmp/cc3JgJUP.s:692    .text:0000000000000250 .L0 
   src/syscall_c.cpp:206    .text:0000000000000250 .L0 
     /tmp/cc3JgJUP.s:697    .text:0000000000000254 .L0 
   src/syscall_c.cpp:207    .text:0000000000000254 .L0 
     /tmp/cc3JgJUP.s:703    .text:0000000000000258 .L0 
     /tmp/cc3JgJUP.s:704    .text:000000000000025c .L0 
     /tmp/cc3JgJUP.s:705    .text:000000000000025c .L0 
     /tmp/cc3JgJUP.s:707    .text:0000000000000260 .L0 
     /tmp/cc3JgJUP.s:709    .text:0000000000000264 .L0 
     /tmp/cc3JgJUP.s:718    .text:0000000000000264 .L0 
     /tmp/cc3JgJUP.s:2238   .debug_abbrev:0000000000000000 .Ldebug_abbrev0
     /tmp/cc3JgJUP.s:3686   .debug_str:0000000000000a1d .LASF163
     /tmp/cc3JgJUP.s:3556   .debug_str:000000000000062c .LASF164
     /tmp/cc3JgJUP.s:3512   .debug_str:00000000000004bf .LASF165
     /tmp/cc3JgJUP.s:5      .text:0000000000000000 .Ltext0
     /tmp/cc3JgJUP.s:712    .text:0000000000000264 .Letext0
     /tmp/cc3JgJUP.s:3402   .debug_line:0000000000000000 .Ldebug_line0
     /tmp/cc3JgJUP.s:3508   .debug_str:00000000000004ad .LASF0
     /tmp/cc3JgJUP.s:3532   .debug_str:0000000000000578 .LASF1
     /tmp/cc3JgJUP.s:3618   .debug_str:000000000000081b .LASF2
     /tmp/cc3JgJUP.s:3630   .debug_str:000000000000087e .LASF4
     /tmp/cc3JgJUP.s:3514   .debug_str:00000000000004db .LASF3
     /tmp/cc3JgJUP.s:3414   .debug_str:0000000000000063 .LASF5
     /tmp/cc3JgJUP.s:3596   .debug_str:0000000000000792 .LASF6
     /tmp/cc3JgJUP.s:3586   .debug_str:00000000000006fb .LASF7
     /tmp/cc3JgJUP.s:3522   .debug_str:000000000000052f .LASF8
     /tmp/cc3JgJUP.s:3486   .debug_str:00000000000003cb .LASF9
     /tmp/cc3JgJUP.s:3494   .debug_str:0000000000000417 .LASF10
     /tmp/cc3JgJUP.s:3442   .debug_str:000000000000018c .LASF11
     /tmp/cc3JgJUP.s:3476   .debug_str:000000000000035b .LASF12
     /tmp/cc3JgJUP.s:3452   .debug_str:0000000000000222 .LASF13
     /tmp/cc3JgJUP.s:3440   .debug_str:000000000000017c .LASF14
     /tmp/cc3JgJUP.s:3662   .debug_str:000000000000099b .LASF15
     /tmp/cc3JgJUP.s:3464   .debug_str:00000000000002a6 .LASF16
     /tmp/cc3JgJUP.s:3652   .debug_str:000000000000095a .LASF17
     /tmp/cc3JgJUP.s:3546   .debug_str:00000000000005f2 .LASF18
     /tmp/cc3JgJUP.s:3718   .debug_str:0000000000000ba1 .LASF39
     /tmp/cc3JgJUP.s:3708   .debug_str:0000000000000b5c .LASF116
     /tmp/cc3JgJUP.s:3658   .debug_str:0000000000000989 .LASF19
     /tmp/cc3JgJUP.s:3572   .debug_str:0000000000000698 .LASF20
     /tmp/cc3JgJUP.s:3530   .debug_str:0000000000000573 .LASF21
     /tmp/cc3JgJUP.s:3566   .debug_str:0000000000000671 .LASF22
     /tmp/cc3JgJUP.s:3654   .debug_str:0000000000000970 .LASF24
     /tmp/cc3JgJUP.s:3472   .debug_str:000000000000032c .LASF29
     /tmp/cc3JgJUP.s:3622   .debug_str:0000000000000836 .LASF119
     /tmp/cc3JgJUP.s:3610   .debug_str:00000000000007e2 .LASF120
     /tmp/cc3JgJUP.s:3526   .debug_str:000000000000055c .LASF23
     /tmp/cc3JgJUP.s:3434   .debug_str:0000000000000112 .LASF25
     /tmp/cc3JgJUP.s:3542   .debug_str:00000000000005d4 .LASF26
     /tmp/cc3JgJUP.s:3466   .debug_str:00000000000002bc .LASF27
     /tmp/cc3JgJUP.s:3584   .debug_str:00000000000006ef .LASF28
     /tmp/cc3JgJUP.s:3720   .debug_str:0000000000000bab .LASF30
     /tmp/cc3JgJUP.s:3746   .debug_str:0000000000000c71 .LASF31
     /tmp/cc3JgJUP.s:3738   .debug_str:0000000000000c34 .LASF32
     /tmp/cc3JgJUP.s:3642   .debug_str:00000000000008ed .LASF33
     /tmp/cc3JgJUP.s:3520   .debug_str:0000000000000512 .LASF34
GAS LISTING /tmp/cc3JgJUP.s 			page 23


     /tmp/cc3JgJUP.s:3604   .debug_str:00000000000007c5 .LASF35
     /tmp/cc3JgJUP.s:3408   .debug_str:0000000000000015 .LASF36
     /tmp/cc3JgJUP.s:3636   .debug_str:00000000000008a0 .LASF37
     /tmp/cc3JgJUP.s:3600   .debug_str:00000000000007a2 .LASF38
     /tmp/cc3JgJUP.s:3670   .debug_str:00000000000009c9 .LASF166
     /tmp/cc3JgJUP.s:3632   .debug_str:0000000000000885 .LASF40
     /tmp/cc3JgJUP.s:3412   .debug_str:0000000000000057 .LASF41
     /tmp/cc3JgJUP.s:3672   .debug_str:00000000000009d1 .LASF42
     /tmp/cc3JgJUP.s:3570   .debug_str:0000000000000681 .LASF43
     /tmp/cc3JgJUP.s:3430   .debug_str:00000000000000f8 .LASF44
     /tmp/cc3JgJUP.s:3704   .debug_str:0000000000000b3d .LASF45
     /tmp/cc3JgJUP.s:3724   .debug_str:0000000000000bd0 .LASF46
     /tmp/cc3JgJUP.s:3436   .debug_str:000000000000012f .LASF47
     /tmp/cc3JgJUP.s:3676   .debug_str:00000000000009f1 .LASF48
     /tmp/cc3JgJUP.s:3448   .debug_str:00000000000001d1 .LASF49
     /tmp/cc3JgJUP.s:3700   .debug_str:0000000000000b29 .LASF50
     /tmp/cc3JgJUP.s:3582   .debug_str:00000000000006d8 .LASF51
     /tmp/cc3JgJUP.s:3568   .debug_str:0000000000000676 .LASF52
     /tmp/cc3JgJUP.s:3544   .debug_str:00000000000005dc .LASF53
     /tmp/cc3JgJUP.s:3598   .debug_str:0000000000000799 .LASF54
     /tmp/cc3JgJUP.s:3644   .debug_str:00000000000008f8 .LASF55
     /tmp/cc3JgJUP.s:3660   .debug_str:000000000000098e .LASF56
     /tmp/cc3JgJUP.s:3712   .debug_str:0000000000000b6f .LASF57
     /tmp/cc3JgJUP.s:3580   .debug_str:00000000000006d3 .LASF167
     /tmp/cc3JgJUP.s:3534   .debug_str:000000000000058b .LASF60
     /tmp/cc3JgJUP.s:3690   .debug_str:0000000000000af5 .LASF62
     /tmp/cc3JgJUP.s:3612   .debug_str:00000000000007f9 .LASF58
     /tmp/cc3JgJUP.s:3634   .debug_str:000000000000088a .LASF59
     /tmp/cc3JgJUP.s:3562   .debug_str:000000000000065a .LASF61
     /tmp/cc3JgJUP.s:3626   .debug_str:000000000000085f .LASF63
     /tmp/cc3JgJUP.s:3684   .debug_str:0000000000000a15 .LASF64
     /tmp/cc3JgJUP.s:3736   .debug_str:0000000000000c24 .LASF65
     /tmp/cc3JgJUP.s:3740   .debug_str:0000000000000c4f .LASF66
     /tmp/cc3JgJUP.s:3490   .debug_str:00000000000003f7 .LASF67
     /tmp/cc3JgJUP.s:3552   .debug_str:0000000000000617 .LASF68
     /tmp/cc3JgJUP.s:3484   .debug_str:00000000000003bf .LASF69
     /tmp/cc3JgJUP.s:3406   .debug_str:0000000000000005 .LASF70
     /tmp/cc3JgJUP.s:3574   .debug_str:000000000000069d .LASF72
     /tmp/cc3JgJUP.s:3650   .debug_str:0000000000000947 .LASF71
     /tmp/cc3JgJUP.s:3620   .debug_str:0000000000000829 .LASF73
     /tmp/cc3JgJUP.s:3688   .debug_str:0000000000000ae1 .LASF168
     /tmp/cc3JgJUP.s:3404   .debug_str:0000000000000000 .LASF74
     /tmp/cc3JgJUP.s:3646   .debug_str:000000000000090b .LASF75
     /tmp/cc3JgJUP.s:3702   .debug_str:0000000000000b35 .LASF76
     /tmp/cc3JgJUP.s:3668   .debug_str:00000000000009c0 .LASF77
     /tmp/cc3JgJUP.s:3576   .debug_str:00000000000006aa .LASF78
     /tmp/cc3JgJUP.s:3698   .debug_str:0000000000000b1f .LASF79
     /tmp/cc3JgJUP.s:3692   .debug_str:0000000000000b05 .LASF80
     /tmp/cc3JgJUP.s:3432   .debug_str:0000000000000104 .LASF85
     /tmp/cc3JgJUP.s:3536   .debug_str:0000000000000591 .LASF87
     /tmp/cc3JgJUP.s:3454   .debug_str:0000000000000232 .LASF81
     /tmp/cc3JgJUP.s:3410   .debug_str:000000000000002f .LASF83
     /tmp/cc3JgJUP.s:3682   .debug_str:0000000000000a10 .LASF82
     /tmp/cc3JgJUP.s:3480   .debug_str:0000000000000375 .LASF84
     /tmp/cc3JgJUP.s:3456   .debug_str:0000000000000240 .LASF86
     /tmp/cc3JgJUP.s:3444   .debug_str:000000000000019b .LASF88
     /tmp/cc3JgJUP.s:3424   .debug_str:00000000000000ae .LASF89
GAS LISTING /tmp/cc3JgJUP.s 			page 24


     /tmp/cc3JgJUP.s:3538   .debug_str:00000000000005aa .LASF90
     /tmp/cc3JgJUP.s:3638   .debug_str:00000000000008a8 .LASF169
     /tmp/cc3JgJUP.s:3628   .debug_str:0000000000000873 .LASF91
     /tmp/cc3JgJUP.s:3726   .debug_str:0000000000000bda .LASF92
     /tmp/cc3JgJUP.s:3606   .debug_str:00000000000007ce .LASF93
     /tmp/cc3JgJUP.s:3730   .debug_str:0000000000000beb .LASF94
     /tmp/cc3JgJUP.s:3614   .debug_str:0000000000000804 .LASF95
     /tmp/cc3JgJUP.s:3420   .debug_str:0000000000000094 .LASF96
     /tmp/cc3JgJUP.s:3594   .debug_str:0000000000000766 .LASF97
     /tmp/cc3JgJUP.s:3492   .debug_str:0000000000000403 .LASF98
     /tmp/cc3JgJUP.s:3706   .debug_str:0000000000000b54 .LASF99
     /tmp/cc3JgJUP.s:3470   .debug_str:0000000000000312 .LASF100
     /tmp/cc3JgJUP.s:3516   .debug_str:00000000000004ed .LASF101
     /tmp/cc3JgJUP.s:3458   .debug_str:0000000000000249 .LASF102
     /tmp/cc3JgJUP.s:3616   .debug_str:000000000000080b .LASF103
     /tmp/cc3JgJUP.s:3446   .debug_str:00000000000001ae .LASF104
     /tmp/cc3JgJUP.s:3694   .debug_str:0000000000000b0c .LASF105
     /tmp/cc3JgJUP.s:3590   .debug_str:0000000000000713 .LASF106
     /tmp/cc3JgJUP.s:3418   .debug_str:000000000000008e .LASF107
     /tmp/cc3JgJUP.s:3474   .debug_str:0000000000000343 .LASF108
     /tmp/cc3JgJUP.s:3548   .debug_str:00000000000005f7 .LASF109
     /tmp/cc3JgJUP.s:3540   .debug_str:00000000000005c0 .LASF110
     /tmp/cc3JgJUP.s:3502   .debug_str:0000000000000472 .LASF111
     /tmp/cc3JgJUP.s:3674   .debug_str:00000000000009dc .LASF112
     /tmp/cc3JgJUP.s:3722   .debug_str:0000000000000bc9 .LASF113
     /tmp/cc3JgJUP.s:3656   .debug_str:0000000000000983 .LASF114
     /tmp/cc3JgJUP.s:3416   .debug_str:000000000000006a .LASF115
     /tmp/cc3JgJUP.s:3460   .debug_str:0000000000000265 .LASF117
     /tmp/cc3JgJUP.s:3496   .debug_str:0000000000000425 .LASF118
     /tmp/cc3JgJUP.s:3640   .debug_str:00000000000008b9 .LASF121
     /tmp/cc3JgJUP.s:3468   .debug_str:00000000000002d8 .LASF122
     /tmp/cc3JgJUP.s:3482   .debug_str:0000000000000386 .LASF123
     /tmp/cc3JgJUP.s:3450   .debug_str:00000000000001e7 .LASF124
     /tmp/cc3JgJUP.s:3438   .debug_str:0000000000000144 .LASF125
     /tmp/cc3JgJUP.s:3426   .debug_str:00000000000000b9 .LASF126
     /tmp/cc3JgJUP.s:3592   .debug_str:000000000000072f .LASF127
     /tmp/cc3JgJUP.s:3648   .debug_str:0000000000000911 .LASF128
     /tmp/cc3JgJUP.s:3716   .debug_str:0000000000000b98 .LASF129
     /tmp/cc3JgJUP.s:3728   .debug_str:0000000000000be5 .LASF130
     /tmp/cc3JgJUP.s:3554   .debug_str:0000000000000627 .LASF131
     /tmp/cc3JgJUP.s:3664   .debug_str:00000000000009a7 .LASF132
     /tmp/cc3JgJUP.s:675    .text:0000000000000240 .LFB54
     /tmp/cc3JgJUP.s:710    .text:0000000000000264 .LFE54
     /tmp/cc3JgJUP.s:3678   .debug_str:00000000000009fc .LASF133
     /tmp/cc3JgJUP.s:3510   .debug_str:00000000000004ba .LASF134
     /tmp/cc3JgJUP.s:3714   .debug_str:0000000000000b8f .LASF135
     /tmp/cc3JgJUP.s:631    .text:0000000000000218 .LFB53
     /tmp/cc3JgJUP.s:669    .text:0000000000000240 .LFE53
     /tmp/cc3JgJUP.s:3422   .debug_str:000000000000009e .LASF136
     /tmp/cc3JgJUP.s:580    .text:00000000000001ec .LFB52
     /tmp/cc3JgJUP.s:625    .text:0000000000000218 .LFE52
     /tmp/cc3JgJUP.s:3588   .debug_str:000000000000070e .LASF137
     /tmp/cc3JgJUP.s:3155   .debug_loc:0000000000000000 .LLST19
     /tmp/cc3JgJUP.s:3742   .debug_str:0000000000000c5c .LASF138
     /tmp/cc3JgJUP.s:3169   .debug_loc:0000000000000039 .LLST20
     /tmp/cc3JgJUP.s:3564   .debug_str:0000000000000664 .LASF139
     /tmp/cc3JgJUP.s:3624   .debug_str:0000000000000840 .LASF140
GAS LISTING /tmp/cc3JgJUP.s 			page 25


     /tmp/cc3JgJUP.s:524    .text:00000000000001bc .LFB51
     /tmp/cc3JgJUP.s:574    .text:00000000000001ec .LFE51
     /tmp/cc3JgJUP.s:3176   .debug_loc:000000000000005c .LLST17
     /tmp/cc3JgJUP.s:3190   .debug_loc:0000000000000095 .LLST18
     /tmp/cc3JgJUP.s:3500   .debug_str:0000000000000467 .LASF141
     /tmp/cc3JgJUP.s:3488   .debug_str:00000000000003db .LASF142
     /tmp/cc3JgJUP.s:473    .text:0000000000000190 .LFB50
     /tmp/cc3JgJUP.s:518    .text:00000000000001bc .LFE50
     /tmp/cc3JgJUP.s:3197   .debug_loc:00000000000000b8 .LLST15
     /tmp/cc3JgJUP.s:3211   .debug_loc:00000000000000f1 .LLST16
     /tmp/cc3JgJUP.s:3478   .debug_str:000000000000036a .LASF143
     /tmp/cc3JgJUP.s:3504   .debug_str:0000000000000487 .LASF144
     /tmp/cc3JgJUP.s:417    .text:0000000000000160 .LFB49
     /tmp/cc3JgJUP.s:467    .text:0000000000000190 .LFE49
     /tmp/cc3JgJUP.s:3218   .debug_loc:0000000000000114 .LLST13
     /tmp/cc3JgJUP.s:3232   .debug_loc:000000000000014d .LLST14
     /tmp/cc3JgJUP.s:3744   .debug_str:0000000000000c68 .LASF145
     /tmp/cc3JgJUP.s:3732   .debug_str:0000000000000bfd .LASF146
     /tmp/cc3JgJUP.s:366    .text:0000000000000134 .LFB48
     /tmp/cc3JgJUP.s:411    .text:0000000000000160 .LFE48
     /tmp/cc3JgJUP.s:3239   .debug_loc:0000000000000170 .LLST11
     /tmp/cc3JgJUP.s:3253   .debug_loc:00000000000001a9 .LLST12
     /tmp/cc3JgJUP.s:3602   .debug_str:00000000000007bb .LASF147
     /tmp/cc3JgJUP.s:3524   .debug_str:0000000000000542 .LASF148
     /tmp/cc3JgJUP.s:315    .text:0000000000000108 .LFB47
     /tmp/cc3JgJUP.s:360    .text:0000000000000134 .LFE47
     /tmp/cc3JgJUP.s:3558   .debug_str:000000000000063e .LASF149
     /tmp/cc3JgJUP.s:3260   .debug_loc:00000000000001cc .LLST9
     /tmp/cc3JgJUP.s:3274   .debug_loc:0000000000000205 .LLST10
     /tmp/cc3JgJUP.s:3608   .debug_str:00000000000007d9 .LASF150
     /tmp/cc3JgJUP.s:3518   .debug_str:00000000000004f7 .LASF151
     /tmp/cc3JgJUP.s:259    .text:00000000000000d8 .LFB46
     /tmp/cc3JgJUP.s:309    .text:0000000000000108 .LFE46
     /tmp/cc3JgJUP.s:3281   .debug_loc:0000000000000228 .LLST7
     /tmp/cc3JgJUP.s:3428   .debug_str:00000000000000f3 .LASF152
     /tmp/cc3JgJUP.s:3295   .debug_loc:0000000000000261 .LLST8
     /tmp/cc3JgJUP.s:3666   .debug_str:00000000000009b0 .LASF170
     /tmp/cc3JgJUP.s:3560   .debug_str:0000000000000645 .LASF171
     /tmp/cc3JgJUP.s:224    .text:00000000000000b8 .LFB45
     /tmp/cc3JgJUP.s:253    .text:00000000000000d8 .LFE45
     /tmp/cc3JgJUP.s:3550   .debug_str:000000000000060b .LASF153
     /tmp/cc3JgJUP.s:3462   .debug_str:0000000000000295 .LASF154
     /tmp/cc3JgJUP.s:179    .text:0000000000000090 .LFB44
     /tmp/cc3JgJUP.s:218    .text:00000000000000b8 .LFE44
     /tmp/cc3JgJUP.s:3302   .debug_loc:0000000000000284 .LLST6
     /tmp/cc3JgJUP.s:3710   .debug_str:0000000000000b61 .LASF155
     /tmp/cc3JgJUP.s:3578   .debug_str:00000000000006b2 .LASF156
     /tmp/cc3JgJUP.s:118    .text:000000000000005c .LFB43
     /tmp/cc3JgJUP.s:173    .text:0000000000000090 .LFE43
     /tmp/cc3JgJUP.s:3309   .debug_loc:00000000000002a7 .LLST4
     /tmp/cc3JgJUP.s:3528   .debug_str:0000000000000565 .LASF157
     /tmp/cc3JgJUP.s:3323   .debug_loc:00000000000002e0 .LLST5
     /tmp/cc3JgJUP.s:3506   .debug_str:00000000000004a4 .LASF158
     /tmp/cc3JgJUP.s:3734   .debug_str:0000000000000c16 .LASF159
     /tmp/cc3JgJUP.s:67     .text:0000000000000030 .LFB42
     /tmp/cc3JgJUP.s:112    .text:000000000000005c .LFE42
     /tmp/cc3JgJUP.s:3330   .debug_loc:0000000000000303 .LLST2
GAS LISTING /tmp/cc3JgJUP.s 			page 26


     /tmp/cc3JgJUP.s:3344   .debug_loc:000000000000033c .LLST3
     /tmp/cc3JgJUP.s:3696   .debug_str:0000000000000b15 .LASF160
     /tmp/cc3JgJUP.s:3498   .debug_str:0000000000000459 .LASF161
     /tmp/cc3JgJUP.s:10     .text:0000000000000000 .LFB41
     /tmp/cc3JgJUP.s:61     .text:0000000000000030 .LFE41
     /tmp/cc3JgJUP.s:3351   .debug_loc:000000000000035f .LLST0
     /tmp/cc3JgJUP.s:3680   .debug_str:0000000000000a01 .LASF162
     /tmp/cc3JgJUP.s:3371   .debug_loc:00000000000003ad .LLST1
     /tmp/cc3JgJUP.s:583    .text:00000000000001ec .LVL30
     /tmp/cc3JgJUP.s:612    .text:0000000000000208 .LVL31
     /tmp/cc3JgJUP.s:617    .text:000000000000020c .LVL32
     /tmp/cc3JgJUP.s:527    .text:00000000000001bc .LVL27
     /tmp/cc3JgJUP.s:561    .text:00000000000001dc .LVL28
     /tmp/cc3JgJUP.s:566    .text:00000000000001e0 .LVL29
     /tmp/cc3JgJUP.s:476    .text:0000000000000190 .LVL24
     /tmp/cc3JgJUP.s:505    .text:00000000000001ac .LVL25
     /tmp/cc3JgJUP.s:510    .text:00000000000001b0 .LVL26
     /tmp/cc3JgJUP.s:420    .text:0000000000000160 .LVL21
     /tmp/cc3JgJUP.s:454    .text:0000000000000180 .LVL22
     /tmp/cc3JgJUP.s:459    .text:0000000000000184 .LVL23
     /tmp/cc3JgJUP.s:369    .text:0000000000000134 .LVL18
     /tmp/cc3JgJUP.s:398    .text:0000000000000150 .LVL19
     /tmp/cc3JgJUP.s:403    .text:0000000000000154 .LVL20
     /tmp/cc3JgJUP.s:318    .text:0000000000000108 .LVL15
     /tmp/cc3JgJUP.s:347    .text:0000000000000124 .LVL16
     /tmp/cc3JgJUP.s:352    .text:0000000000000128 .LVL17
     /tmp/cc3JgJUP.s:262    .text:00000000000000d8 .LVL12
     /tmp/cc3JgJUP.s:296    .text:00000000000000f8 .LVL13
     /tmp/cc3JgJUP.s:301    .text:00000000000000fc .LVL14
     /tmp/cc3JgJUP.s:205    .text:00000000000000a8 .LVL10
     /tmp/cc3JgJUP.s:210    .text:00000000000000ac .LVL11
     /tmp/cc3JgJUP.s:121    .text:000000000000005c .LVL7
     /tmp/cc3JgJUP.s:160    .text:0000000000000080 .LVL8
     /tmp/cc3JgJUP.s:165    .text:0000000000000084 .LVL9
     /tmp/cc3JgJUP.s:70     .text:0000000000000030 .LVL4
     /tmp/cc3JgJUP.s:99     .text:000000000000004c .LVL5
     /tmp/cc3JgJUP.s:104    .text:0000000000000050 .LVL6
     /tmp/cc3JgJUP.s:14     .text:0000000000000000 .LVL0
     /tmp/cc3JgJUP.s:24     .text:0000000000000010 .LVL1
     /tmp/cc3JgJUP.s:27     .text:0000000000000014 .LVL2
     /tmp/cc3JgJUP.s:50     .text:0000000000000024 .LVL3
     /tmp/cc3JgJUP.s:719    .debug_info:0000000000000000 .Ldebug_info0

NO UNDEFINED SYMBOLS
