GAS LISTING /tmp/ccBtmnCe.s 			page 1


   1              		.file	"syscall_cpp.cpp"
   2              		.option pic
   3              		.option norelax
   4              		.text
   5              	.Ltext0:
   6              		.section	.text._ZN6Thread3runEv,"axG",@progbits,_ZN6Thread3runEv,comdat
   7              		.align	2
   8              		.weak	_ZN6Thread3runEv
  10              	_ZN6Thread3runEv:
  11              	.LFB46:
  12              		.file 1 "src/../h/syscall_cpp.hpp"
   1:src/../h/syscall_cpp.hpp **** #ifndef _syscall_cpp 
   2:src/../h/syscall_cpp.hpp **** #define _syscall_cpp 
   3:src/../h/syscall_cpp.hpp ****  
   4:src/../h/syscall_cpp.hpp **** #include "syscall_c.hpp" 
   5:src/../h/syscall_cpp.hpp ****  
   6:src/../h/syscall_cpp.hpp **** void* operator new (size_t); 
   7:src/../h/syscall_cpp.hpp **** void  operator delete (void*); 
   8:src/../h/syscall_cpp.hpp ****  
   9:src/../h/syscall_cpp.hpp **** class Thread { 
  10:src/../h/syscall_cpp.hpp **** public: 
  11:src/../h/syscall_cpp.hpp ****   Thread (void (*body)(void*), void* arg); 
  12:src/../h/syscall_cpp.hpp ****   virtual ~Thread (); 
  13:src/../h/syscall_cpp.hpp ****  
  14:src/../h/syscall_cpp.hpp ****   int start (); 
  15:src/../h/syscall_cpp.hpp ****  
  16:src/../h/syscall_cpp.hpp ****   static void dispatch (); 
  17:src/../h/syscall_cpp.hpp ****   static int sleep (time_t); 
  18:src/../h/syscall_cpp.hpp ****   static void wrapper(void*);
  19:src/../h/syscall_cpp.hpp ****  
  20:src/../h/syscall_cpp.hpp **** protected: 
  21:src/../h/syscall_cpp.hpp ****   Thread (); 
  22:src/../h/syscall_cpp.hpp ****   virtual void run () {} 
  13              		.loc 1 22 16
  14              		.cfi_startproc
  15              	.LVL0:
  16 0000 130101FF 		addi	sp,sp,-16
  17              		.cfi_def_cfa_offset 16
  18 0004 23348100 		sd	s0,8(sp)
  19              		.cfi_offset 8, -8
  20 0008 13040101 		addi	s0,sp,16
  21              		.cfi_def_cfa 8, 0
  22              		.loc 1 22 24 is_stmt 0
  23 000c 03348100 		ld	s0,8(sp)
  24              		.cfi_restore 8
  25              		.cfi_def_cfa 2, 16
  26 0010 13010101 		addi	sp,sp,16
  27              		.cfi_def_cfa_offset 0
  28 0014 67800000 		jr	ra
  29              		.cfi_endproc
  30              	.LFE46:
  32              		.section	.text._ZN14PeriodicThread18periodicActivationEv,"axG",@progbits,_ZN14PeriodicThread18peri
  33              		.align	2
  34              		.weak	_ZN14PeriodicThread18periodicActivationEv
  36              	_ZN14PeriodicThread18periodicActivationEv:
  37              	.LFB47:
  23:src/../h/syscall_cpp.hpp ****  
GAS LISTING /tmp/ccBtmnCe.s 			page 2


  24:src/../h/syscall_cpp.hpp **** private: 
  25:src/../h/syscall_cpp.hpp ****   thread_t myHandle; 
  26:src/../h/syscall_cpp.hpp ****   void (*body)(void*); void* arg; 
  27:src/../h/syscall_cpp.hpp **** }; 
  28:src/../h/syscall_cpp.hpp ****  
  29:src/../h/syscall_cpp.hpp ****  
  30:src/../h/syscall_cpp.hpp **** class Semaphore { 
  31:src/../h/syscall_cpp.hpp **** public: 
  32:src/../h/syscall_cpp.hpp ****  
  33:src/../h/syscall_cpp.hpp ****   Semaphore (unsigned init = 1); 
  34:src/../h/syscall_cpp.hpp ****   virtual ~Semaphore (); 
  35:src/../h/syscall_cpp.hpp ****  
  36:src/../h/syscall_cpp.hpp ****   int wait (); 
  37:src/../h/syscall_cpp.hpp ****   int signal (); 
  38:src/../h/syscall_cpp.hpp ****  
  39:src/../h/syscall_cpp.hpp **** private: 
  40:src/../h/syscall_cpp.hpp ****   sem_t myHandle; 
  41:src/../h/syscall_cpp.hpp ****  
  42:src/../h/syscall_cpp.hpp **** }; 
  43:src/../h/syscall_cpp.hpp ****  
  44:src/../h/syscall_cpp.hpp ****  
  45:src/../h/syscall_cpp.hpp **** class PeriodicThread : public Thread { 
  46:src/../h/syscall_cpp.hpp **** public: 
  47:src/../h/syscall_cpp.hpp ****   void terminate ();
  48:src/../h/syscall_cpp.hpp ****  
  49:src/../h/syscall_cpp.hpp **** protected: 
  50:src/../h/syscall_cpp.hpp ****   PeriodicThread (time_t period); 
  51:src/../h/syscall_cpp.hpp ****   virtual void periodicActivation () {} 
  38              		.loc 1 51 16 is_stmt 1
  39              		.cfi_startproc
  40              	.LVL1:
  41 0000 130101FF 		addi	sp,sp,-16
  42              		.cfi_def_cfa_offset 16
  43 0004 23348100 		sd	s0,8(sp)
  44              		.cfi_offset 8, -8
  45 0008 13040101 		addi	s0,sp,16
  46              		.cfi_def_cfa 8, 0
  47              		.loc 1 51 39 is_stmt 0
  48 000c 03348100 		ld	s0,8(sp)
  49              		.cfi_restore 8
  50              		.cfi_def_cfa 2, 16
  51 0010 13010101 		addi	sp,sp,16
  52              		.cfi_def_cfa_offset 0
  53 0014 67800000 		jr	ra
  54              		.cfi_endproc
  55              	.LFE47:
  57              		.text
  58              		.align	2
  60              	_Z41__static_initialization_and_destruction_0ii:
  61              	.LFB97:
  62              		.file 2 "src/syscall_cpp.cpp"
   1:src/syscall_cpp.cpp **** 
   2:src/syscall_cpp.cpp **** #include "../h/syscall_c.hpp"
   3:src/syscall_cpp.cpp **** #include "../h/syscall_cpp.hpp"
   4:src/syscall_cpp.cpp **** 
   5:src/syscall_cpp.cpp **** //SEMAPHORE
   6:src/syscall_cpp.cpp **** Semaphore::Semaphore(unsigned int init) {
GAS LISTING /tmp/ccBtmnCe.s 			page 3


   7:src/syscall_cpp.cpp ****     sem_open(&this->myHandle, init);
   8:src/syscall_cpp.cpp **** }
   9:src/syscall_cpp.cpp **** 
  10:src/syscall_cpp.cpp **** Semaphore::~Semaphore() {
  11:src/syscall_cpp.cpp ****     sem_close(this->myHandle);
  12:src/syscall_cpp.cpp **** }
  13:src/syscall_cpp.cpp **** 
  14:src/syscall_cpp.cpp **** int Semaphore::wait() {
  15:src/syscall_cpp.cpp ****     return sem_wait(this->myHandle);
  16:src/syscall_cpp.cpp **** }
  17:src/syscall_cpp.cpp **** 
  18:src/syscall_cpp.cpp **** int Semaphore::signal() {
  19:src/syscall_cpp.cpp ****     return sem_signal(this->myHandle);
  20:src/syscall_cpp.cpp **** }
  21:src/syscall_cpp.cpp **** 
  22:src/syscall_cpp.cpp **** //THREAD
  23:src/syscall_cpp.cpp **** void Thread::dispatch() {
  24:src/syscall_cpp.cpp ****     thread_dispatch();
  25:src/syscall_cpp.cpp **** }
  26:src/syscall_cpp.cpp **** 
  27:src/syscall_cpp.cpp **** Thread::Thread(void (*body)(void *), void *arg) {
  28:src/syscall_cpp.cpp ****     this->body = body;
  29:src/syscall_cpp.cpp ****     this->arg = arg;
  30:src/syscall_cpp.cpp ****     myHandle = nullptr;
  31:src/syscall_cpp.cpp **** }
  32:src/syscall_cpp.cpp **** 
  33:src/syscall_cpp.cpp **** Thread::~Thread() {
  34:src/syscall_cpp.cpp ****     delete this->myHandle;
  35:src/syscall_cpp.cpp **** }
  36:src/syscall_cpp.cpp **** 
  37:src/syscall_cpp.cpp **** int Thread::start() {
  38:src/syscall_cpp.cpp ****     return thread_create(&this->myHandle, body, arg);
  39:src/syscall_cpp.cpp **** }
  40:src/syscall_cpp.cpp **** 
  41:src/syscall_cpp.cpp **** Thread::Thread() {
  42:src/syscall_cpp.cpp ****     this->body = Thread::wrapper;
  43:src/syscall_cpp.cpp ****     this->arg = this;
  44:src/syscall_cpp.cpp ****     myHandle = nullptr;
  45:src/syscall_cpp.cpp **** }
  46:src/syscall_cpp.cpp **** 
  47:src/syscall_cpp.cpp **** void Thread::wrapper(void *thread) {
  48:src/syscall_cpp.cpp ****     ((Thread *) thread)->run();
  49:src/syscall_cpp.cpp ****     thread_exit();
  50:src/syscall_cpp.cpp **** }
  51:src/syscall_cpp.cpp **** 
  52:src/syscall_cpp.cpp **** int Thread::sleep(time_t time) {
  53:src/syscall_cpp.cpp ****     return time_sleep(time);
  54:src/syscall_cpp.cpp **** }
  55:src/syscall_cpp.cpp **** 
  56:src/syscall_cpp.cpp **** //CONSOLE
  57:src/syscall_cpp.cpp **** void Console::putc(char c) {
  58:src/syscall_cpp.cpp ****     ::putc(c);
  59:src/syscall_cpp.cpp **** }
  60:src/syscall_cpp.cpp **** 
  61:src/syscall_cpp.cpp **** char Console::getc() {
  62:src/syscall_cpp.cpp ****     return ::getc();
  63:src/syscall_cpp.cpp **** }
GAS LISTING /tmp/ccBtmnCe.s 			page 4


  64:src/syscall_cpp.cpp **** 
  65:src/syscall_cpp.cpp **** //PERIODIC THREAD
  66:src/syscall_cpp.cpp **** List<PeriodicThread> PeriodicThread::createdThreads;
  67:src/syscall_cpp.cpp **** 
  68:src/syscall_cpp.cpp **** PeriodicThread::PeriodicThread(time_t period)
  69:src/syscall_cpp.cpp ****     : Thread(), period(period), terminated(false)
  70:src/syscall_cpp.cpp **** {
  71:src/syscall_cpp.cpp ****     createdThreads.addLast(this);
  72:src/syscall_cpp.cpp **** }
  73:src/syscall_cpp.cpp **** 
  74:src/syscall_cpp.cpp **** void PeriodicThread::terminate() {
  75:src/syscall_cpp.cpp ****     terminated = true;
  76:src/syscall_cpp.cpp **** }
  77:src/syscall_cpp.cpp **** 
  78:src/syscall_cpp.cpp **** void PeriodicThread::run() {
  79:src/syscall_cpp.cpp ****     while (!terminated) {
  80:src/syscall_cpp.cpp ****         periodicActivation();
  81:src/syscall_cpp.cpp ****         Thread::sleep(period);
  82:src/syscall_cpp.cpp ****     }
  83:src/syscall_cpp.cpp **** }...
  63              		.loc 2 83 1 is_stmt 1
  64              		.cfi_startproc
  65              	.LVL2:
  66 0000 130101FF 		addi	sp,sp,-16
  67              		.cfi_def_cfa_offset 16
  68 0004 23348100 		sd	s0,8(sp)
  69              		.cfi_offset 8, -8
  70 0008 13040101 		addi	s0,sp,16
  71              		.cfi_def_cfa 8, 0
  72              		.loc 2 83 1 is_stmt 0
  73 000c 93071000 		li	a5,1
  74 0010 6308F500 		beq	a0,a5,.L8
  75              	.L5:
  76 0014 03348100 		ld	s0,8(sp)
  77              		.cfi_remember_state
  78              		.cfi_restore 8
  79              		.cfi_def_cfa 2, 16
  80 0018 13010101 		addi	sp,sp,16
  81              		.cfi_def_cfa_offset 0
  82 001c 67800000 		jr	ra
  83              	.L8:
  84              		.cfi_restore_state
  85              		.loc 2 83 1 discriminator 1
  86 0020 B7070100 		li	a5,65536
  87 0024 9387F7FF 		addi	a5,a5,-1
  88 0028 E396F5FE 		bne	a1,a5,.L5
  89              	.LVL3:
  90              	.LBB19:
  91              	.LBB20:
  92              	.LBB21:
  93              		.file 3 "src/../h/list.hpp"
   1:src/../h/list.hpp **** #ifndef OS1_VEZBE07_RISCV_CONTEXT_SWITCH_2_INTERRUPT_LIST_HPP
   2:src/../h/list.hpp **** #define OS1_VEZBE07_RISCV_CONTEXT_SWITCH_2_INTERRUPT_LIST_HPP
   3:src/../h/list.hpp **** 
   4:src/../h/list.hpp **** #include "memory_allocator.hpp"
   5:src/../h/list.hpp **** template<typename T>
   6:src/../h/list.hpp **** class List
GAS LISTING /tmp/ccBtmnCe.s 			page 5


   7:src/../h/list.hpp **** {
   8:src/../h/list.hpp **** private:
   9:src/../h/list.hpp ****     struct Elem
  10:src/../h/list.hpp ****     {
  11:src/../h/list.hpp ****         T *data;
  12:src/../h/list.hpp ****         Elem *next;
  13:src/../h/list.hpp **** 
  14:src/../h/list.hpp ****         Elem(T *data, Elem *next) : data(data), next(next) {}
  15:src/../h/list.hpp **** 
  16:src/../h/list.hpp ****         void* operator new(size_t size) {
  17:src/../h/list.hpp ****             return MemoryAllocator::instance().kmem_alloc(size);
  18:src/../h/list.hpp ****         }
  19:src/../h/list.hpp ****         void* operator new[](size_t size) {
  20:src/../h/list.hpp ****             return MemoryAllocator::instance().kmem_alloc(size);
  21:src/../h/list.hpp ****         }
  22:src/../h/list.hpp ****         
  23:src/../h/list.hpp ****         void operator delete(void *ptr) {
  24:src/../h/list.hpp ****             MemoryAllocator::instance().kmem_free(ptr);
  25:src/../h/list.hpp ****         }
  26:src/../h/list.hpp ****         void operator delete[](void *ptr) {
  27:src/../h/list.hpp ****             MemoryAllocator::instance().kmem_free(ptr);
  28:src/../h/list.hpp ****         }
  29:src/../h/list.hpp ****     };
  30:src/../h/list.hpp **** 
  31:src/../h/list.hpp ****     Elem *head, *tail;
  32:src/../h/list.hpp ****     size_t size;
  33:src/../h/list.hpp **** 
  34:src/../h/list.hpp **** public:
  35:src/../h/list.hpp ****     List() : head(0), tail(0), size(0) {}
  94              		.loc 3 35 38
  95 002c 97070000 		lla	a5,.LANCHOR0
  95      93870700 
  96 0034 23B00700 		sd	zero,0(a5)
  97 0038 23B40700 		sd	zero,8(a5)
  98 003c 23B80700 		sd	zero,16(a5)
  99              	.LVL4:
 100              	.LBE21:
 101              	.LBE20:
 102              	.LBE19:
 103              		.loc 2 83 1
 104 0040 6FF05FFD 		j	.L5
 105              		.cfi_endproc
 106              	.LFE97:
 108              		.align	2
 109              		.globl	_ZN9SemaphoreD2Ev
 111              	_ZN9SemaphoreD2Ev:
 112              	.LFB52:
  10:src/syscall_cpp.cpp **** Semaphore::~Semaphore() {
 113              		.loc 2 10 1 is_stmt 1
 114              		.cfi_startproc
 115              		.cfi_personality 0x9b,DW.ref.__gxx_personality_v0
 116              		.cfi_lsda 0x1b,.LLSDA52
 117              	.LVL5:
 118 0044 130101FF 		addi	sp,sp,-16
 119              		.cfi_def_cfa_offset 16
 120 0048 23341100 		sd	ra,8(sp)
 121 004c 23308100 		sd	s0,0(sp)
GAS LISTING /tmp/ccBtmnCe.s 			page 6


 122              		.cfi_offset 1, -8
 123              		.cfi_offset 8, -16
 124 0050 13040101 		addi	s0,sp,16
 125              		.cfi_def_cfa 8, 0
 126              	.LBB22:
  10:src/syscall_cpp.cpp **** Semaphore::~Semaphore() {
 127              		.loc 2 10 23 is_stmt 0
 128 0054 97070000 		lla	a5,_ZTV9Semaphore+16
 128      93870700 
 129 005c 2330F500 		sd	a5,0(a0)
  11:src/syscall_cpp.cpp ****     sem_close(this->myHandle);
 130              		.loc 2 11 5 is_stmt 1
  11:src/syscall_cpp.cpp ****     sem_close(this->myHandle);
 131              		.loc 2 11 14 is_stmt 0
 132 0060 03358500 		ld	a0,8(a0)
 133              	.LVL6:
 134 0064 97000000 		call	_Z9sem_closeP10KSemaphore@plt
 134      E7800000 
 135              	.LVL7:
 136              	.LBE22:
  12:src/syscall_cpp.cpp **** }
 137              		.loc 2 12 1
 138 006c 83308100 		ld	ra,8(sp)
 139              		.cfi_restore 1
 140 0070 03340100 		ld	s0,0(sp)
 141              		.cfi_restore 8
 142              		.cfi_def_cfa 2, 16
 143 0074 13010101 		addi	sp,sp,16
 144              		.cfi_def_cfa_offset 0
 145 0078 67800000 		jr	ra
 146              		.cfi_endproc
 147              	.LFE52:
 148              		.globl	__gxx_personality_v0
 149              		.section	.gcc_except_table,"a",@progbits
 150              	.LLSDA52:
 151 0000 FF       		.byte	0xff
 152 0001 FF       		.byte	0xff
 153 0002 03       		.byte	0x3
 154 0003 00       		.byte	0
 155              		.text
 157              		.globl	_ZN9SemaphoreD1Ev
 158              		.set	_ZN9SemaphoreD1Ev,_ZN9SemaphoreD2Ev
 159              		.align	2
 160              		.globl	_ZN9SemaphoreD0Ev
 162              	_ZN9SemaphoreD0Ev:
 163              	.LFB54:
  10:src/syscall_cpp.cpp **** Semaphore::~Semaphore() {
 164              		.loc 2 10 1 is_stmt 1
 165              		.cfi_startproc
 166              	.LVL8:
 167 007c 130101FE 		addi	sp,sp,-32
 168              		.cfi_def_cfa_offset 32
 169 0080 233C1100 		sd	ra,24(sp)
 170 0084 23388100 		sd	s0,16(sp)
 171 0088 23349100 		sd	s1,8(sp)
 172              		.cfi_offset 1, -8
 173              		.cfi_offset 8, -16
GAS LISTING /tmp/ccBtmnCe.s 			page 7


 174              		.cfi_offset 9, -24
 175 008c 13040102 		addi	s0,sp,32
 176              		.cfi_def_cfa 8, 0
 177 0090 93040500 		mv	s1,a0
  12:src/syscall_cpp.cpp **** }
 178              		.loc 2 12 1 is_stmt 0
 179 0094 97000000 		call	_ZN9SemaphoreD1Ev
 179      E7800000 
 180              	.LVL9:
 181 009c 13850400 		mv	a0,s1
 182 00a0 97000000 		call	_ZdlPv@plt
 182      E7800000 
 183              	.LVL10:
 184 00a8 83308101 		ld	ra,24(sp)
 185              		.cfi_restore 1
 186 00ac 03340101 		ld	s0,16(sp)
 187              		.cfi_restore 8
 188              		.cfi_def_cfa 2, 32
 189 00b0 83348100 		ld	s1,8(sp)
 190              		.cfi_restore 9
 191              	.LVL11:
 192 00b4 13010102 		addi	sp,sp,32
 193              		.cfi_def_cfa_offset 0
 194 00b8 67800000 		jr	ra
 195              		.cfi_endproc
 196              	.LFE54:
 198              		.align	2
 199              		.globl	_ZN6ThreadD2Ev
 201              	_ZN6ThreadD2Ev:
 202              	.LFB62:
  33:src/syscall_cpp.cpp **** Thread::~Thread() {
 203              		.loc 2 33 1 is_stmt 1
 204              		.cfi_startproc
 205              		.cfi_personality 0x9b,DW.ref.__gxx_personality_v0
 206              		.cfi_lsda 0x1b,.LLSDA62
 207              	.LVL12:
 208 00bc 130101FE 		addi	sp,sp,-32
 209              		.cfi_def_cfa_offset 32
 210 00c0 233C1100 		sd	ra,24(sp)
 211 00c4 23388100 		sd	s0,16(sp)
 212 00c8 23349100 		sd	s1,8(sp)
 213              		.cfi_offset 1, -8
 214              		.cfi_offset 8, -16
 215              		.cfi_offset 9, -24
 216 00cc 13040102 		addi	s0,sp,32
 217              		.cfi_def_cfa 8, 0
 218              	.LBB23:
  33:src/syscall_cpp.cpp **** Thread::~Thread() {
 219              		.loc 2 33 17 is_stmt 0
 220 00d0 97070000 		lla	a5,_ZTV6Thread+16
 220      93870700 
 221 00d8 2330F500 		sd	a5,0(a0)
  34:src/syscall_cpp.cpp ****     delete this->myHandle;
 222              		.loc 2 34 5 is_stmt 1
  34:src/syscall_cpp.cpp ****     delete this->myHandle;
 223              		.loc 2 34 18 is_stmt 0
 224 00dc 83348500 		ld	s1,8(a0)
GAS LISTING /tmp/ccBtmnCe.s 			page 8


  34:src/syscall_cpp.cpp ****     delete this->myHandle;
 225              		.loc 2 34 26
 226 00e0 63860402 		beqz	s1,.L13
 227              	.LVL13:
 228              	.LBB24:
 229              	.LBB25:
 230              		.file 4 "src/../h/tcb.hpp"
   1:src/../h/tcb.hpp **** #ifndef OS1_VEZBE07_RISCV_CONTEXT_SWITCH_2_INTERRUPT_TCB_HPP
   2:src/../h/tcb.hpp **** #define OS1_VEZBE07_RISCV_CONTEXT_SWITCH_2_INTERRUPT_TCB_HPP
   3:src/../h/tcb.hpp **** 
   4:src/../h/tcb.hpp **** #include "../lib/hw.h"
   5:src/../h/tcb.hpp **** #include "scheduler.hpp"
   6:src/../h/tcb.hpp **** #include "memory_allocator.hpp"
   7:src/../h/tcb.hpp **** 
   8:src/../h/tcb.hpp **** // Thread Control Block
   9:src/../h/tcb.hpp **** class TCB
  10:src/../h/tcb.hpp **** {
  11:src/../h/tcb.hpp **** public:
  12:src/../h/tcb.hpp ****     ~TCB() { MemoryAllocator::instance().kmem_free(stack); }
 231              		.loc 4 12 14 is_stmt 1
 232              		.loc 4 12 40 is_stmt 0
 233 00e4 97000000 		call	_ZN15MemoryAllocator8instanceEv@plt
 233      E7800000 
 234              	.LVL14:
 235              		.loc 4 12 51
 236 00ec 83B58400 		ld	a1,8(s1)
 237 00f0 97000000 		call	_ZN15MemoryAllocator9kmem_freeEPv@plt
 237      E7800000 
 238              	.LVL15:
 239              	.LBE25:
 240              	.LBE24:
 241              	.LBB26:
 242              	.LBB27:
  13:src/../h/tcb.hpp **** 
  14:src/../h/tcb.hpp ****     bool isFinished() const { return finished; }
  15:src/../h/tcb.hpp **** 
  16:src/../h/tcb.hpp ****     void setFinished(bool value) { finished = value; }
  17:src/../h/tcb.hpp **** 
  18:src/../h/tcb.hpp ****     bool isBlocked() const { return this->blocked; }
  19:src/../h/tcb.hpp **** 
  20:src/../h/tcb.hpp ****     void setBlocked(bool value) { this->blocked = value; }
  21:src/../h/tcb.hpp **** 
  22:src/../h/tcb.hpp ****     void setSleeping(time_t value) { this->sleepTime = value; }
  23:src/../h/tcb.hpp **** 
  24:src/../h/tcb.hpp ****     bool isSleeping() { return this->sleepTime > 0; }
  25:src/../h/tcb.hpp **** 
  26:src/../h/tcb.hpp ****     void decSleep() { if (this->sleepTime > 0) this->sleepTime--; }
  27:src/../h/tcb.hpp **** 
  28:src/../h/tcb.hpp ****     using Body = void (*)(void*); //Body = pointer to function that takes a void pointer as an argu
  29:src/../h/tcb.hpp **** 
  30:src/../h/tcb.hpp ****     static TCB *createThread(Body body, void* arg, uint64 *stack);
  31:src/../h/tcb.hpp **** 
  32:src/../h/tcb.hpp ****     static void yield();
  33:src/../h/tcb.hpp **** 
  34:src/../h/tcb.hpp ****     static int time_sleep(uint64 time);
  35:src/../h/tcb.hpp **** 
  36:src/../h/tcb.hpp ****     static void time_tick();
GAS LISTING /tmp/ccBtmnCe.s 			page 9


  37:src/../h/tcb.hpp **** 
  38:src/../h/tcb.hpp ****     static TCB *running;
  39:src/../h/tcb.hpp **** 
  40:src/../h/tcb.hpp ****     static List<TCB> SleepingThreads;
  41:src/../h/tcb.hpp **** 
  42:src/../h/tcb.hpp ****     uint64 getTimeSlice() const { return timeSlice; }
  43:src/../h/tcb.hpp **** 
  44:src/../h/tcb.hpp ****     void* operator new(size_t size) {
  45:src/../h/tcb.hpp ****         return MemoryAllocator::instance().kmem_alloc(size);
  46:src/../h/tcb.hpp ****     }
  47:src/../h/tcb.hpp ****     void* operator new[](size_t size) {
  48:src/../h/tcb.hpp ****         return MemoryAllocator::instance().kmem_alloc(size);
  49:src/../h/tcb.hpp ****     }
  50:src/../h/tcb.hpp ****     
  51:src/../h/tcb.hpp ****     void operator delete(void *ptr) {
  52:src/../h/tcb.hpp ****         MemoryAllocator::instance().kmem_free(ptr);
 243              		.loc 4 52 9 is_stmt 1
 244              		.loc 4 52 35 is_stmt 0
 245 00f8 97000000 		call	_ZN15MemoryAllocator8instanceEv@plt
 245      E7800000 
 246              	.LVL16:
 247              		.loc 4 52 46
 248 0100 93850400 		mv	a1,s1
 249 0104 97000000 		call	_ZN15MemoryAllocator9kmem_freeEPv@plt
 249      E7800000 
 250              	.LVL17:
 251              	.L13:
 252              	.LBE27:
 253              	.LBE26:
 254              	.LBE23:
  35:src/syscall_cpp.cpp **** }
 255              		.loc 2 35 1
 256 010c 83308101 		ld	ra,24(sp)
 257              		.cfi_restore 1
 258 0110 03340101 		ld	s0,16(sp)
 259              		.cfi_restore 8
 260              		.cfi_def_cfa 2, 32
 261 0114 83348100 		ld	s1,8(sp)
 262              		.cfi_restore 9
 263 0118 13010102 		addi	sp,sp,32
 264              		.cfi_def_cfa_offset 0
 265 011c 67800000 		jr	ra
 266              		.cfi_endproc
 267              	.LFE62:
 268              		.section	.gcc_except_table
 269              	.LLSDA62:
 270 0004 FF       		.byte	0xff
 271 0005 FF       		.byte	0xff
 272 0006 03       		.byte	0x3
 273 0007 00       		.byte	0
 274              		.text
 276              		.globl	_ZN6ThreadD1Ev
 277              		.set	_ZN6ThreadD1Ev,_ZN6ThreadD2Ev
 278              		.align	2
 279              		.globl	_ZN6ThreadD0Ev
 281              	_ZN6ThreadD0Ev:
 282              	.LFB64:
GAS LISTING /tmp/ccBtmnCe.s 			page 10


  33:src/syscall_cpp.cpp **** Thread::~Thread() {
 283              		.loc 2 33 1 is_stmt 1
 284              		.cfi_startproc
 285              	.LVL18:
 286 0120 130101FE 		addi	sp,sp,-32
 287              		.cfi_def_cfa_offset 32
 288 0124 233C1100 		sd	ra,24(sp)
 289 0128 23388100 		sd	s0,16(sp)
 290 012c 23349100 		sd	s1,8(sp)
 291              		.cfi_offset 1, -8
 292              		.cfi_offset 8, -16
 293              		.cfi_offset 9, -24
 294 0130 13040102 		addi	s0,sp,32
 295              		.cfi_def_cfa 8, 0
 296 0134 93040500 		mv	s1,a0
  35:src/syscall_cpp.cpp **** }
 297              		.loc 2 35 1 is_stmt 0
 298 0138 97000000 		call	_ZN6ThreadD1Ev
 298      E7800000 
 299              	.LVL19:
 300 0140 13850400 		mv	a0,s1
 301 0144 97000000 		call	_ZdlPv@plt
 301      E7800000 
 302              	.LVL20:
 303 014c 83308101 		ld	ra,24(sp)
 304              		.cfi_restore 1
 305 0150 03340101 		ld	s0,16(sp)
 306              		.cfi_restore 8
 307              		.cfi_def_cfa 2, 32
 308 0154 83348100 		ld	s1,8(sp)
 309              		.cfi_restore 9
 310              	.LVL21:
 311 0158 13010102 		addi	sp,sp,32
 312              		.cfi_def_cfa_offset 0
 313 015c 67800000 		jr	ra
 314              		.cfi_endproc
 315              	.LFE64:
 317              		.section	.text._ZN14PeriodicThreadD2Ev,"axG",@progbits,_ZN14PeriodicThreadD5Ev,comdat
 318              		.align	2
 319              		.weak	_ZN14PeriodicThreadD2Ev
 321              	_ZN14PeriodicThreadD2Ev:
 322              	.LFB94:
  45:src/../h/syscall_cpp.hpp **** public: 
 323              		.loc 1 45 7 is_stmt 1
 324              		.cfi_startproc
 325              	.LVL22:
 326 0000 130101FF 		addi	sp,sp,-16
 327              		.cfi_def_cfa_offset 16
 328 0004 23341100 		sd	ra,8(sp)
 329 0008 23308100 		sd	s0,0(sp)
 330              		.cfi_offset 1, -8
 331              		.cfi_offset 8, -16
 332 000c 13040101 		addi	s0,sp,16
 333              		.cfi_def_cfa 8, 0
 334              	.LBB28:
  45:src/../h/syscall_cpp.hpp **** public: 
 335              		.loc 1 45 7 is_stmt 0
GAS LISTING /tmp/ccBtmnCe.s 			page 11


 336 0010 97070000 		lla	a5,_ZTV14PeriodicThread+16
 336      93870700 
 337 0018 2330F500 		sd	a5,0(a0)
 338 001c 97000000 		call	_ZN6ThreadD2Ev
 338      E7800000 
 339              	.LVL23:
 340              	.LBE28:
 341 0024 83308100 		ld	ra,8(sp)
 342              		.cfi_restore 1
 343 0028 03340100 		ld	s0,0(sp)
 344              		.cfi_restore 8
 345              		.cfi_def_cfa 2, 16
 346 002c 13010101 		addi	sp,sp,16
 347              		.cfi_def_cfa_offset 0
 348 0030 67800000 		jr	ra
 349              		.cfi_endproc
 350              	.LFE94:
 352              		.weak	_ZN14PeriodicThreadD1Ev
 353              		.set	_ZN14PeriodicThreadD1Ev,_ZN14PeriodicThreadD2Ev
 354              		.section	.text._ZN14PeriodicThreadD0Ev,"axG",@progbits,_ZN14PeriodicThreadD5Ev,comdat
 355              		.align	2
 356              		.weak	_ZN14PeriodicThreadD0Ev
 358              	_ZN14PeriodicThreadD0Ev:
 359              	.LFB96:
  45:src/../h/syscall_cpp.hpp **** public: 
 360              		.loc 1 45 7 is_stmt 1
 361              		.cfi_startproc
 362              	.LVL24:
 363 0000 130101FE 		addi	sp,sp,-32
 364              		.cfi_def_cfa_offset 32
 365 0004 233C1100 		sd	ra,24(sp)
 366 0008 23388100 		sd	s0,16(sp)
 367 000c 23349100 		sd	s1,8(sp)
 368              		.cfi_offset 1, -8
 369              		.cfi_offset 8, -16
 370              		.cfi_offset 9, -24
 371 0010 13040102 		addi	s0,sp,32
 372              		.cfi_def_cfa 8, 0
 373 0014 93040500 		mv	s1,a0
 374              	.LVL25:
 375              	.LBB29:
 376              	.LBB30:
  45:src/../h/syscall_cpp.hpp **** public: 
 377              		.loc 1 45 7 is_stmt 0
 378 0018 97070000 		lla	a5,_ZTV14PeriodicThread+16
 378      93870700 
 379 0020 2330F500 		sd	a5,0(a0)
 380 0024 97000000 		call	_ZN6ThreadD2Ev
 380      E7800000 
 381              	.LVL26:
 382              	.LBE30:
 383              	.LBE29:
 384 002c 13850400 		mv	a0,s1
 385 0030 97000000 		call	_ZdlPv@plt
 385      E7800000 
 386              	.LVL27:
 387 0038 83308101 		ld	ra,24(sp)
GAS LISTING /tmp/ccBtmnCe.s 			page 12


 388              		.cfi_restore 1
 389 003c 03340101 		ld	s0,16(sp)
 390              		.cfi_restore 8
 391              		.cfi_def_cfa 2, 32
 392 0040 83348100 		ld	s1,8(sp)
 393              		.cfi_restore 9
 394              	.LVL28:
 395 0044 13010102 		addi	sp,sp,32
 396              		.cfi_def_cfa_offset 0
 397 0048 67800000 		jr	ra
 398              		.cfi_endproc
 399              	.LFE96:
 401              		.text
 402              		.align	2
 403              		.globl	_ZN6Thread7wrapperEPv
 405              	_ZN6Thread7wrapperEPv:
 406              	.LFB69:
  47:src/syscall_cpp.cpp **** void Thread::wrapper(void *thread) {
 407              		.loc 2 47 36 is_stmt 1
 408              		.cfi_startproc
 409              	.LVL29:
 410 0160 130101FF 		addi	sp,sp,-16
 411              		.cfi_def_cfa_offset 16
 412 0164 23341100 		sd	ra,8(sp)
 413 0168 23308100 		sd	s0,0(sp)
 414              		.cfi_offset 1, -8
 415              		.cfi_offset 8, -16
 416 016c 13040101 		addi	s0,sp,16
 417              		.cfi_def_cfa 8, 0
  48:src/syscall_cpp.cpp ****     ((Thread *) thread)->run();
 418              		.loc 2 48 5
  48:src/syscall_cpp.cpp ****     ((Thread *) thread)->run();
 419              		.loc 2 48 30 is_stmt 0
 420 0170 83370500 		ld	a5,0(a0)
 421 0174 83B70701 		ld	a5,16(a5)
  48:src/syscall_cpp.cpp ****     ((Thread *) thread)->run();
 422              		.loc 2 48 29
 423 0178 E7800700 		jalr	a5
 424              	.LVL30:
  49:src/syscall_cpp.cpp ****     thread_exit();
 425              		.loc 2 49 5 is_stmt 1
  49:src/syscall_cpp.cpp ****     thread_exit();
 426              		.loc 2 49 16 is_stmt 0
 427 017c 97000000 		call	_Z11thread_exitv@plt
 427      E7800000 
 428              	.LVL31:
  50:src/syscall_cpp.cpp **** }
 429              		.loc 2 50 1
 430 0184 83308100 		ld	ra,8(sp)
 431              		.cfi_restore 1
 432 0188 03340100 		ld	s0,0(sp)
 433              		.cfi_restore 8
 434              		.cfi_def_cfa 2, 16
 435 018c 13010101 		addi	sp,sp,16
 436              		.cfi_def_cfa_offset 0
 437 0190 67800000 		jr	ra
 438              		.cfi_endproc
GAS LISTING /tmp/ccBtmnCe.s 			page 13


 439              	.LFE69:
 441              		.align	2
 442              		.globl	_ZN9SemaphoreC2Ej
 444              	_ZN9SemaphoreC2Ej:
 445              	.LFB49:
   6:src/syscall_cpp.cpp **** Semaphore::Semaphore(unsigned int init) {
 446              		.loc 2 6 1 is_stmt 1
 447              		.cfi_startproc
 448              	.LVL32:
 449 0194 130101FF 		addi	sp,sp,-16
 450              		.cfi_def_cfa_offset 16
 451 0198 23341100 		sd	ra,8(sp)
 452 019c 23308100 		sd	s0,0(sp)
 453              		.cfi_offset 1, -8
 454              		.cfi_offset 8, -16
 455 01a0 13040101 		addi	s0,sp,16
 456              		.cfi_def_cfa 8, 0
 457              	.LBB31:
   6:src/syscall_cpp.cpp **** Semaphore::Semaphore(unsigned int init) {
 458              		.loc 2 6 39 is_stmt 0
 459 01a4 97070000 		lla	a5,_ZTV9Semaphore+16
 459      93870700 
 460 01ac 2330F500 		sd	a5,0(a0)
   7:src/syscall_cpp.cpp ****     sem_open(&this->myHandle, init);
 461              		.loc 2 7 5 is_stmt 1
   7:src/syscall_cpp.cpp ****     sem_open(&this->myHandle, init);
 462              		.loc 2 7 13 is_stmt 0
 463 01b0 13058500 		addi	a0,a0,8
 464              	.LVL33:
 465 01b4 97000000 		call	_Z8sem_openPP10KSemaphorej@plt
 465      E7800000 
 466              	.LVL34:
 467              	.LBE31:
   8:src/syscall_cpp.cpp **** }
 468              		.loc 2 8 1
 469 01bc 83308100 		ld	ra,8(sp)
 470              		.cfi_restore 1
 471 01c0 03340100 		ld	s0,0(sp)
 472              		.cfi_restore 8
 473              		.cfi_def_cfa 2, 16
 474 01c4 13010101 		addi	sp,sp,16
 475              		.cfi_def_cfa_offset 0
 476 01c8 67800000 		jr	ra
 477              		.cfi_endproc
 478              	.LFE49:
 480              		.globl	_ZN9SemaphoreC1Ej
 481              		.set	_ZN9SemaphoreC1Ej,_ZN9SemaphoreC2Ej
 482              		.align	2
 483              		.globl	_ZN9Semaphore4waitEv
 485              	_ZN9Semaphore4waitEv:
 486              	.LFB55:
  14:src/syscall_cpp.cpp **** int Semaphore::wait() {
 487              		.loc 2 14 23 is_stmt 1
 488              		.cfi_startproc
 489              	.LVL35:
 490 01cc 130101FF 		addi	sp,sp,-16
 491              		.cfi_def_cfa_offset 16
GAS LISTING /tmp/ccBtmnCe.s 			page 14


 492 01d0 23341100 		sd	ra,8(sp)
 493 01d4 23308100 		sd	s0,0(sp)
 494              		.cfi_offset 1, -8
 495              		.cfi_offset 8, -16
 496 01d8 13040101 		addi	s0,sp,16
 497              		.cfi_def_cfa 8, 0
  15:src/syscall_cpp.cpp ****     return sem_wait(this->myHandle);
 498              		.loc 2 15 5
  15:src/syscall_cpp.cpp ****     return sem_wait(this->myHandle);
 499              		.loc 2 15 20 is_stmt 0
 500 01dc 03358500 		ld	a0,8(a0)
 501              	.LVL36:
 502 01e0 97000000 		call	_Z8sem_waitP10KSemaphore@plt
 502      E7800000 
 503              	.LVL37:
  16:src/syscall_cpp.cpp **** }
 504              		.loc 2 16 1
 505 01e8 83308100 		ld	ra,8(sp)
 506              		.cfi_restore 1
 507 01ec 03340100 		ld	s0,0(sp)
 508              		.cfi_restore 8
 509              		.cfi_def_cfa 2, 16
 510 01f0 13010101 		addi	sp,sp,16
 511              		.cfi_def_cfa_offset 0
 512 01f4 67800000 		jr	ra
 513              		.cfi_endproc
 514              	.LFE55:
 516              		.align	2
 517              		.globl	_ZN9Semaphore6signalEv
 519              	_ZN9Semaphore6signalEv:
 520              	.LFB56:
  18:src/syscall_cpp.cpp **** int Semaphore::signal() {
 521              		.loc 2 18 25 is_stmt 1
 522              		.cfi_startproc
 523              	.LVL38:
 524 01f8 130101FF 		addi	sp,sp,-16
 525              		.cfi_def_cfa_offset 16
 526 01fc 23341100 		sd	ra,8(sp)
 527 0200 23308100 		sd	s0,0(sp)
 528              		.cfi_offset 1, -8
 529              		.cfi_offset 8, -16
 530 0204 13040101 		addi	s0,sp,16
 531              		.cfi_def_cfa 8, 0
  19:src/syscall_cpp.cpp ****     return sem_signal(this->myHandle);
 532              		.loc 2 19 5
  19:src/syscall_cpp.cpp ****     return sem_signal(this->myHandle);
 533              		.loc 2 19 22 is_stmt 0
 534 0208 03358500 		ld	a0,8(a0)
 535              	.LVL39:
 536 020c 97000000 		call	_Z10sem_signalP10KSemaphore@plt
 536      E7800000 
 537              	.LVL40:
  20:src/syscall_cpp.cpp **** }
 538              		.loc 2 20 1
 539 0214 83308100 		ld	ra,8(sp)
 540              		.cfi_restore 1
 541 0218 03340100 		ld	s0,0(sp)
GAS LISTING /tmp/ccBtmnCe.s 			page 15


 542              		.cfi_restore 8
 543              		.cfi_def_cfa 2, 16
 544 021c 13010101 		addi	sp,sp,16
 545              		.cfi_def_cfa_offset 0
 546 0220 67800000 		jr	ra
 547              		.cfi_endproc
 548              	.LFE56:
 550              		.align	2
 551              		.globl	_ZN6Thread8dispatchEv
 553              	_ZN6Thread8dispatchEv:
 554              	.LFB57:
  23:src/syscall_cpp.cpp **** void Thread::dispatch() {
 555              		.loc 2 23 25 is_stmt 1
 556              		.cfi_startproc
 557 0224 130101FF 		addi	sp,sp,-16
 558              		.cfi_def_cfa_offset 16
 559 0228 23341100 		sd	ra,8(sp)
 560 022c 23308100 		sd	s0,0(sp)
 561              		.cfi_offset 1, -8
 562              		.cfi_offset 8, -16
 563 0230 13040101 		addi	s0,sp,16
 564              		.cfi_def_cfa 8, 0
  24:src/syscall_cpp.cpp ****     thread_dispatch();
 565              		.loc 2 24 5
  24:src/syscall_cpp.cpp ****     thread_dispatch();
 566              		.loc 2 24 20 is_stmt 0
 567 0234 97000000 		call	_Z15thread_dispatchv@plt
 567      E7800000 
 568              	.LVL41:
  25:src/syscall_cpp.cpp **** }
 569              		.loc 2 25 1
 570 023c 83308100 		ld	ra,8(sp)
 571              		.cfi_restore 1
 572 0240 03340100 		ld	s0,0(sp)
 573              		.cfi_restore 8
 574              		.cfi_def_cfa 2, 16
 575 0244 13010101 		addi	sp,sp,16
 576              		.cfi_def_cfa_offset 0
 577 0248 67800000 		jr	ra
 578              		.cfi_endproc
 579              	.LFE57:
 581              		.align	2
 582              		.globl	_ZN6ThreadC2EPFvPvES0_
 584              	_ZN6ThreadC2EPFvPvES0_:
 585              	.LFB59:
  27:src/syscall_cpp.cpp **** Thread::Thread(void (*body)(void *), void *arg) {
 586              		.loc 2 27 1 is_stmt 1
 587              		.cfi_startproc
 588              	.LVL42:
 589 024c 130101FF 		addi	sp,sp,-16
 590              		.cfi_def_cfa_offset 16
 591 0250 23348100 		sd	s0,8(sp)
 592              		.cfi_offset 8, -8
 593 0254 13040101 		addi	s0,sp,16
 594              		.cfi_def_cfa 8, 0
 595              	.LBB32:
  27:src/syscall_cpp.cpp **** Thread::Thread(void (*body)(void *), void *arg) {
GAS LISTING /tmp/ccBtmnCe.s 			page 16


 596              		.loc 2 27 47 is_stmt 0
 597 0258 97070000 		lla	a5,_ZTV6Thread+16
 597      93870700 
 598 0260 2330F500 		sd	a5,0(a0)
  28:src/syscall_cpp.cpp ****     this->body = body;
 599              		.loc 2 28 5 is_stmt 1
  28:src/syscall_cpp.cpp ****     this->body = body;
 600              		.loc 2 28 16 is_stmt 0
 601 0264 2338B500 		sd	a1,16(a0)
  29:src/syscall_cpp.cpp ****     this->arg = arg;
 602              		.loc 2 29 5 is_stmt 1
  29:src/syscall_cpp.cpp ****     this->arg = arg;
 603              		.loc 2 29 15 is_stmt 0
 604 0268 233CC500 		sd	a2,24(a0)
  30:src/syscall_cpp.cpp ****     myHandle = nullptr;
 605              		.loc 2 30 5 is_stmt 1
  30:src/syscall_cpp.cpp ****     myHandle = nullptr;
 606              		.loc 2 30 14 is_stmt 0
 607 026c 23340500 		sd	zero,8(a0)
 608              	.LBE32:
  31:src/syscall_cpp.cpp **** }
 609              		.loc 2 31 1
 610 0270 03348100 		ld	s0,8(sp)
 611              		.cfi_restore 8
 612              		.cfi_def_cfa 2, 16
 613 0274 13010101 		addi	sp,sp,16
 614              		.cfi_def_cfa_offset 0
 615 0278 67800000 		jr	ra
 616              		.cfi_endproc
 617              	.LFE59:
 619              		.globl	_ZN6ThreadC1EPFvPvES0_
 620              		.set	_ZN6ThreadC1EPFvPvES0_,_ZN6ThreadC2EPFvPvES0_
 621              		.align	2
 622              		.globl	_ZN6Thread5startEv
 624              	_ZN6Thread5startEv:
 625              	.LFB65:
  37:src/syscall_cpp.cpp **** int Thread::start() {
 626              		.loc 2 37 21 is_stmt 1
 627              		.cfi_startproc
 628              	.LVL43:
 629 027c 130101FF 		addi	sp,sp,-16
 630              		.cfi_def_cfa_offset 16
 631 0280 23341100 		sd	ra,8(sp)
 632 0284 23308100 		sd	s0,0(sp)
 633              		.cfi_offset 1, -8
 634              		.cfi_offset 8, -16
 635 0288 13040101 		addi	s0,sp,16
 636              		.cfi_def_cfa 8, 0
  38:src/syscall_cpp.cpp ****     return thread_create(&this->myHandle, body, arg);
 637              		.loc 2 38 5
  38:src/syscall_cpp.cpp ****     return thread_create(&this->myHandle, body, arg);
 638              		.loc 2 38 25 is_stmt 0
 639 028c 03368501 		ld	a2,24(a0)
 640 0290 83350501 		ld	a1,16(a0)
 641 0294 13058500 		addi	a0,a0,8
 642              	.LVL44:
 643 0298 97000000 		call	_Z13thread_createPP3TCBPFvPvES2_@plt
GAS LISTING /tmp/ccBtmnCe.s 			page 17


 643      E7800000 
 644              	.LVL45:
  39:src/syscall_cpp.cpp **** }
 645              		.loc 2 39 1
 646 02a0 83308100 		ld	ra,8(sp)
 647              		.cfi_restore 1
 648 02a4 03340100 		ld	s0,0(sp)
 649              		.cfi_restore 8
 650              		.cfi_def_cfa 2, 16
 651 02a8 13010101 		addi	sp,sp,16
 652              		.cfi_def_cfa_offset 0
 653 02ac 67800000 		jr	ra
 654              		.cfi_endproc
 655              	.LFE65:
 657              		.align	2
 658              		.globl	_ZN6ThreadC2Ev
 660              	_ZN6ThreadC2Ev:
 661              	.LFB67:
  41:src/syscall_cpp.cpp **** Thread::Thread() {
 662              		.loc 2 41 1 is_stmt 1
 663              		.cfi_startproc
 664              	.LVL46:
 665 02b0 130101FF 		addi	sp,sp,-16
 666              		.cfi_def_cfa_offset 16
 667 02b4 23348100 		sd	s0,8(sp)
 668              		.cfi_offset 8, -8
 669 02b8 13040101 		addi	s0,sp,16
 670              		.cfi_def_cfa 8, 0
 671              	.LBB33:
  41:src/syscall_cpp.cpp **** Thread::Thread() {
 672              		.loc 2 41 16 is_stmt 0
 673 02bc 97070000 		lla	a5,_ZTV6Thread+16
 673      93870700 
 674 02c4 2330F500 		sd	a5,0(a0)
  42:src/syscall_cpp.cpp ****     this->body = Thread::wrapper;
 675              		.loc 2 42 5 is_stmt 1
  42:src/syscall_cpp.cpp ****     this->body = Thread::wrapper;
 676              		.loc 2 42 16 is_stmt 0
 677 02c8 97070000 		lla	a5,_ZN6Thread7wrapperEPv
 677      93870700 
 678 02d0 2338F500 		sd	a5,16(a0)
  43:src/syscall_cpp.cpp ****     this->arg = this;
 679              		.loc 2 43 5 is_stmt 1
  43:src/syscall_cpp.cpp ****     this->arg = this;
 680              		.loc 2 43 15 is_stmt 0
 681 02d4 233CA500 		sd	a0,24(a0)
  44:src/syscall_cpp.cpp ****     myHandle = nullptr;
 682              		.loc 2 44 5 is_stmt 1
  44:src/syscall_cpp.cpp ****     myHandle = nullptr;
 683              		.loc 2 44 14 is_stmt 0
 684 02d8 23340500 		sd	zero,8(a0)
 685              	.LBE33:
  45:src/syscall_cpp.cpp **** }
 686              		.loc 2 45 1
 687 02dc 03348100 		ld	s0,8(sp)
 688              		.cfi_restore 8
 689              		.cfi_def_cfa 2, 16
GAS LISTING /tmp/ccBtmnCe.s 			page 18


 690 02e0 13010101 		addi	sp,sp,16
 691              		.cfi_def_cfa_offset 0
 692 02e4 67800000 		jr	ra
 693              		.cfi_endproc
 694              	.LFE67:
 696              		.globl	_ZN6ThreadC1Ev
 697              		.set	_ZN6ThreadC1Ev,_ZN6ThreadC2Ev
 698              		.align	2
 699              		.globl	_ZN6Thread5sleepEm
 701              	_ZN6Thread5sleepEm:
 702              	.LFB70:
  52:src/syscall_cpp.cpp **** int Thread::sleep(time_t time) {
 703              		.loc 2 52 32 is_stmt 1
 704              		.cfi_startproc
 705              	.LVL47:
 706 02e8 130101FF 		addi	sp,sp,-16
 707              		.cfi_def_cfa_offset 16
 708 02ec 23341100 		sd	ra,8(sp)
 709 02f0 23308100 		sd	s0,0(sp)
 710              		.cfi_offset 1, -8
 711              		.cfi_offset 8, -16
 712 02f4 13040101 		addi	s0,sp,16
 713              		.cfi_def_cfa 8, 0
  53:src/syscall_cpp.cpp ****     return time_sleep(time);
 714              		.loc 2 53 5
  53:src/syscall_cpp.cpp ****     return time_sleep(time);
 715              		.loc 2 53 22 is_stmt 0
 716 02f8 97000000 		call	_Z10time_sleepm@plt
 716      E7800000 
 717              	.LVL48:
  54:src/syscall_cpp.cpp **** }
 718              		.loc 2 54 1
 719 0300 83308100 		ld	ra,8(sp)
 720              		.cfi_restore 1
 721 0304 03340100 		ld	s0,0(sp)
 722              		.cfi_restore 8
 723              		.cfi_def_cfa 2, 16
 724 0308 13010101 		addi	sp,sp,16
 725              		.cfi_def_cfa_offset 0
 726 030c 67800000 		jr	ra
 727              		.cfi_endproc
 728              	.LFE70:
 730              		.align	2
 731              		.globl	_ZN14PeriodicThread3runEv
 733              	_ZN14PeriodicThread3runEv:
 734              	.LFB77:
  78:src/syscall_cpp.cpp **** void PeriodicThread::run() {
 735              		.loc 2 78 28 is_stmt 1
 736              		.cfi_startproc
 737              	.LVL49:
 738 0310 130101FE 		addi	sp,sp,-32
 739              		.cfi_def_cfa_offset 32
 740 0314 233C1100 		sd	ra,24(sp)
 741 0318 23388100 		sd	s0,16(sp)
 742 031c 23349100 		sd	s1,8(sp)
 743              		.cfi_offset 1, -8
 744              		.cfi_offset 8, -16
GAS LISTING /tmp/ccBtmnCe.s 			page 19


 745              		.cfi_offset 9, -24
 746 0320 13040102 		addi	s0,sp,32
 747              		.cfi_def_cfa 8, 0
 748 0324 93040500 		mv	s1,a0
 749              	.LVL50:
 750              	.L42:
  79:src/syscall_cpp.cpp ****     while (!terminated) {
 751              		.loc 2 79 5
  79:src/syscall_cpp.cpp ****     while (!terminated) {
 752              		.loc 2 79 12
  79:src/syscall_cpp.cpp ****     while (!terminated) {
 753              		.loc 2 79 13 is_stmt 0
 754 0328 83C78402 		lbu	a5,40(s1)
  79:src/syscall_cpp.cpp ****     while (!terminated) {
 755              		.loc 2 79 12
 756 032c 63920702 		bnez	a5,.L40
  80:src/syscall_cpp.cpp ****         periodicActivation();
 757              		.loc 2 80 9 is_stmt 1
  80:src/syscall_cpp.cpp ****         periodicActivation();
 758              		.loc 2 80 28 is_stmt 0
 759 0330 83B70400 		ld	a5,0(s1)
 760 0334 83B78701 		ld	a5,24(a5)
  80:src/syscall_cpp.cpp ****         periodicActivation();
 761              		.loc 2 80 27
 762 0338 13850400 		mv	a0,s1
 763 033c E7800700 		jalr	a5
 764              	.LVL51:
  81:src/syscall_cpp.cpp ****         Thread::sleep(period);
 765              		.loc 2 81 9 is_stmt 1
  81:src/syscall_cpp.cpp ****         Thread::sleep(period);
 766              		.loc 2 81 22 is_stmt 0
 767 0340 03B50402 		ld	a0,32(s1)
 768 0344 97000000 		call	_ZN6Thread5sleepEm
 768      E7800000 
 769              	.LVL52:
  79:src/syscall_cpp.cpp ****     while (!terminated) {
 770              		.loc 2 79 5
 771 034c 6FF0DFFD 		j	.L42
 772              	.L40:
 773              		.loc 2 83 1
 774 0350 83308101 		ld	ra,24(sp)
 775              		.cfi_restore 1
 776 0354 03340101 		ld	s0,16(sp)
 777              		.cfi_restore 8
 778              		.cfi_def_cfa 2, 32
 779 0358 83348100 		ld	s1,8(sp)
 780              		.cfi_restore 9
 781              	.LVL53:
 782 035c 13010102 		addi	sp,sp,32
 783              		.cfi_def_cfa_offset 0
 784 0360 67800000 		jr	ra
 785              		.cfi_endproc
 786              	.LFE77:
 788              		.align	2
 789              		.globl	_ZN7Console4putcEc
 791              	_ZN7Console4putcEc:
 792              	.LFB71:
GAS LISTING /tmp/ccBtmnCe.s 			page 20


  57:src/syscall_cpp.cpp **** void Console::putc(char c) {
 793              		.loc 2 57 28 is_stmt 1
 794              		.cfi_startproc
 795              	.LVL54:
 796 0364 130101FF 		addi	sp,sp,-16
 797              		.cfi_def_cfa_offset 16
 798 0368 23341100 		sd	ra,8(sp)
 799 036c 23308100 		sd	s0,0(sp)
 800              		.cfi_offset 1, -8
 801              		.cfi_offset 8, -16
 802 0370 13040101 		addi	s0,sp,16
 803              		.cfi_def_cfa 8, 0
  58:src/syscall_cpp.cpp ****     ::putc(c);
 804              		.loc 2 58 5
  58:src/syscall_cpp.cpp ****     ::putc(c);
 805              		.loc 2 58 11 is_stmt 0
 806 0374 97000000 		call	_Z4putcc@plt
 806      E7800000 
 807              	.LVL55:
  59:src/syscall_cpp.cpp **** }
 808              		.loc 2 59 1
 809 037c 83308100 		ld	ra,8(sp)
 810              		.cfi_restore 1
 811 0380 03340100 		ld	s0,0(sp)
 812              		.cfi_restore 8
 813              		.cfi_def_cfa 2, 16
 814 0384 13010101 		addi	sp,sp,16
 815              		.cfi_def_cfa_offset 0
 816 0388 67800000 		jr	ra
 817              		.cfi_endproc
 818              	.LFE71:
 820              		.align	2
 821              		.globl	_ZN7Console4getcEv
 823              	_ZN7Console4getcEv:
 824              	.LFB72:
  61:src/syscall_cpp.cpp **** char Console::getc() {
 825              		.loc 2 61 22 is_stmt 1
 826              		.cfi_startproc
 827 038c 130101FF 		addi	sp,sp,-16
 828              		.cfi_def_cfa_offset 16
 829 0390 23341100 		sd	ra,8(sp)
 830 0394 23308100 		sd	s0,0(sp)
 831              		.cfi_offset 1, -8
 832              		.cfi_offset 8, -16
 833 0398 13040101 		addi	s0,sp,16
 834              		.cfi_def_cfa 8, 0
  62:src/syscall_cpp.cpp ****     return ::getc();
 835              		.loc 2 62 5
  62:src/syscall_cpp.cpp ****     return ::getc();
 836              		.loc 2 62 18 is_stmt 0
 837 039c 97000000 		call	_Z4getcv@plt
 837      E7800000 
 838              	.LVL56:
  63:src/syscall_cpp.cpp **** }
 839              		.loc 2 63 1
 840 03a4 83308100 		ld	ra,8(sp)
 841              		.cfi_restore 1
GAS LISTING /tmp/ccBtmnCe.s 			page 21


 842 03a8 03340100 		ld	s0,0(sp)
 843              		.cfi_restore 8
 844              		.cfi_def_cfa 2, 16
 845 03ac 13010101 		addi	sp,sp,16
 846              		.cfi_def_cfa_offset 0
 847 03b0 67800000 		jr	ra
 848              		.cfi_endproc
 849              	.LFE72:
 851              		.align	2
 852              		.globl	_ZN14PeriodicThreadC2Em
 854              	_ZN14PeriodicThreadC2Em:
 855              	.LFB74:
  68:src/syscall_cpp.cpp **** PeriodicThread::PeriodicThread(time_t period)
 856              		.loc 2 68 1 is_stmt 1
 857              		.cfi_startproc
 858              		.cfi_personality 0x9b,DW.ref.__gxx_personality_v0
 859              		.cfi_lsda 0x1b,.LLSDA74
 860              	.LVL57:
 861 03b4 130101FE 		addi	sp,sp,-32
 862              		.cfi_def_cfa_offset 32
 863 03b8 233C1100 		sd	ra,24(sp)
 864 03bc 23388100 		sd	s0,16(sp)
 865 03c0 23349100 		sd	s1,8(sp)
 866 03c4 23302101 		sd	s2,0(sp)
 867              		.cfi_offset 1, -8
 868              		.cfi_offset 8, -16
 869              		.cfi_offset 9, -24
 870              		.cfi_offset 18, -32
 871 03c8 13040102 		addi	s0,sp,32
 872              		.cfi_def_cfa 8, 0
 873 03cc 93040500 		mv	s1,a0
 874 03d0 13890500 		mv	s2,a1
 875              	.LBB42:
  69:src/syscall_cpp.cpp ****     : Thread(), period(period), terminated(false)
 876              		.loc 2 69 49 is_stmt 0
 877 03d4 97000000 		call	_ZN6ThreadC2Ev
 877      E7800000 
 878              	.LVL58:
 879 03dc 97070000 		lla	a5,_ZTV14PeriodicThread+16
 879      93870700 
 880 03e4 23B0F400 		sd	a5,0(s1)
 881 03e8 23B02403 		sd	s2,32(s1)
 882 03ec 23840402 		sb	zero,40(s1)
  71:src/syscall_cpp.cpp ****     createdThreads.addLast(this);
 883              		.loc 2 71 5 is_stmt 1
 884              	.LVL59:
 885              	.LEHB0:
 886              	.LBB43:
 887              	.LBB44:
 888              	.LBB45:
 889              	.LBB46:
  17:src/../h/list.hpp ****         }
 890              		.loc 3 17 46 is_stmt 0
 891 03f0 97000000 		call	_ZN15MemoryAllocator8instanceEv@plt
 891      E7800000 
 892              	.LVL60:
  17:src/../h/list.hpp ****         }
GAS LISTING /tmp/ccBtmnCe.s 			page 22


 893              		.loc 3 17 58
 894 03f8 93050001 		li	a1,16
 895 03fc 97000000 		call	_ZN15MemoryAllocator10kmem_allocEm@plt
 895      E7800000 
 896              	.LVL61:
 897              	.LEHE0:
 898              	.LBE46:
 899              	.LBE45:
 900              	.LBB47:
 901              	.LBB48:
  14:src/../h/list.hpp **** 
 902              		.loc 3 14 58
 903 0404 23309500 		sd	s1,0(a0)
 904 0408 23340500 		sd	zero,8(a0)
 905              	.LVL62:
 906              	.LBE48:
 907              	.LBE47:
  36:src/../h/list.hpp **** 
  37:src/../h/list.hpp ****     List(const List<T> &) = delete;
  38:src/../h/list.hpp **** 
  39:src/../h/list.hpp ****     List<T> &operator=(const List<T> &) = delete;
  40:src/../h/list.hpp **** 
  41:src/../h/list.hpp ****     void addFirst(T *data)
  42:src/../h/list.hpp ****     {
  43:src/../h/list.hpp ****         Elem *elem = new Elem(data, head);
  44:src/../h/list.hpp ****         head = elem;
  45:src/../h/list.hpp ****         if (!tail) { tail = head; }
  46:src/../h/list.hpp ****         size++;
  47:src/../h/list.hpp ****     }
  48:src/../h/list.hpp **** 
  49:src/../h/list.hpp ****     void addLast(T *data)
  50:src/../h/list.hpp ****     {
  51:src/../h/list.hpp ****         Elem *elem = new Elem(data, 0);
  52:src/../h/list.hpp ****         if (tail)
 908              		.loc 3 52 13
 909 040c 97070000 		ld	a5,.LANCHOR0+8
 909      83B70700 
 910              		.loc 3 52 9
 911 0414 638E0702 		beqz	a5,.L49
  53:src/../h/list.hpp ****         {
  54:src/../h/list.hpp ****             tail->next = elem;
 912              		.loc 3 54 13
 913 0418 23B4A700 		sd	a0,8(a5)
  55:src/../h/list.hpp ****             tail = elem;
 914              		.loc 3 55 13
 915 041c 97070000 		sd	a0,.LANCHOR0+8,a5
 915      23B0A700 
 916              	.L50:
  56:src/../h/list.hpp ****         } else
  57:src/../h/list.hpp ****         {
  58:src/../h/list.hpp ****             head = tail = elem;
  59:src/../h/list.hpp ****         }
  60:src/../h/list.hpp ****         size++;
 917              		.loc 3 60 9
 918 0424 17070000 		lla	a4,.LANCHOR0
 918      13070700 
 919 042c 83370701 		ld	a5,16(a4)
GAS LISTING /tmp/ccBtmnCe.s 			page 23


 920 0430 93871700 		addi	a5,a5,1
 921 0434 2338F700 		sd	a5,16(a4)
 922              	.LVL63:
 923              	.LBE44:
 924              	.LBE43:
 925              	.LBE42:
  72:src/syscall_cpp.cpp **** }
 926              		.loc 2 72 1
 927 0438 83308101 		ld	ra,24(sp)
 928              		.cfi_remember_state
 929              		.cfi_restore 1
 930 043c 03340101 		ld	s0,16(sp)
 931              		.cfi_restore 8
 932              		.cfi_def_cfa 2, 32
 933 0440 83348100 		ld	s1,8(sp)
 934              		.cfi_restore 9
 935              	.LVL64:
 936 0444 03390100 		ld	s2,0(sp)
 937              		.cfi_restore 18
 938              	.LVL65:
 939 0448 13010102 		addi	sp,sp,32
 940              		.cfi_def_cfa_offset 0
 941 044c 67800000 		jr	ra
 942              	.LVL66:
 943              	.L49:
 944              		.cfi_restore_state
 945              	.LBB51:
 946              	.LBB50:
 947              	.LBB49:
  58:src/../h/list.hpp ****         }
 948              		.loc 3 58 13
 949 0450 97070000 		lla	a5,.LANCHOR0
 949      93870700 
 950 0458 23B4A700 		sd	a0,8(a5)
 951 045c 23B0A700 		sd	a0,0(a5)
 952 0460 6FF05FFC 		j	.L50
 953              	.LVL67:
 954              	.L52:
 955 0464 13090500 		mv	s2,a0
 956              	.LVL68:
 957              	.LBE49:
 958              	.LBE50:
  69:src/syscall_cpp.cpp ****     : Thread(), period(period), terminated(false)
 959              		.loc 2 69 49
 960 0468 13850400 		mv	a0,s1
 961 046c 97000000 		call	_ZN6ThreadD2Ev
 961      E7800000 
 962              	.LVL69:
 963 0474 13050900 		mv	a0,s2
 964              	.LEHB1:
 965 0478 97000000 		call	_Unwind_Resume@plt
 965      E7800000 
 966              	.LVL70:
 967              	.LEHE1:
 968              	.LBE51:
 969              		.cfi_endproc
 970              	.LFE74:
GAS LISTING /tmp/ccBtmnCe.s 			page 24


 971              		.section	.gcc_except_table
 972              	.LLSDA74:
 973 0008 FF       		.byte	0xff
 974 0009 FF       		.byte	0xff
 975 000a 03       		.byte	0x3
 976 000b 1A       		.byte	0x1a
 977 000c 00000000 		.4byte	.LEHB0-.LFB74
 978 0010 00000000 		.4byte	.LEHE0-.LEHB0
 979 0014 00000000 		.4byte	.L52-.LFB74
 980 0018 00       		.byte	0
 981 0019 00000000 		.4byte	.LEHB1-.LFB74
 982 001d 00000000 		.4byte	.LEHE1-.LEHB1
 983 0021 00000000 		.4byte	0
 984 0025 00       		.byte	0
 985              		.text
 987              		.globl	_ZN14PeriodicThreadC1Em
 988              		.set	_ZN14PeriodicThreadC1Em,_ZN14PeriodicThreadC2Em
 989              		.align	2
 990              		.globl	_ZN14PeriodicThread9terminateEv
 992              	_ZN14PeriodicThread9terminateEv:
 993              	.LFB76:
  74:src/syscall_cpp.cpp **** void PeriodicThread::terminate() {
 994              		.loc 2 74 34 is_stmt 1
 995              		.cfi_startproc
 996              	.LVL71:
 997 0480 130101FF 		addi	sp,sp,-16
 998              		.cfi_def_cfa_offset 16
 999 0484 23348100 		sd	s0,8(sp)
 1000              		.cfi_offset 8, -8
 1001 0488 13040101 		addi	s0,sp,16
 1002              		.cfi_def_cfa 8, 0
  75:src/syscall_cpp.cpp ****     terminated = true;
 1003              		.loc 2 75 5
  75:src/syscall_cpp.cpp ****     terminated = true;
 1004              		.loc 2 75 16 is_stmt 0
 1005 048c 93071000 		li	a5,1
 1006 0490 2304F502 		sb	a5,40(a0)
  76:src/syscall_cpp.cpp **** }
 1007              		.loc 2 76 1
 1008 0494 03348100 		ld	s0,8(sp)
 1009              		.cfi_restore 8
 1010              		.cfi_def_cfa 2, 16
 1011 0498 13010101 		addi	sp,sp,16
 1012              		.cfi_def_cfa_offset 0
 1013 049c 67800000 		jr	ra
 1014              		.cfi_endproc
 1015              	.LFE76:
 1017              		.align	2
 1019              	_GLOBAL__sub_I__ZN9SemaphoreC2Ej:
 1020              	.LFB98:
 1021              		.loc 2 83 1 is_stmt 1
 1022              		.cfi_startproc
 1023 04a0 130101FF 		addi	sp,sp,-16
 1024              		.cfi_def_cfa_offset 16
 1025 04a4 23341100 		sd	ra,8(sp)
 1026 04a8 23308100 		sd	s0,0(sp)
 1027              		.cfi_offset 1, -8
GAS LISTING /tmp/ccBtmnCe.s 			page 25


 1028              		.cfi_offset 8, -16
 1029 04ac 13040101 		addi	s0,sp,16
 1030              		.cfi_def_cfa 8, 0
 1031              		.loc 2 83 1 is_stmt 0
 1032 04b0 B7050100 		li	a1,65536
 1033 04b4 9385F5FF 		addi	a1,a1,-1
 1034 04b8 13051000 		li	a0,1
 1035 04bc 97000000 		call	_Z41__static_initialization_and_destruction_0ii
 1035      E7800000 
 1036              	.LVL72:
 1037 04c4 83308100 		ld	ra,8(sp)
 1038              		.cfi_restore 1
 1039 04c8 03340100 		ld	s0,0(sp)
 1040              		.cfi_restore 8
 1041              		.cfi_def_cfa 2, 16
 1042 04cc 13010101 		addi	sp,sp,16
 1043              		.cfi_def_cfa_offset 0
 1044 04d0 67800000 		jr	ra
 1045              		.cfi_endproc
 1046              	.LFE98:
 1048              		.section	.init_array,"aw"
 1049              		.align	3
 1050 0000 00000000 		.dword	_GLOBAL__sub_I__ZN9SemaphoreC2Ej
 1050      00000000 
 1051              		.weak	_ZTV9Semaphore
 1052              		.section	.data.rel.ro.local._ZTV9Semaphore,"awG",@progbits,_ZTV9Semaphore,comdat
 1053              		.align	3
 1056              	_ZTV9Semaphore:
 1057 0000 00000000 		.dword	0
 1057      00000000 
 1058 0008 00000000 		.dword	0
 1058      00000000 
 1059 0010 00000000 		.dword	_ZN9SemaphoreD1Ev
 1059      00000000 
 1060 0018 00000000 		.dword	_ZN9SemaphoreD0Ev
 1060      00000000 
 1061              		.weak	_ZTV6Thread
 1062              		.section	.data.rel.ro.local._ZTV6Thread,"awG",@progbits,_ZTV6Thread,comdat
 1063              		.align	3
 1066              	_ZTV6Thread:
 1067 0000 00000000 		.dword	0
 1067      00000000 
 1068 0008 00000000 		.dword	0
 1068      00000000 
 1069 0010 00000000 		.dword	_ZN6ThreadD1Ev
 1069      00000000 
 1070 0018 00000000 		.dword	_ZN6ThreadD0Ev
 1070      00000000 
 1071 0020 00000000 		.dword	_ZN6Thread3runEv
 1071      00000000 
 1072              		.weak	_ZTV14PeriodicThread
 1073              		.section	.data.rel.ro.local._ZTV14PeriodicThread,"awG",@progbits,_ZTV14PeriodicThread,comdat
 1074              		.align	3
 1077              	_ZTV14PeriodicThread:
 1078 0000 00000000 		.dword	0
 1078      00000000 
 1079 0008 00000000 		.dword	0
GAS LISTING /tmp/ccBtmnCe.s 			page 26


 1079      00000000 
 1080 0010 00000000 		.dword	_ZN14PeriodicThreadD1Ev
 1080      00000000 
 1081 0018 00000000 		.dword	_ZN14PeriodicThreadD0Ev
 1081      00000000 
 1082 0020 00000000 		.dword	_ZN14PeriodicThread3runEv
 1082      00000000 
 1083 0028 00000000 		.dword	_ZN14PeriodicThread18periodicActivationEv
 1083      00000000 
 1084              		.globl	_ZN14PeriodicThread14createdThreadsE
 1085              		.bss
 1086              		.align	3
 1087              		.set	.LANCHOR0,. + 0
 1090              	_ZN14PeriodicThread14createdThreadsE:
 1091 0000 00000000 		.zero	24
 1091      00000000 
 1091      00000000 
 1091      00000000 
 1091      00000000 
 1092              		.text
 1093              	.Letext0:
 1094              		.file 5 "src/../h/../lib/hw.h"
 1095              		.file 6 "src/../h/memory_allocator.hpp"
 1096              		.file 7 "src/../h/semaphore.hpp"
 1097              		.file 8 "src/../h/syscall_c.hpp"
 6713              		.align	3
 6716              	DW.ref.__gxx_personality_v0:
 6717 0000 00000000 		.dword	__gxx_personality_v0
 6717      00000000 
 6718              		.ident	"GCC: (Ubuntu 9.4.0-1ubuntu1~20.04) 9.4.0"
 6719              		.section	.note.GNU-stack,"",@progbits
GAS LISTING /tmp/ccBtmnCe.s 			page 27


DEFINED SYMBOLS
                            *ABS*:0000000000000000 syscall_cpp.cpp
     /tmp/ccBtmnCe.s:10     .text._ZN6Thread3runEv:0000000000000000 _ZN6Thread3runEv
     /tmp/ccBtmnCe.s:14     .text._ZN6Thread3runEv:0000000000000000 .L0 
     /tmp/ccBtmnCe.s:16     .text._ZN6Thread3runEv:0000000000000000 .L0 
     /tmp/ccBtmnCe.s:17     .text._ZN6Thread3runEv:0000000000000004 .L0 
     /tmp/ccBtmnCe.s:19     .text._ZN6Thread3runEv:0000000000000008 .L0 
     /tmp/ccBtmnCe.s:21     .text._ZN6Thread3runEv:000000000000000c .L0 
     /tmp/ccBtmnCe.s:23     .text._ZN6Thread3runEv:000000000000000c .L0 
     /tmp/ccBtmnCe.s:24     .text._ZN6Thread3runEv:0000000000000010 .L0 
     /tmp/ccBtmnCe.s:25     .text._ZN6Thread3runEv:0000000000000010 .L0 
     /tmp/ccBtmnCe.s:27     .text._ZN6Thread3runEv:0000000000000014 .L0 
     /tmp/ccBtmnCe.s:29     .text._ZN6Thread3runEv:0000000000000018 .L0 
     /tmp/ccBtmnCe.s:36     .text._ZN14PeriodicThread18periodicActivationEv:0000000000000000 _ZN14PeriodicThread18periodicActivationEv
     /tmp/ccBtmnCe.s:39     .text._ZN14PeriodicThread18periodicActivationEv:0000000000000000 .L0 
     /tmp/ccBtmnCe.s:41     .text._ZN14PeriodicThread18periodicActivationEv:0000000000000000 .L0 
     /tmp/ccBtmnCe.s:42     .text._ZN14PeriodicThread18periodicActivationEv:0000000000000004 .L0 
     /tmp/ccBtmnCe.s:44     .text._ZN14PeriodicThread18periodicActivationEv:0000000000000008 .L0 
     /tmp/ccBtmnCe.s:46     .text._ZN14PeriodicThread18periodicActivationEv:000000000000000c .L0 
     /tmp/ccBtmnCe.s:48     .text._ZN14PeriodicThread18periodicActivationEv:000000000000000c .L0 
     /tmp/ccBtmnCe.s:49     .text._ZN14PeriodicThread18periodicActivationEv:0000000000000010 .L0 
     /tmp/ccBtmnCe.s:50     .text._ZN14PeriodicThread18periodicActivationEv:0000000000000010 .L0 
     /tmp/ccBtmnCe.s:52     .text._ZN14PeriodicThread18periodicActivationEv:0000000000000014 .L0 
     /tmp/ccBtmnCe.s:54     .text._ZN14PeriodicThread18periodicActivationEv:0000000000000018 .L0 
     /tmp/ccBtmnCe.s:60     .text:0000000000000000 _Z41__static_initialization_and_destruction_0ii
     /tmp/ccBtmnCe.s:64     .text:0000000000000000 .L0 
     /tmp/ccBtmnCe.s:66     .text:0000000000000000 .L0 
     /tmp/ccBtmnCe.s:67     .text:0000000000000004 .L0 
     /tmp/ccBtmnCe.s:69     .text:0000000000000008 .L0 
     /tmp/ccBtmnCe.s:71     .text:000000000000000c .L0 
     /tmp/ccBtmnCe.s:73     .text:000000000000000c .L0 
     /tmp/ccBtmnCe.s:77     .text:0000000000000018 .L0 
     /tmp/ccBtmnCe.s:78     .text:0000000000000018 .L0 
     /tmp/ccBtmnCe.s:79     .text:0000000000000018 .L0 
     /tmp/ccBtmnCe.s:81     .text:000000000000001c .L0 
     /tmp/ccBtmnCe.s:84     .text:0000000000000020 .L0 
     /tmp/ccBtmnCe.s:86     .text:0000000000000020 .L0 
     /tmp/ccBtmnCe.s:95     .text:000000000000002c .L0 
     /tmp/ccBtmnCe.s:104    .text:0000000000000040 .L0 
     /tmp/ccBtmnCe.s:105    .text:0000000000000044 .L0 
     /tmp/ccBtmnCe.s:111    .text:0000000000000044 _ZN9SemaphoreD2Ev
     /tmp/ccBtmnCe.s:114    .text:0000000000000044 .L0 
     /tmp/ccBtmnCe.s:6716   .data.rel.local.DW.ref.__gxx_personality_v0:0000000000000000 DW.ref.__gxx_personality_v0
     /tmp/ccBtmnCe.s:118    .text:0000000000000044 .L0 
     /tmp/ccBtmnCe.s:119    .text:0000000000000048 .L0 
     /tmp/ccBtmnCe.s:122    .text:0000000000000050 .L0 
     /tmp/ccBtmnCe.s:123    .text:0000000000000050 .L0 
     /tmp/ccBtmnCe.s:125    .text:0000000000000054 .L0 
     /tmp/ccBtmnCe.s:1056   .data.rel.ro.local._ZTV9Semaphore:0000000000000000 _ZTV9Semaphore
     /tmp/ccBtmnCe.s:128    .text:0000000000000054 .L0 
     /tmp/ccBtmnCe.s:131    .text:0000000000000060 .L0 
     /tmp/ccBtmnCe.s:132    .text:0000000000000060 .L0 
     /tmp/ccBtmnCe.s:138    .text:000000000000006c .L0 
     /tmp/ccBtmnCe.s:139    .text:0000000000000070 .L0 
     /tmp/ccBtmnCe.s:141    .text:0000000000000074 .L0 
     /tmp/ccBtmnCe.s:142    .text:0000000000000074 .L0 
     /tmp/ccBtmnCe.s:144    .text:0000000000000078 .L0 
GAS LISTING /tmp/ccBtmnCe.s 			page 28


     /tmp/ccBtmnCe.s:146    .text:000000000000007c .L0 
     /tmp/ccBtmnCe.s:111    .text:0000000000000044 _ZN9SemaphoreD1Ev
     /tmp/ccBtmnCe.s:162    .text:000000000000007c _ZN9SemaphoreD0Ev
     /tmp/ccBtmnCe.s:165    .text:000000000000007c .L0 
     /tmp/ccBtmnCe.s:167    .text:000000000000007c .L0 
     /tmp/ccBtmnCe.s:168    .text:0000000000000080 .L0 
     /tmp/ccBtmnCe.s:172    .text:000000000000008c .L0 
     /tmp/ccBtmnCe.s:173    .text:000000000000008c .L0 
     /tmp/ccBtmnCe.s:174    .text:000000000000008c .L0 
     /tmp/ccBtmnCe.s:176    .text:0000000000000090 .L0 
     /tmp/ccBtmnCe.s:179    .text:0000000000000094 .L0 
     /tmp/ccBtmnCe.s:185    .text:00000000000000ac .L0 
     /tmp/ccBtmnCe.s:187    .text:00000000000000b0 .L0 
     /tmp/ccBtmnCe.s:188    .text:00000000000000b0 .L0 
     /tmp/ccBtmnCe.s:190    .text:00000000000000b4 .L0 
     /tmp/ccBtmnCe.s:193    .text:00000000000000b8 .L0 
     /tmp/ccBtmnCe.s:195    .text:00000000000000bc .L0 
     /tmp/ccBtmnCe.s:201    .text:00000000000000bc _ZN6ThreadD2Ev
     /tmp/ccBtmnCe.s:204    .text:00000000000000bc .L0 
     /tmp/ccBtmnCe.s:208    .text:00000000000000bc .L0 
     /tmp/ccBtmnCe.s:209    .text:00000000000000c0 .L0 
     /tmp/ccBtmnCe.s:213    .text:00000000000000cc .L0 
     /tmp/ccBtmnCe.s:214    .text:00000000000000cc .L0 
     /tmp/ccBtmnCe.s:215    .text:00000000000000cc .L0 
     /tmp/ccBtmnCe.s:217    .text:00000000000000d0 .L0 
     /tmp/ccBtmnCe.s:1066   .data.rel.ro.local._ZTV6Thread:0000000000000000 _ZTV6Thread
     /tmp/ccBtmnCe.s:220    .text:00000000000000d0 .L0 
     /tmp/ccBtmnCe.s:223    .text:00000000000000dc .L0 
     /tmp/ccBtmnCe.s:224    .text:00000000000000dc .L0 
     /tmp/ccBtmnCe.s:226    .text:00000000000000e0 .L0 
     /tmp/ccBtmnCe.s:232    .text:00000000000000e4 .L0 
     /tmp/ccBtmnCe.s:233    .text:00000000000000e4 .L0 
     /tmp/ccBtmnCe.s:236    .text:00000000000000ec .L0 
     /tmp/ccBtmnCe.s:244    .text:00000000000000f8 .L0 
     /tmp/ccBtmnCe.s:245    .text:00000000000000f8 .L0 
     /tmp/ccBtmnCe.s:248    .text:0000000000000100 .L0 
     /tmp/ccBtmnCe.s:256    .text:000000000000010c .L0 
     /tmp/ccBtmnCe.s:257    .text:0000000000000110 .L0 
     /tmp/ccBtmnCe.s:259    .text:0000000000000114 .L0 
     /tmp/ccBtmnCe.s:260    .text:0000000000000114 .L0 
     /tmp/ccBtmnCe.s:262    .text:0000000000000118 .L0 
     /tmp/ccBtmnCe.s:264    .text:000000000000011c .L0 
     /tmp/ccBtmnCe.s:266    .text:0000000000000120 .L0 
     /tmp/ccBtmnCe.s:201    .text:00000000000000bc _ZN6ThreadD1Ev
     /tmp/ccBtmnCe.s:281    .text:0000000000000120 _ZN6ThreadD0Ev
     /tmp/ccBtmnCe.s:284    .text:0000000000000120 .L0 
     /tmp/ccBtmnCe.s:286    .text:0000000000000120 .L0 
     /tmp/ccBtmnCe.s:287    .text:0000000000000124 .L0 
     /tmp/ccBtmnCe.s:291    .text:0000000000000130 .L0 
     /tmp/ccBtmnCe.s:292    .text:0000000000000130 .L0 
     /tmp/ccBtmnCe.s:293    .text:0000000000000130 .L0 
     /tmp/ccBtmnCe.s:295    .text:0000000000000134 .L0 
     /tmp/ccBtmnCe.s:298    .text:0000000000000138 .L0 
     /tmp/ccBtmnCe.s:304    .text:0000000000000150 .L0 
     /tmp/ccBtmnCe.s:306    .text:0000000000000154 .L0 
     /tmp/ccBtmnCe.s:307    .text:0000000000000154 .L0 
     /tmp/ccBtmnCe.s:309    .text:0000000000000158 .L0 
GAS LISTING /tmp/ccBtmnCe.s 			page 29


     /tmp/ccBtmnCe.s:312    .text:000000000000015c .L0 
     /tmp/ccBtmnCe.s:314    .text:0000000000000160 .L0 
     /tmp/ccBtmnCe.s:321    .text._ZN14PeriodicThreadD2Ev:0000000000000000 _ZN14PeriodicThreadD2Ev
     /tmp/ccBtmnCe.s:324    .text._ZN14PeriodicThreadD2Ev:0000000000000000 .L0 
     /tmp/ccBtmnCe.s:326    .text._ZN14PeriodicThreadD2Ev:0000000000000000 .L0 
     /tmp/ccBtmnCe.s:327    .text._ZN14PeriodicThreadD2Ev:0000000000000004 .L0 
     /tmp/ccBtmnCe.s:330    .text._ZN14PeriodicThreadD2Ev:000000000000000c .L0 
     /tmp/ccBtmnCe.s:331    .text._ZN14PeriodicThreadD2Ev:000000000000000c .L0 
     /tmp/ccBtmnCe.s:333    .text._ZN14PeriodicThreadD2Ev:0000000000000010 .L0 
     /tmp/ccBtmnCe.s:1077   .data.rel.ro.local._ZTV14PeriodicThread:0000000000000000 _ZTV14PeriodicThread
     /tmp/ccBtmnCe.s:336    .text._ZN14PeriodicThreadD2Ev:0000000000000010 .L0 
     /tmp/ccBtmnCe.s:342    .text._ZN14PeriodicThreadD2Ev:0000000000000028 .L0 
     /tmp/ccBtmnCe.s:344    .text._ZN14PeriodicThreadD2Ev:000000000000002c .L0 
     /tmp/ccBtmnCe.s:345    .text._ZN14PeriodicThreadD2Ev:000000000000002c .L0 
     /tmp/ccBtmnCe.s:347    .text._ZN14PeriodicThreadD2Ev:0000000000000030 .L0 
     /tmp/ccBtmnCe.s:349    .text._ZN14PeriodicThreadD2Ev:0000000000000034 .L0 
     /tmp/ccBtmnCe.s:321    .text._ZN14PeriodicThreadD2Ev:0000000000000000 _ZN14PeriodicThreadD1Ev
     /tmp/ccBtmnCe.s:358    .text._ZN14PeriodicThreadD0Ev:0000000000000000 _ZN14PeriodicThreadD0Ev
     /tmp/ccBtmnCe.s:361    .text._ZN14PeriodicThreadD0Ev:0000000000000000 .L0 
     /tmp/ccBtmnCe.s:363    .text._ZN14PeriodicThreadD0Ev:0000000000000000 .L0 
     /tmp/ccBtmnCe.s:364    .text._ZN14PeriodicThreadD0Ev:0000000000000004 .L0 
     /tmp/ccBtmnCe.s:368    .text._ZN14PeriodicThreadD0Ev:0000000000000010 .L0 
     /tmp/ccBtmnCe.s:369    .text._ZN14PeriodicThreadD0Ev:0000000000000010 .L0 
     /tmp/ccBtmnCe.s:370    .text._ZN14PeriodicThreadD0Ev:0000000000000010 .L0 
     /tmp/ccBtmnCe.s:372    .text._ZN14PeriodicThreadD0Ev:0000000000000014 .L0 
     /tmp/ccBtmnCe.s:378    .text._ZN14PeriodicThreadD0Ev:0000000000000018 .L0 
     /tmp/ccBtmnCe.s:388    .text._ZN14PeriodicThreadD0Ev:000000000000003c .L0 
     /tmp/ccBtmnCe.s:390    .text._ZN14PeriodicThreadD0Ev:0000000000000040 .L0 
     /tmp/ccBtmnCe.s:391    .text._ZN14PeriodicThreadD0Ev:0000000000000040 .L0 
     /tmp/ccBtmnCe.s:393    .text._ZN14PeriodicThreadD0Ev:0000000000000044 .L0 
     /tmp/ccBtmnCe.s:396    .text._ZN14PeriodicThreadD0Ev:0000000000000048 .L0 
     /tmp/ccBtmnCe.s:398    .text._ZN14PeriodicThreadD0Ev:000000000000004c .L0 
     /tmp/ccBtmnCe.s:405    .text:0000000000000160 _ZN6Thread7wrapperEPv
     /tmp/ccBtmnCe.s:408    .text:0000000000000160 .L0 
     /tmp/ccBtmnCe.s:410    .text:0000000000000160 .L0 
     /tmp/ccBtmnCe.s:411    .text:0000000000000164 .L0 
     /tmp/ccBtmnCe.s:414    .text:000000000000016c .L0 
     /tmp/ccBtmnCe.s:415    .text:000000000000016c .L0 
     /tmp/ccBtmnCe.s:417    .text:0000000000000170 .L0 
     /tmp/ccBtmnCe.s:419    .text:0000000000000170 .L0 
     /tmp/ccBtmnCe.s:420    .text:0000000000000170 .L0 
     /tmp/ccBtmnCe.s:423    .text:0000000000000178 .L0 
     /tmp/ccBtmnCe.s:426    .text:000000000000017c .L0 
     /tmp/ccBtmnCe.s:427    .text:000000000000017c .L0 
     /tmp/ccBtmnCe.s:430    .text:0000000000000184 .L0 
     /tmp/ccBtmnCe.s:431    .text:0000000000000188 .L0 
     /tmp/ccBtmnCe.s:433    .text:000000000000018c .L0 
     /tmp/ccBtmnCe.s:434    .text:000000000000018c .L0 
     /tmp/ccBtmnCe.s:436    .text:0000000000000190 .L0 
     /tmp/ccBtmnCe.s:438    .text:0000000000000194 .L0 
     /tmp/ccBtmnCe.s:444    .text:0000000000000194 _ZN9SemaphoreC2Ej
     /tmp/ccBtmnCe.s:447    .text:0000000000000194 .L0 
     /tmp/ccBtmnCe.s:449    .text:0000000000000194 .L0 
     /tmp/ccBtmnCe.s:450    .text:0000000000000198 .L0 
     /tmp/ccBtmnCe.s:453    .text:00000000000001a0 .L0 
     /tmp/ccBtmnCe.s:454    .text:00000000000001a0 .L0 
     /tmp/ccBtmnCe.s:456    .text:00000000000001a4 .L0 
GAS LISTING /tmp/ccBtmnCe.s 			page 30


     /tmp/ccBtmnCe.s:459    .text:00000000000001a4 .L0 
     /tmp/ccBtmnCe.s:462    .text:00000000000001b0 .L0 
     /tmp/ccBtmnCe.s:463    .text:00000000000001b0 .L0 
     /tmp/ccBtmnCe.s:469    .text:00000000000001bc .L0 
     /tmp/ccBtmnCe.s:470    .text:00000000000001c0 .L0 
     /tmp/ccBtmnCe.s:472    .text:00000000000001c4 .L0 
     /tmp/ccBtmnCe.s:473    .text:00000000000001c4 .L0 
     /tmp/ccBtmnCe.s:475    .text:00000000000001c8 .L0 
     /tmp/ccBtmnCe.s:477    .text:00000000000001cc .L0 
     /tmp/ccBtmnCe.s:444    .text:0000000000000194 _ZN9SemaphoreC1Ej
     /tmp/ccBtmnCe.s:485    .text:00000000000001cc _ZN9Semaphore4waitEv
     /tmp/ccBtmnCe.s:488    .text:00000000000001cc .L0 
     /tmp/ccBtmnCe.s:490    .text:00000000000001cc .L0 
     /tmp/ccBtmnCe.s:491    .text:00000000000001d0 .L0 
     /tmp/ccBtmnCe.s:494    .text:00000000000001d8 .L0 
     /tmp/ccBtmnCe.s:495    .text:00000000000001d8 .L0 
     /tmp/ccBtmnCe.s:497    .text:00000000000001dc .L0 
     /tmp/ccBtmnCe.s:499    .text:00000000000001dc .L0 
     /tmp/ccBtmnCe.s:500    .text:00000000000001dc .L0 
     /tmp/ccBtmnCe.s:505    .text:00000000000001e8 .L0 
     /tmp/ccBtmnCe.s:506    .text:00000000000001ec .L0 
     /tmp/ccBtmnCe.s:508    .text:00000000000001f0 .L0 
     /tmp/ccBtmnCe.s:509    .text:00000000000001f0 .L0 
     /tmp/ccBtmnCe.s:511    .text:00000000000001f4 .L0 
     /tmp/ccBtmnCe.s:513    .text:00000000000001f8 .L0 
     /tmp/ccBtmnCe.s:519    .text:00000000000001f8 _ZN9Semaphore6signalEv
     /tmp/ccBtmnCe.s:522    .text:00000000000001f8 .L0 
     /tmp/ccBtmnCe.s:524    .text:00000000000001f8 .L0 
     /tmp/ccBtmnCe.s:525    .text:00000000000001fc .L0 
     /tmp/ccBtmnCe.s:528    .text:0000000000000204 .L0 
     /tmp/ccBtmnCe.s:529    .text:0000000000000204 .L0 
     /tmp/ccBtmnCe.s:531    .text:0000000000000208 .L0 
     /tmp/ccBtmnCe.s:533    .text:0000000000000208 .L0 
     /tmp/ccBtmnCe.s:534    .text:0000000000000208 .L0 
     /tmp/ccBtmnCe.s:539    .text:0000000000000214 .L0 
     /tmp/ccBtmnCe.s:540    .text:0000000000000218 .L0 
     /tmp/ccBtmnCe.s:542    .text:000000000000021c .L0 
     /tmp/ccBtmnCe.s:543    .text:000000000000021c .L0 
     /tmp/ccBtmnCe.s:545    .text:0000000000000220 .L0 
     /tmp/ccBtmnCe.s:547    .text:0000000000000224 .L0 
     /tmp/ccBtmnCe.s:553    .text:0000000000000224 _ZN6Thread8dispatchEv
     /tmp/ccBtmnCe.s:556    .text:0000000000000224 .L0 
     /tmp/ccBtmnCe.s:557    .text:0000000000000224 .L0 
     /tmp/ccBtmnCe.s:558    .text:0000000000000228 .L0 
     /tmp/ccBtmnCe.s:561    .text:0000000000000230 .L0 
     /tmp/ccBtmnCe.s:562    .text:0000000000000230 .L0 
     /tmp/ccBtmnCe.s:564    .text:0000000000000234 .L0 
     /tmp/ccBtmnCe.s:566    .text:0000000000000234 .L0 
     /tmp/ccBtmnCe.s:567    .text:0000000000000234 .L0 
     /tmp/ccBtmnCe.s:570    .text:000000000000023c .L0 
     /tmp/ccBtmnCe.s:571    .text:0000000000000240 .L0 
     /tmp/ccBtmnCe.s:573    .text:0000000000000244 .L0 
     /tmp/ccBtmnCe.s:574    .text:0000000000000244 .L0 
     /tmp/ccBtmnCe.s:576    .text:0000000000000248 .L0 
     /tmp/ccBtmnCe.s:578    .text:000000000000024c .L0 
     /tmp/ccBtmnCe.s:584    .text:000000000000024c _ZN6ThreadC2EPFvPvES0_
     /tmp/ccBtmnCe.s:587    .text:000000000000024c .L0 
GAS LISTING /tmp/ccBtmnCe.s 			page 31


     /tmp/ccBtmnCe.s:589    .text:000000000000024c .L0 
     /tmp/ccBtmnCe.s:590    .text:0000000000000250 .L0 
     /tmp/ccBtmnCe.s:592    .text:0000000000000254 .L0 
     /tmp/ccBtmnCe.s:594    .text:0000000000000258 .L0 
     /tmp/ccBtmnCe.s:597    .text:0000000000000258 .L0 
     /tmp/ccBtmnCe.s:600    .text:0000000000000264 .L0 
     /tmp/ccBtmnCe.s:601    .text:0000000000000264 .L0 
     /tmp/ccBtmnCe.s:603    .text:0000000000000268 .L0 
     /tmp/ccBtmnCe.s:604    .text:0000000000000268 .L0 
     /tmp/ccBtmnCe.s:606    .text:000000000000026c .L0 
     /tmp/ccBtmnCe.s:607    .text:000000000000026c .L0 
     /tmp/ccBtmnCe.s:610    .text:0000000000000270 .L0 
     /tmp/ccBtmnCe.s:611    .text:0000000000000274 .L0 
     /tmp/ccBtmnCe.s:612    .text:0000000000000274 .L0 
     /tmp/ccBtmnCe.s:614    .text:0000000000000278 .L0 
     /tmp/ccBtmnCe.s:616    .text:000000000000027c .L0 
     /tmp/ccBtmnCe.s:584    .text:000000000000024c _ZN6ThreadC1EPFvPvES0_
     /tmp/ccBtmnCe.s:624    .text:000000000000027c _ZN6Thread5startEv
     /tmp/ccBtmnCe.s:627    .text:000000000000027c .L0 
     /tmp/ccBtmnCe.s:629    .text:000000000000027c .L0 
     /tmp/ccBtmnCe.s:630    .text:0000000000000280 .L0 
     /tmp/ccBtmnCe.s:633    .text:0000000000000288 .L0 
     /tmp/ccBtmnCe.s:634    .text:0000000000000288 .L0 
     /tmp/ccBtmnCe.s:636    .text:000000000000028c .L0 
     /tmp/ccBtmnCe.s:638    .text:000000000000028c .L0 
     /tmp/ccBtmnCe.s:639    .text:000000000000028c .L0 
     /tmp/ccBtmnCe.s:646    .text:00000000000002a0 .L0 
     /tmp/ccBtmnCe.s:647    .text:00000000000002a4 .L0 
     /tmp/ccBtmnCe.s:649    .text:00000000000002a8 .L0 
     /tmp/ccBtmnCe.s:650    .text:00000000000002a8 .L0 
     /tmp/ccBtmnCe.s:652    .text:00000000000002ac .L0 
     /tmp/ccBtmnCe.s:654    .text:00000000000002b0 .L0 
     /tmp/ccBtmnCe.s:660    .text:00000000000002b0 _ZN6ThreadC2Ev
     /tmp/ccBtmnCe.s:663    .text:00000000000002b0 .L0 
     /tmp/ccBtmnCe.s:665    .text:00000000000002b0 .L0 
     /tmp/ccBtmnCe.s:666    .text:00000000000002b4 .L0 
     /tmp/ccBtmnCe.s:668    .text:00000000000002b8 .L0 
     /tmp/ccBtmnCe.s:670    .text:00000000000002bc .L0 
     /tmp/ccBtmnCe.s:673    .text:00000000000002bc .L0 
     /tmp/ccBtmnCe.s:676    .text:00000000000002c8 .L0 
     /tmp/ccBtmnCe.s:677    .text:00000000000002c8 .L0 
     /tmp/ccBtmnCe.s:680    .text:00000000000002d4 .L0 
     /tmp/ccBtmnCe.s:681    .text:00000000000002d4 .L0 
     /tmp/ccBtmnCe.s:683    .text:00000000000002d8 .L0 
     /tmp/ccBtmnCe.s:684    .text:00000000000002d8 .L0 
     /tmp/ccBtmnCe.s:687    .text:00000000000002dc .L0 
     /tmp/ccBtmnCe.s:688    .text:00000000000002e0 .L0 
     /tmp/ccBtmnCe.s:689    .text:00000000000002e0 .L0 
     /tmp/ccBtmnCe.s:691    .text:00000000000002e4 .L0 
     /tmp/ccBtmnCe.s:693    .text:00000000000002e8 .L0 
     /tmp/ccBtmnCe.s:660    .text:00000000000002b0 _ZN6ThreadC1Ev
     /tmp/ccBtmnCe.s:701    .text:00000000000002e8 _ZN6Thread5sleepEm
     /tmp/ccBtmnCe.s:704    .text:00000000000002e8 .L0 
     /tmp/ccBtmnCe.s:706    .text:00000000000002e8 .L0 
     /tmp/ccBtmnCe.s:707    .text:00000000000002ec .L0 
     /tmp/ccBtmnCe.s:710    .text:00000000000002f4 .L0 
     /tmp/ccBtmnCe.s:711    .text:00000000000002f4 .L0 
GAS LISTING /tmp/ccBtmnCe.s 			page 32


     /tmp/ccBtmnCe.s:713    .text:00000000000002f8 .L0 
     /tmp/ccBtmnCe.s:715    .text:00000000000002f8 .L0 
     /tmp/ccBtmnCe.s:716    .text:00000000000002f8 .L0 
     /tmp/ccBtmnCe.s:719    .text:0000000000000300 .L0 
     /tmp/ccBtmnCe.s:720    .text:0000000000000304 .L0 
     /tmp/ccBtmnCe.s:722    .text:0000000000000308 .L0 
     /tmp/ccBtmnCe.s:723    .text:0000000000000308 .L0 
     /tmp/ccBtmnCe.s:725    .text:000000000000030c .L0 
     /tmp/ccBtmnCe.s:727    .text:0000000000000310 .L0 
     /tmp/ccBtmnCe.s:733    .text:0000000000000310 _ZN14PeriodicThread3runEv
     /tmp/ccBtmnCe.s:736    .text:0000000000000310 .L0 
     /tmp/ccBtmnCe.s:738    .text:0000000000000310 .L0 
     /tmp/ccBtmnCe.s:739    .text:0000000000000314 .L0 
     /tmp/ccBtmnCe.s:743    .text:0000000000000320 .L0 
     /tmp/ccBtmnCe.s:744    .text:0000000000000320 .L0 
     /tmp/ccBtmnCe.s:745    .text:0000000000000320 .L0 
     /tmp/ccBtmnCe.s:747    .text:0000000000000324 .L0 
     /tmp/ccBtmnCe.s:752    .text:0000000000000328 .L0 
     /tmp/ccBtmnCe.s:753    .text:0000000000000328 .L0 
     /tmp/ccBtmnCe.s:754    .text:0000000000000328 .L0 
     /tmp/ccBtmnCe.s:756    .text:000000000000032c .L0 
     /tmp/ccBtmnCe.s:758    .text:0000000000000330 .L0 
     /tmp/ccBtmnCe.s:759    .text:0000000000000330 .L0 
     /tmp/ccBtmnCe.s:762    .text:0000000000000338 .L0 
     /tmp/ccBtmnCe.s:766    .text:0000000000000340 .L0 
     /tmp/ccBtmnCe.s:767    .text:0000000000000340 .L0 
     /tmp/ccBtmnCe.s:771    .text:000000000000034c .L0 
     /tmp/ccBtmnCe.s:774    .text:0000000000000350 .L0 
     /tmp/ccBtmnCe.s:775    .text:0000000000000354 .L0 
     /tmp/ccBtmnCe.s:777    .text:0000000000000358 .L0 
     /tmp/ccBtmnCe.s:778    .text:0000000000000358 .L0 
     /tmp/ccBtmnCe.s:780    .text:000000000000035c .L0 
     /tmp/ccBtmnCe.s:783    .text:0000000000000360 .L0 
     /tmp/ccBtmnCe.s:785    .text:0000000000000364 .L0 
     /tmp/ccBtmnCe.s:791    .text:0000000000000364 _ZN7Console4putcEc
     /tmp/ccBtmnCe.s:794    .text:0000000000000364 .L0 
     /tmp/ccBtmnCe.s:796    .text:0000000000000364 .L0 
     /tmp/ccBtmnCe.s:797    .text:0000000000000368 .L0 
     /tmp/ccBtmnCe.s:800    .text:0000000000000370 .L0 
     /tmp/ccBtmnCe.s:801    .text:0000000000000370 .L0 
     /tmp/ccBtmnCe.s:803    .text:0000000000000374 .L0 
     /tmp/ccBtmnCe.s:805    .text:0000000000000374 .L0 
     /tmp/ccBtmnCe.s:806    .text:0000000000000374 .L0 
     /tmp/ccBtmnCe.s:809    .text:000000000000037c .L0 
     /tmp/ccBtmnCe.s:810    .text:0000000000000380 .L0 
     /tmp/ccBtmnCe.s:812    .text:0000000000000384 .L0 
     /tmp/ccBtmnCe.s:813    .text:0000000000000384 .L0 
     /tmp/ccBtmnCe.s:815    .text:0000000000000388 .L0 
     /tmp/ccBtmnCe.s:817    .text:000000000000038c .L0 
     /tmp/ccBtmnCe.s:823    .text:000000000000038c _ZN7Console4getcEv
     /tmp/ccBtmnCe.s:826    .text:000000000000038c .L0 
     /tmp/ccBtmnCe.s:827    .text:000000000000038c .L0 
     /tmp/ccBtmnCe.s:828    .text:0000000000000390 .L0 
     /tmp/ccBtmnCe.s:831    .text:0000000000000398 .L0 
     /tmp/ccBtmnCe.s:832    .text:0000000000000398 .L0 
     /tmp/ccBtmnCe.s:834    .text:000000000000039c .L0 
     /tmp/ccBtmnCe.s:836    .text:000000000000039c .L0 
GAS LISTING /tmp/ccBtmnCe.s 			page 33


     /tmp/ccBtmnCe.s:837    .text:000000000000039c .L0 
     /tmp/ccBtmnCe.s:840    .text:00000000000003a4 .L0 
     /tmp/ccBtmnCe.s:841    .text:00000000000003a8 .L0 
     /tmp/ccBtmnCe.s:843    .text:00000000000003ac .L0 
     /tmp/ccBtmnCe.s:844    .text:00000000000003ac .L0 
     /tmp/ccBtmnCe.s:846    .text:00000000000003b0 .L0 
     /tmp/ccBtmnCe.s:848    .text:00000000000003b4 .L0 
     /tmp/ccBtmnCe.s:854    .text:00000000000003b4 _ZN14PeriodicThreadC2Em
     /tmp/ccBtmnCe.s:857    .text:00000000000003b4 .L0 
     /tmp/ccBtmnCe.s:861    .text:00000000000003b4 .L0 
     /tmp/ccBtmnCe.s:862    .text:00000000000003b8 .L0 
     /tmp/ccBtmnCe.s:867    .text:00000000000003c8 .L0 
     /tmp/ccBtmnCe.s:868    .text:00000000000003c8 .L0 
     /tmp/ccBtmnCe.s:869    .text:00000000000003c8 .L0 
     /tmp/ccBtmnCe.s:870    .text:00000000000003c8 .L0 
     /tmp/ccBtmnCe.s:872    .text:00000000000003cc .L0 
     /tmp/ccBtmnCe.s:877    .text:00000000000003d4 .L0 
     /tmp/ccBtmnCe.s:890    .text:00000000000003f0 .L0 
     /tmp/ccBtmnCe.s:891    .text:00000000000003f0 .L0 
     /tmp/ccBtmnCe.s:894    .text:00000000000003f8 .L0 
     /tmp/ccBtmnCe.s:903    .text:0000000000000404 .L0 
     /tmp/ccBtmnCe.s:909    .text:000000000000040c .L0 
     /tmp/ccBtmnCe.s:911    .text:0000000000000414 .L0 
     /tmp/ccBtmnCe.s:913    .text:0000000000000418 .L0 
     /tmp/ccBtmnCe.s:915    .text:000000000000041c .L0 
     /tmp/ccBtmnCe.s:918    .text:0000000000000424 .L0 
     /tmp/ccBtmnCe.s:927    .text:0000000000000438 .L0 
     /tmp/ccBtmnCe.s:928    .text:000000000000043c .L0 
     /tmp/ccBtmnCe.s:929    .text:000000000000043c .L0 
     /tmp/ccBtmnCe.s:931    .text:0000000000000440 .L0 
     /tmp/ccBtmnCe.s:932    .text:0000000000000440 .L0 
     /tmp/ccBtmnCe.s:934    .text:0000000000000444 .L0 
     /tmp/ccBtmnCe.s:937    .text:0000000000000448 .L0 
     /tmp/ccBtmnCe.s:940    .text:000000000000044c .L0 
     /tmp/ccBtmnCe.s:944    .text:0000000000000450 .L0 
     /tmp/ccBtmnCe.s:949    .text:0000000000000450 .L0 
     /tmp/ccBtmnCe.s:960    .text:0000000000000468 .L0 
     /tmp/ccBtmnCe.s:969    .text:0000000000000480 .L0 
     /tmp/ccBtmnCe.s:854    .text:00000000000003b4 _ZN14PeriodicThreadC1Em
     /tmp/ccBtmnCe.s:992    .text:0000000000000480 _ZN14PeriodicThread9terminateEv
     /tmp/ccBtmnCe.s:995    .text:0000000000000480 .L0 
     /tmp/ccBtmnCe.s:997    .text:0000000000000480 .L0 
     /tmp/ccBtmnCe.s:998    .text:0000000000000484 .L0 
     /tmp/ccBtmnCe.s:1000   .text:0000000000000488 .L0 
     /tmp/ccBtmnCe.s:1002   .text:000000000000048c .L0 
     /tmp/ccBtmnCe.s:1004   .text:000000000000048c .L0 
     /tmp/ccBtmnCe.s:1005   .text:000000000000048c .L0 
     /tmp/ccBtmnCe.s:1008   .text:0000000000000494 .L0 
     /tmp/ccBtmnCe.s:1009   .text:0000000000000498 .L0 
     /tmp/ccBtmnCe.s:1010   .text:0000000000000498 .L0 
     /tmp/ccBtmnCe.s:1012   .text:000000000000049c .L0 
     /tmp/ccBtmnCe.s:1014   .text:00000000000004a0 .L0 
     /tmp/ccBtmnCe.s:1019   .text:00000000000004a0 _GLOBAL__sub_I__ZN9SemaphoreC2Ej
     /tmp/ccBtmnCe.s:1022   .text:00000000000004a0 .L0 
     /tmp/ccBtmnCe.s:1023   .text:00000000000004a0 .L0 
     /tmp/ccBtmnCe.s:1024   .text:00000000000004a4 .L0 
     /tmp/ccBtmnCe.s:1027   .text:00000000000004ac .L0 
GAS LISTING /tmp/ccBtmnCe.s 			page 34


     /tmp/ccBtmnCe.s:1028   .text:00000000000004ac .L0 
     /tmp/ccBtmnCe.s:1030   .text:00000000000004b0 .L0 
     /tmp/ccBtmnCe.s:1032   .text:00000000000004b0 .L0 
     /tmp/ccBtmnCe.s:1038   .text:00000000000004c8 .L0 
     /tmp/ccBtmnCe.s:1040   .text:00000000000004cc .L0 
     /tmp/ccBtmnCe.s:1041   .text:00000000000004cc .L0 
     /tmp/ccBtmnCe.s:1043   .text:00000000000004d0 .L0 
     /tmp/ccBtmnCe.s:1045   .text:00000000000004d4 .L0 
     /tmp/ccBtmnCe.s:1090   .bss:0000000000000000 _ZN14PeriodicThread14createdThreadsE
     /tmp/ccBtmnCe.s:1087   .bss:0000000000000000 .LANCHOR0
     /tmp/ccBtmnCe.s:32     .text._ZN6Thread3runEv:0000000000000018 .L0 
     /tmp/ccBtmnCe.s:57     .text._ZN14PeriodicThread18periodicActivationEv:0000000000000018 .L0 
     /tmp/ccBtmnCe.s:1098   .text:00000000000004d4 .L0 
     /tmp/ccBtmnCe.s:354    .text._ZN14PeriodicThreadD2Ev:0000000000000034 .L0 
     /tmp/ccBtmnCe.s:401    .text._ZN14PeriodicThreadD0Ev:000000000000004c .L0 
     /tmp/ccBtmnCe.s:95     .text:000000000000002c .L0 
     /tmp/ccBtmnCe.s:128    .text:0000000000000054 .L0 
     /tmp/ccBtmnCe.s:220    .text:00000000000000d0 .L0 
     /tmp/ccBtmnCe.s:459    .text:00000000000001a4 .L0 
     /tmp/ccBtmnCe.s:597    .text:0000000000000258 .L0 
     /tmp/ccBtmnCe.s:673    .text:00000000000002bc .L0 
     /tmp/ccBtmnCe.s:677    .text:00000000000002c8 .L0 
     /tmp/ccBtmnCe.s:879    .text:00000000000003dc .L0 
     /tmp/ccBtmnCe.s:909    .text:000000000000040c .L0 
     /tmp/ccBtmnCe.s:915    .text:000000000000041c .L0 
     /tmp/ccBtmnCe.s:918    .text:0000000000000424 .L0 
     /tmp/ccBtmnCe.s:949    .text:0000000000000450 .L0 
     /tmp/ccBtmnCe.s:83     .text:0000000000000020 .L8
     /tmp/ccBtmnCe.s:75     .text:0000000000000014 .L5
     /tmp/ccBtmnCe.s:251    .text:000000000000010c .L13
     /tmp/ccBtmnCe.s:772    .text:0000000000000350 .L40
     /tmp/ccBtmnCe.s:750    .text:0000000000000328 .L42
     /tmp/ccBtmnCe.s:943    .text:0000000000000450 .L49
     /tmp/ccBtmnCe.s:916    .text:0000000000000424 .L50
     /tmp/ccBtmnCe.s:885    .text:00000000000003f0 .LEHB0
     /tmp/ccBtmnCe.s:855    .text:00000000000003b4 .LFB74
     /tmp/ccBtmnCe.s:897    .text:0000000000000404 .LEHE0
     /tmp/ccBtmnCe.s:954    .text:0000000000000464 .L52
     /tmp/ccBtmnCe.s:964    .text:0000000000000478 .LEHB1
     /tmp/ccBtmnCe.s:967    .text:0000000000000480 .LEHE1
     /tmp/ccBtmnCe.s:336    .text._ZN14PeriodicThreadD2Ev:0000000000000010 .L0 
     /tmp/ccBtmnCe.s:378    .text._ZN14PeriodicThreadD0Ev:0000000000000018 .L0 
     /tmp/ccBtmnCe.s:4149   .debug_abbrev:0000000000000000 .Ldebug_abbrev0
     /tmp/ccBtmnCe.s:6588   .debug_str:000000000000101f .LASF261
     /tmp/ccBtmnCe.s:6348   .debug_str:000000000000086d .LASF262
     /tmp/ccBtmnCe.s:6342   .debug_str:0000000000000826 .LASF263
     /tmp/ccBtmnCe.s:6138   .debug_ranges:0000000000000000 .Ldebug_ranges0
     /tmp/ccBtmnCe.s:6158   .debug_line:0000000000000000 .Ldebug_line0
     /tmp/ccBtmnCe.s:6334   .debug_str:00000000000007d7 .LASF0
     /tmp/ccBtmnCe.s:6374   .debug_str:0000000000000969 .LASF1
     /tmp/ccBtmnCe.s:6496   .debug_str:0000000000000d55 .LASF2
     /tmp/ccBtmnCe.s:6302   .debug_str:00000000000006a4 .LASF3
     /tmp/ccBtmnCe.s:6508   .debug_str:0000000000000db8 .LASF4
     /tmp/ccBtmnCe.s:6350   .debug_str:0000000000000881 .LASF5
     /tmp/ccBtmnCe.s:6178   .debug_str:00000000000000e1 .LASF6
     /tmp/ccBtmnCe.s:6462   .debug_str:0000000000000c3b .LASF7
     /tmp/ccBtmnCe.s:6452   .debug_str:0000000000000ba4 .LASF8
GAS LISTING /tmp/ccBtmnCe.s 			page 35


     /tmp/ccBtmnCe.s:6364   .debug_str:0000000000000922 .LASF9
     /tmp/ccBtmnCe.s:6300   .debug_str:0000000000000694 .LASF10
     /tmp/ccBtmnCe.s:6314   .debug_str:000000000000071f .LASF11
     /tmp/ccBtmnCe.s:6230   .debug_str:00000000000002ff .LASF12
     /tmp/ccBtmnCe.s:6288   .debug_str:00000000000005f9 .LASF13
     /tmp/ccBtmnCe.s:6248   .debug_str:00000000000003ea .LASF14
     /tmp/ccBtmnCe.s:6228   .debug_str:00000000000002ef .LASF15
     /tmp/ccBtmnCe.s:6552   .debug_str:0000000000000f3f .LASF16
     /tmp/ccBtmnCe.s:6270   .debug_str:00000000000004e9 .LASF17
     /tmp/ccBtmnCe.s:6536   .debug_str:0000000000000eb1 .LASF18
     /tmp/ccBtmnCe.s:6448   .debug_str:0000000000000b88 .LASF28
     /tmp/ccBtmnCe.s:6324   .debug_str:000000000000078a .LASF60
     /tmp/ccBtmnCe.s:6514   .debug_str:0000000000000dda .LASF19
     /tmp/ccBtmnCe.s:6372   .debug_str:0000000000000964 .LASF20
     /tmp/ccBtmnCe.s:6194   .debug_str:0000000000000170 .LASF21
     /tmp/ccBtmnCe.s:6232   .debug_str:000000000000030e .LASF22
     /tmp/ccBtmnCe.s:6618   .debug_str:00000000000011bb .LASF23
     /tmp/ccBtmnCe.s:6244   .debug_str:00000000000003a6 .LASF161
     /tmp/ccBtmnCe.s:6652   .debug_str:0000000000001334 .LASF163
     /tmp/ccBtmnCe.s:6560   .debug_str:0000000000000f6d .LASF24
     /tmp/ccBtmnCe.s:6224   .debug_str:0000000000000294 .LASF26
     /tmp/ccBtmnCe.s:6632   .debug_str:000000000000123e .LASF25
     /tmp/ccBtmnCe.s:6274   .debug_str:0000000000000508 .LASF27
     /tmp/ccBtmnCe.s:6190   .debug_str:0000000000000151 .LASF30
     /tmp/ccBtmnCe.s:6424   .debug_str:0000000000000abc .LASF29
     /tmp/ccBtmnCe.s:6682   .debug_str:000000000000146e .LASF31
     /tmp/ccBtmnCe.s:6354   .debug_str:000000000000089d .LASF32
     /tmp/ccBtmnCe.s:6500   .debug_str:0000000000000d70 .LASF33
     /tmp/ccBtmnCe.s:6640   .debug_str:000000000000128e .LASF34
     /tmp/ccBtmnCe.s:6602   .debug_str:000000000000112a .LASF35
     /tmp/ccBtmnCe.s:6670   .debug_str:00000000000013f5 .LASF37
     /tmp/ccBtmnCe.s:6680   .debug_str:0000000000001465 .LASF36
     /tmp/ccBtmnCe.s:6466   .debug_str:0000000000000c51 .LASF38
     /tmp/ccBtmnCe.s:6544   .debug_str:0000000000000efc .LASF39
     /tmp/ccBtmnCe.s:6594   .debug_str:0000000000001103 .LASF116
     /tmp/ccBtmnCe.s:6396   .debug_str:0000000000000a2c .LASF40
     /tmp/ccBtmnCe.s:6656   .debug_str:000000000000135d .LASF41
     /tmp/ccBtmnCe.s:6634   .debug_str:0000000000001248 .LASF146
     /tmp/ccBtmnCe.s:6428   .debug_str:0000000000000ae4 .LASF42
     /tmp/ccBtmnCe.s:6420   .debug_str:0000000000000aac .LASF43
     /tmp/ccBtmnCe.s:6538   .debug_str:0000000000000ec7 .LASF44
     /tmp/ccBtmnCe.s:6284   .debug_str:00000000000005ca .LASF45
     /tmp/ccBtmnCe.s:6486   .debug_str:0000000000000d04 .LASF149
     /tmp/ccBtmnCe.s:6368   .debug_str:000000000000094f .LASF46
     /tmp/ccBtmnCe.s:6218   .debug_str:000000000000023e .LASF47
     /tmp/ccBtmnCe.s:6390   .debug_str:00000000000009f4 .LASF48
     /tmp/ccBtmnCe.s:6346   .debug_str:0000000000000851 .LASF49
     /tmp/ccBtmnCe.s:6450   .debug_str:0000000000000b98 .LASF50
     /tmp/ccBtmnCe.s:6658   .debug_str:0000000000001367 .LASF51
     /tmp/ccBtmnCe.s:6706   .debug_str:000000000000152e .LASF52
     /tmp/ccBtmnCe.s:6694   .debug_str:00000000000014da .LASF53
     /tmp/ccBtmnCe.s:6522   .debug_str:0000000000000e2d .LASF54
     /tmp/ccBtmnCe.s:6362   .debug_str:0000000000000905 .LASF55
     /tmp/ccBtmnCe.s:6478   .debug_str:0000000000000cc8 .LASF56
     /tmp/ccBtmnCe.s:6170   .debug_str:000000000000006c .LASF57
     /tmp/ccBtmnCe.s:6516   .debug_str:0000000000000de0 .LASF58
     /tmp/ccBtmnCe.s:6472   .debug_str:0000000000000c9a .LASF59
GAS LISTING /tmp/ccBtmnCe.s 			page 36


     /tmp/ccBtmnCe.s:6564   .debug_str:0000000000000f81 .LASF61
     /tmp/ccBtmnCe.s:6510   .debug_str:0000000000000dbf .LASF62
     /tmp/ccBtmnCe.s:6174   .debug_str:00000000000000ae .LASF63
     /tmp/ccBtmnCe.s:6566   .debug_str:0000000000000f89 .LASF64
     /tmp/ccBtmnCe.s:6426   .debug_str:0000000000000acd .LASF65
     /tmp/ccBtmnCe.s:6208   .debug_str:0000000000000202 .LASF66
     /tmp/ccBtmnCe.s:6620   .debug_str:00000000000011c0 .LASF67
     /tmp/ccBtmnCe.s:6668   .debug_str:00000000000013eb .LASF68
     /tmp/ccBtmnCe.s:6222   .debug_str:000000000000027f .LASF69
     /tmp/ccBtmnCe.s:6570   .debug_str:0000000000000fa9 .LASF70
     /tmp/ccBtmnCe.s:6186   .debug_str:0000000000000135 .LASF71
     /tmp/ccBtmnCe.s:6612   .debug_str:0000000000001182 .LASF72
     /tmp/ccBtmnCe.s:6444   .debug_str:0000000000000b5b .LASF73
     /tmp/ccBtmnCe.s:6422   .debug_str:0000000000000ab1 .LASF74
     /tmp/ccBtmnCe.s:6392   .debug_str:00000000000009fc .LASF75
     /tmp/ccBtmnCe.s:6470   .debug_str:0000000000000c91 .LASF76
     /tmp/ccBtmnCe.s:6524   .debug_str:0000000000000e38 .LASF77
     /tmp/ccBtmnCe.s:6550   .debug_str:0000000000000f32 .LASF78
     /tmp/ccBtmnCe.s:6666   .debug_str:00000000000013c9 .LASF79
     /tmp/ccBtmnCe.s:6442   .debug_str:0000000000000b56 .LASF264
     /tmp/ccBtmnCe.s:6376   .debug_str:000000000000097c .LASF82
     /tmp/ccBtmnCe.s:6596   .debug_str:0000000000001109 .LASF84
     /tmp/ccBtmnCe.s:6488   .debug_str:0000000000000d1b .LASF80
     /tmp/ccBtmnCe.s:6512   .debug_str:0000000000000dc4 .LASF81
     /tmp/ccBtmnCe.s:6418   .debug_str:0000000000000aa2 .LASF83
     /tmp/ccBtmnCe.s:6502   .debug_str:0000000000000d7a .LASF85
     /tmp/ccBtmnCe.s:6586   .debug_str:0000000000001017 .LASF86
     /tmp/ccBtmnCe.s:6690   .debug_str:00000000000014b2 .LASF87
     /tmp/ccBtmnCe.s:6380   .debug_str:0000000000000995 .LASF88
     /tmp/ccBtmnCe.s:6546   .debug_str:0000000000000f01 .LASF89
     /tmp/ccBtmnCe.s:6700   .debug_str:000000000000150a .LASF90
     /tmp/ccBtmnCe.s:6308   .debug_str:00000000000006ec .LASF91
     /tmp/ccBtmnCe.s:6404   .debug_str:0000000000000a59 .LASF92
     /tmp/ccBtmnCe.s:6296   .debug_str:0000000000000673 .LASF93
     /tmp/ccBtmnCe.s:6168   .debug_str:000000000000005c .LASF94
     /tmp/ccBtmnCe.s:6434   .debug_str:0000000000000b10 .LASF95
     /tmp/ccBtmnCe.s:6534   .debug_str:0000000000000e9e .LASF96
     /tmp/ccBtmnCe.s:6498   .debug_str:0000000000000d63 .LASF97
     /tmp/ccBtmnCe.s:6684   .debug_str:0000000000001487 .LASF265
     /tmp/ccBtmnCe.s:6166   .debug_str:0000000000000057 .LASF98
     /tmp/ccBtmnCe.s:6528   .debug_str:0000000000000e5a .LASF99
     /tmp/ccBtmnCe.s:6616   .debug_str:00000000000011b3 .LASF100
     /tmp/ccBtmnCe.s:6562   .debug_str:0000000000000f78 .LASF101
     /tmp/ccBtmnCe.s:6436   .debug_str:0000000000000b1d .LASF102
     /tmp/ccBtmnCe.s:6610   .debug_str:0000000000001178 .LASF103
     /tmp/ccBtmnCe.s:6600   .debug_str:0000000000001123 .LASF104
     /tmp/ccBtmnCe.s:6598   .debug_str:0000000000001119 .LASF105
     /tmp/ccBtmnCe.s:6216   .debug_str:0000000000000230 .LASF110
     /tmp/ccBtmnCe.s:6382   .debug_str:00000000000009a2 .LASF112
     /tmp/ccBtmnCe.s:6252   .debug_str:000000000000041f .LASF106
     /tmp/ccBtmnCe.s:6172   .debug_str:0000000000000086 .LASF108
     /tmp/ccBtmnCe.s:6578   .debug_str:0000000000000fd5 .LASF107
     /tmp/ccBtmnCe.s:6292   .debug_str:0000000000000629 .LASF109
     /tmp/ccBtmnCe.s:6258   .debug_str:0000000000000467 .LASF111
     /tmp/ccBtmnCe.s:6240   .debug_str:0000000000000370 .LASF113
     /tmp/ccBtmnCe.s:6198   .debug_str:0000000000000185 .LASF114
     /tmp/ccBtmnCe.s:6386   .debug_str:00000000000009ca .LASF115
GAS LISTING /tmp/ccBtmnCe.s 			page 37


     /tmp/ccBtmnCe.s:6518   .debug_str:0000000000000de8 .LASF266
     /tmp/ccBtmnCe.s:6506   .debug_str:0000000000000dad .LASF117
     /tmp/ccBtmnCe.s:6672   .debug_str:0000000000001416 .LASF118
     /tmp/ccBtmnCe.s:6482   .debug_str:0000000000000cf0 .LASF119
     /tmp/ccBtmnCe.s:6582   .debug_str:0000000000000fef .LASF120
     /tmp/ccBtmnCe.s:6490   .debug_str:0000000000000d26 .LASF121
     /tmp/ccBtmnCe.s:6622   .debug_str:00000000000011d7 .LASF122
     /tmp/ccBtmnCe.s:6676   .debug_str:0000000000001427 .LASF123
     /tmp/ccBtmnCe.s:6256   .debug_str:0000000000000440 .LASF124
     /tmp/ccBtmnCe.s:6162   .debug_str:000000000000002a .LASF125
     /tmp/ccBtmnCe.s:6278   .debug_str:0000000000000564 .LASF126
     /tmp/ccBtmnCe.s:6460   .debug_str:0000000000000c0f .LASF127
     /tmp/ccBtmnCe.s:6312   .debug_str:000000000000070b .LASF128
     /tmp/ccBtmnCe.s:6630   .debug_str:0000000000001236 .LASF129
     /tmp/ccBtmnCe.s:6282   .debug_str:00000000000005b0 .LASF130
     /tmp/ccBtmnCe.s:6352   .debug_str:0000000000000893 .LASF131
     /tmp/ccBtmnCe.s:6260   .debug_str:0000000000000470 .LASF132
     /tmp/ccBtmnCe.s:6494   .debug_str:0000000000000d45 .LASF133
     /tmp/ccBtmnCe.s:6242   .debug_str:0000000000000383 .LASF134
     /tmp/ccBtmnCe.s:6266   .debug_str:00000000000004cf .LASF135
     /tmp/ccBtmnCe.s:6456   .debug_str:0000000000000bbc .LASF136
     /tmp/ccBtmnCe.s:6188   .debug_str:000000000000014b .LASF137
     /tmp/ccBtmnCe.s:6286   .debug_str:00000000000005e1 .LASF138
     /tmp/ccBtmnCe.s:6400   .debug_str:0000000000000a39 .LASF139
     /tmp/ccBtmnCe.s:6388   .debug_str:00000000000009e0 .LASF140
     /tmp/ccBtmnCe.s:6328   .debug_str:00000000000007a1 .LASF141
     /tmp/ccBtmnCe.s:6568   .debug_str:0000000000000f94 .LASF142
     /tmp/ccBtmnCe.s:6660   .debug_str:0000000000001385 .LASF143
     /tmp/ccBtmnCe.s:6540   .debug_str:0000000000000eda .LASF144
     /tmp/ccBtmnCe.s:6184   .debug_str:0000000000000111 .LASF145
     /tmp/ccBtmnCe.s:6262   .debug_str:000000000000048c .LASF147
     /tmp/ccBtmnCe.s:6316   .debug_str:000000000000072d .LASF148
     /tmp/ccBtmnCe.s:6520   .debug_str:0000000000000df9 .LASF150
     /tmp/ccBtmnCe.s:6276   .debug_str:000000000000052a .LASF151
     /tmp/ccBtmnCe.s:6294   .debug_str:000000000000063a .LASF152
     /tmp/ccBtmnCe.s:6246   .debug_str:00000000000003af .LASF153
     /tmp/ccBtmnCe.s:6226   .debug_str:00000000000002b7 .LASF154
     /tmp/ccBtmnCe.s:6200   .debug_str:0000000000000190 .LASF155
     /tmp/ccBtmnCe.s:6458   .debug_str:0000000000000bd8 .LASF156
     /tmp/ccBtmnCe.s:6530   .debug_str:0000000000000e60 .LASF157
     /tmp/ccBtmnCe.s:6654   .debug_str:0000000000001354 .LASF158
     /tmp/ccBtmnCe.s:6674   .debug_str:0000000000001421 .LASF159
     /tmp/ccBtmnCe.s:6398   .debug_str:0000000000000a31 .LASF160
     /tmp/ccBtmnCe.s:6340   .debug_str:0000000000000821 .LASF162
     /tmp/ccBtmnCe.s:6254   .debug_str:000000000000042d .LASF164
     /tmp/ccBtmnCe.s:6406   .debug_str:0000000000000a69 .LASF165
     /tmp/ccBtmnCe.s:6264   .debug_str:00000000000004bc .LASF166
     /tmp/ccBtmnCe.s:6572   .debug_str:0000000000000fb4 .LASF167
     /tmp/ccBtmnCe.s:6298   .debug_str:000000000000067f .LASF168
     /tmp/ccBtmnCe.s:6698   .debug_str:0000000000001505 .LASF169
     /tmp/ccBtmnCe.s:6338   .debug_str:00000000000007f6 .LASF170
     /tmp/ccBtmnCe.s:6280   .debug_str:000000000000058c .LASF171
     /tmp/ccBtmnCe.s:6220   .debug_str:000000000000025b .LASF172
     /tmp/ccBtmnCe.s:6646   .debug_str:00000000000012c2 .LASF173
     /tmp/ccBtmnCe.s:6238   .debug_str:000000000000034b .LASF267
     /tmp/ccBtmnCe.s:6504   .debug_str:0000000000000d8e .LASF174
     /tmp/ccBtmnCe.s:6664   .debug_str:00000000000013a6 .LASF175
GAS LISTING /tmp/ccBtmnCe.s 			page 38


     /tmp/ccBtmnCe.s:6648   .debug_str:00000000000012e7 .LASF176
     /tmp/ccBtmnCe.s:6206   .debug_str:00000000000001d9 .LASF177
     /tmp/ccBtmnCe.s:6608   .debug_str:0000000000001150 .LASF178
     /tmp/ccBtmnCe.s:6438   .debug_str:0000000000000b25 .LASF179
     /tmp/ccBtmnCe.s:6176   .debug_str:00000000000000ba .LASF180
     /tmp/ccBtmnCe.s:6638   .debug_str:0000000000001265 .LASF181
     /tmp/ccBtmnCe.s:6236   .debug_str:0000000000000325 .LASF182
     /tmp/ccBtmnCe.s:6250   .debug_str:00000000000003fa .LASF183
     /tmp/ccBtmnCe.s:6526   .debug_str:0000000000000e4b .LASF184
     /tmp/ccBtmnCe.s:6394   .debug_str:0000000000000a12 .LASF185
     /tmp/ccBtmnCe.s:6628   .debug_str:000000000000121b .LASF186
     /tmp/ccBtmnCe.s:6574   .debug_str:0000000000000fb9 .LASF187
     /tmp/ccBtmnCe.s:6306   .debug_str:00000000000006cc .LASF188
     /tmp/ccBtmnCe.s:6358   .debug_str:00000000000008d4 .LASF189
     /tmp/ccBtmnCe.s:6310   .debug_str:00000000000006f8 .LASF191
     /tmp/ccBtmnCe.s:6160   .debug_str:0000000000000000 .LASF268
     /tmp/ccBtmnCe.s:6318   .debug_str:0000000000000761 .LASF190
     /tmp/ccBtmnCe.s:6662   .debug_str:000000000000138c .LASF208
     /tmp/ccBtmnCe.s:6604   .debug_str:0000000000001134 .LASF192
     /tmp/ccBtmnCe.s:6326   .debug_str:0000000000000796 .LASF193
     /tmp/ccBtmnCe.s:6432   .debug_str:0000000000000b00 .LASF194
     /tmp/ccBtmnCe.s:6636   .debug_str:000000000000124d .LASF269
     /tmp/ccBtmnCe.s:6614   .debug_str:000000000000118e .LASF270
     /tmp/ccBtmnCe.s:6414   .debug_str:0000000000000a92 .LASF195
     /tmp/ccBtmnCe.s:6210   .debug_str:000000000000020e .LASF196
     /tmp/ccBtmnCe.s:6590   .debug_str:00000000000010e3 .LASF213
     /tmp/ccBtmnCe.s:6678   .debug_str:000000000000144e .LASF197
     /tmp/ccBtmnCe.s:6532   .debug_str:0000000000000e96 .LASF198
     /tmp/ccBtmnCe.s:6626   .debug_str:000000000000120c .LASF199
     /tmp/ccBtmnCe.s:6688   .debug_str:00000000000014ac .LASF200
     /tmp/ccBtmnCe.s:6378   .debug_str:0000000000000982 .LASF201
     /tmp/ccBtmnCe.s:6446   .debug_str:0000000000000b72 .LASF202
     /tmp/ccBtmnCe.s:6192   .debug_str:000000000000016a .LASF203
     /tmp/ccBtmnCe.s:6592   .debug_str:00000000000010f0 .LASF204
     /tmp/ccBtmnCe.s:6642   .debug_str:00000000000012aa .LASF205
     /tmp/ccBtmnCe.s:6584   .debug_str:0000000000001001 .LASF206
     /tmp/ccBtmnCe.s:6344   .debug_str:0000000000000842 .LASF207
     /tmp/ccBtmnCe.s:6330   .debug_str:00000000000007b6 .LASF209
     /tmp/ccBtmnCe.s:6272   .debug_str:00000000000004ff .LASF210
     /tmp/ccBtmnCe.s:6332   .debug_str:00000000000007c7 .LASF271
     /tmp/ccBtmnCe.s:6410   .debug_str:0000000000000a73 .LASF211
     /tmp/ccBtmnCe.s:6580   .debug_str:0000000000000fda .LASF212
     /tmp/ccBtmnCe.s:6696   .debug_str:00000000000014f5 .LASF214
     /tmp/ccBtmnCe.s:6576   .debug_str:0000000000000fc3 .LASF215
     /tmp/ccBtmnCe.s:6474   .debug_str:0000000000000cb3 .LASF216
     /tmp/ccBtmnCe.s:6558   .debug_str:0000000000000f5b .LASF217
     /tmp/ccBtmnCe.s:6164   .debug_str:0000000000000052 .LASF218
     /tmp/ccBtmnCe.s:6606   .debug_str:000000000000113b .LASF219
     /tmp/ccBtmnCe.s:6556   .debug_str:0000000000000f54 .LASF220
     /tmp/ccBtmnCe.s:6180   .debug_str:00000000000000e8 .LASF221
     /tmp/ccBtmnCe.s:6290   .debug_str:0000000000000608 .LASF222
     /tmp/ccBtmnCe.s:1020   .text:00000000000004a0 .LFB98
     /tmp/ccBtmnCe.s:1046   .text:00000000000004d4 .LFE98
     /tmp/ccBtmnCe.s:1036   .text:00000000000004c4 .LVL72
     /tmp/ccBtmnCe.s:6650   .debug_str:000000000000130a .LASF223
     /tmp/ccBtmnCe.s:61     .text:0000000000000000 .LFB97
     /tmp/ccBtmnCe.s:106    .text:0000000000000044 .LFE97
GAS LISTING /tmp/ccBtmnCe.s 			page 39


     /tmp/ccBtmnCe.s:6320   .debug_str:0000000000000770 .LASF224
     /tmp/ccBtmnCe.s:6214   .debug_str:0000000000000225 .LASF225
     /tmp/ccBtmnCe.s:90     .text:000000000000002c .LBB19
     /tmp/ccBtmnCe.s:102    .text:0000000000000040 .LBE19
     /tmp/ccBtmnCe.s:5726   .debug_loc:0000000000000000 .LLST0
     /tmp/ccBtmnCe.s:6212   .debug_str:0000000000000220 .LASF226
     /tmp/ccBtmnCe.s:6204   .debug_str:00000000000001cf .LASF227
     /tmp/ccBtmnCe.s:6708   .debug_str:0000000000001538 .LASF228
     /tmp/ccBtmnCe.s:359    .text._ZN14PeriodicThreadD0Ev:0000000000000000 .LFB96
     /tmp/ccBtmnCe.s:399    .text._ZN14PeriodicThreadD0Ev:000000000000004c .LFE96
     /tmp/ccBtmnCe.s:5735   .debug_loc:000000000000002c .LLST8
     /tmp/ccBtmnCe.s:375    .text._ZN14PeriodicThreadD0Ev:0000000000000018 .LBB29
     /tmp/ccBtmnCe.s:383    .text._ZN14PeriodicThreadD0Ev:000000000000002c .LBE29
     /tmp/ccBtmnCe.s:5753   .debug_loc:0000000000000078 .LLST9
     /tmp/ccBtmnCe.s:381    .text._ZN14PeriodicThreadD0Ev:000000000000002c .LVL26
     /tmp/ccBtmnCe.s:386    .text._ZN14PeriodicThreadD0Ev:0000000000000038 .LVL27
     /tmp/ccBtmnCe.s:6492   .debug_str:0000000000000d2d .LASF229
     /tmp/ccBtmnCe.s:322    .text._ZN14PeriodicThreadD2Ev:0000000000000000 .LFB94
     /tmp/ccBtmnCe.s:350    .text._ZN14PeriodicThreadD2Ev:0000000000000034 .LFE94
     /tmp/ccBtmnCe.s:5764   .debug_loc:00000000000000ae .LLST7
     /tmp/ccBtmnCe.s:339    .text._ZN14PeriodicThreadD2Ev:0000000000000024 .LVL23
     /tmp/ccBtmnCe.s:6624   .debug_str:00000000000011e1 .LASF230
     /tmp/ccBtmnCe.s:6408   .debug_str:0000000000000a6e .LASF272
     /tmp/ccBtmnCe.s:6480   .debug_str:0000000000000cd1 .LASF231
     /tmp/ccBtmnCe.s:734    .text:0000000000000310 .LFB77
     /tmp/ccBtmnCe.s:786    .text:0000000000000364 .LFE77
     /tmp/ccBtmnCe.s:5778   .debug_loc:00000000000000e7 .LLST17
     /tmp/ccBtmnCe.s:764    .text:0000000000000340 .LVL51
     /tmp/ccBtmnCe.s:769    .text:000000000000034c .LVL52
     /tmp/ccBtmnCe.s:993    .text:0000000000000480 .LFB76
     /tmp/ccBtmnCe.s:1015   .text:00000000000004a0 .LFE76
     /tmp/ccBtmnCe.s:6548   .debug_str:0000000000000f1a .LASF232
     /tmp/ccBtmnCe.s:970    .text:0000000000000480 .LFE74
     /tmp/ccBtmnCe.s:5796   .debug_loc:0000000000000133 .LLST19
     /tmp/ccBtmnCe.s:5818   .debug_loc:0000000000000192 .LLST20
     /tmp/ccBtmnCe.s:886    .text:00000000000003f0 .LBB43
     /tmp/ccBtmnCe.s:5847   .debug_loc:0000000000000207 .LLST21
     /tmp/ccBtmnCe.s:5858   .debug_loc:000000000000023d .LLST22
     /tmp/ccBtmnCe.s:5873   .debug_loc:0000000000000285 .LLST23
     /tmp/ccBtmnCe.s:888    .text:00000000000003f0 .LBB45
     /tmp/ccBtmnCe.s:899    .text:0000000000000404 .LBE45
     /tmp/ccBtmnCe.s:5880   .debug_loc:00000000000002a8 .LLST24
     /tmp/ccBtmnCe.s:892    .text:00000000000003f8 .LVL60
     /tmp/ccBtmnCe.s:896    .text:0000000000000404 .LVL61
     /tmp/ccBtmnCe.s:900    .text:0000000000000404 .LBB47
     /tmp/ccBtmnCe.s:907    .text:000000000000040c .LBE47
     /tmp/ccBtmnCe.s:5893   .debug_loc:00000000000002e0 .LLST25
     /tmp/ccBtmnCe.s:5901   .debug_loc:0000000000000304 .LLST26
     /tmp/ccBtmnCe.s:5908   .debug_loc:0000000000000327 .LLST27
     /tmp/ccBtmnCe.s:878    .text:00000000000003dc .LVL58
     /tmp/ccBtmnCe.s:962    .text:0000000000000474 .LVL69
     /tmp/ccBtmnCe.s:966    .text:0000000000000480 .LVL70
     /tmp/ccBtmnCe.s:824    .text:000000000000038c .LFB72
     /tmp/ccBtmnCe.s:849    .text:00000000000003b4 .LFE72
     /tmp/ccBtmnCe.s:838    .text:00000000000003a4 .LVL56
     /tmp/ccBtmnCe.s:792    .text:0000000000000364 .LFB71
     /tmp/ccBtmnCe.s:818    .text:000000000000038c .LFE71
GAS LISTING /tmp/ccBtmnCe.s 			page 40


     /tmp/ccBtmnCe.s:5915   .debug_loc:000000000000034a .LLST18
     /tmp/ccBtmnCe.s:807    .text:000000000000037c .LVL55
     /tmp/ccBtmnCe.s:702    .text:00000000000002e8 .LFB70
     /tmp/ccBtmnCe.s:728    .text:0000000000000310 .LFE70
     /tmp/ccBtmnCe.s:6454   .debug_str:0000000000000bb7 .LASF233
     /tmp/ccBtmnCe.s:5929   .debug_loc:0000000000000383 .LLST16
     /tmp/ccBtmnCe.s:717    .text:0000000000000300 .LVL48
     /tmp/ccBtmnCe.s:406    .text:0000000000000160 .LFB69
     /tmp/ccBtmnCe.s:439    .text:0000000000000194 .LFE69
     /tmp/ccBtmnCe.s:5943   .debug_loc:00000000000003bc .LLST10
     /tmp/ccBtmnCe.s:424    .text:000000000000017c .LVL30
     /tmp/ccBtmnCe.s:428    .text:0000000000000184 .LVL31
     /tmp/ccBtmnCe.s:6464   .debug_str:0000000000000c42 .LASF234
     /tmp/ccBtmnCe.s:661    .text:00000000000002b0 .LFB67
     /tmp/ccBtmnCe.s:694    .text:00000000000002e8 .LFE67
     /tmp/ccBtmnCe.s:625    .text:000000000000027c .LFB65
     /tmp/ccBtmnCe.s:655    .text:00000000000002b0 .LFE65
     /tmp/ccBtmnCe.s:5957   .debug_loc:00000000000003f5 .LLST15
     /tmp/ccBtmnCe.s:644    .text:00000000000002a0 .LVL45
     /tmp/ccBtmnCe.s:6384   .debug_str:00000000000009bb .LASF235
     /tmp/ccBtmnCe.s:282    .text:0000000000000120 .LFB64
     /tmp/ccBtmnCe.s:315    .text:0000000000000160 .LFE64
     /tmp/ccBtmnCe.s:5977   .debug_loc:0000000000000443 .LLST6
     /tmp/ccBtmnCe.s:299    .text:0000000000000140 .LVL19
     /tmp/ccBtmnCe.s:302    .text:000000000000014c .LVL20
     /tmp/ccBtmnCe.s:6468   .debug_str:0000000000000c82 .LASF236
     /tmp/ccBtmnCe.s:202    .text:00000000000000bc .LFB62
     /tmp/ccBtmnCe.s:267    .text:0000000000000120 .LFE62
     /tmp/ccBtmnCe.s:5995   .debug_loc:000000000000048f .LLST3
     /tmp/ccBtmnCe.s:228    .text:00000000000000e4 .LBB24
     /tmp/ccBtmnCe.s:240    .text:00000000000000f8 .LBE24
     /tmp/ccBtmnCe.s:6009   .debug_loc:00000000000004c8 .LLST4
     /tmp/ccBtmnCe.s:234    .text:00000000000000ec .LVL14
     /tmp/ccBtmnCe.s:238    .text:00000000000000f8 .LVL15
     /tmp/ccBtmnCe.s:241    .text:00000000000000f8 .LBB26
     /tmp/ccBtmnCe.s:253    .text:000000000000010c .LBE26
     /tmp/ccBtmnCe.s:6016   .debug_loc:00000000000004eb .LLST5
     /tmp/ccBtmnCe.s:246    .text:0000000000000100 .LVL16
     /tmp/ccBtmnCe.s:250    .text:000000000000010c .LVL17
     /tmp/ccBtmnCe.s:6430   .debug_str:0000000000000ae9 .LASF237
     /tmp/ccBtmnCe.s:585    .text:000000000000024c .LFB59
     /tmp/ccBtmnCe.s:617    .text:000000000000027c .LFE59
     /tmp/ccBtmnCe.s:554    .text:0000000000000224 .LFB57
     /tmp/ccBtmnCe.s:579    .text:000000000000024c .LFE57
     /tmp/ccBtmnCe.s:568    .text:000000000000023c .LVL41
     /tmp/ccBtmnCe.s:520    .text:00000000000001f8 .LFB56
     /tmp/ccBtmnCe.s:548    .text:0000000000000224 .LFE56
     /tmp/ccBtmnCe.s:6023   .debug_loc:000000000000050e .LLST14
     /tmp/ccBtmnCe.s:537    .text:0000000000000214 .LVL40
     /tmp/ccBtmnCe.s:486    .text:00000000000001cc .LFB55
     /tmp/ccBtmnCe.s:514    .text:00000000000001f8 .LFE55
     /tmp/ccBtmnCe.s:6037   .debug_loc:0000000000000547 .LLST13
     /tmp/ccBtmnCe.s:503    .text:00000000000001e8 .LVL37
     /tmp/ccBtmnCe.s:6336   .debug_str:00000000000007e4 .LASF238
     /tmp/ccBtmnCe.s:163    .text:000000000000007c .LFB54
     /tmp/ccBtmnCe.s:196    .text:00000000000000bc .LFE54
     /tmp/ccBtmnCe.s:6051   .debug_loc:0000000000000580 .LLST2
GAS LISTING /tmp/ccBtmnCe.s 			page 41


     /tmp/ccBtmnCe.s:180    .text:000000000000009c .LVL9
     /tmp/ccBtmnCe.s:183    .text:00000000000000a8 .LVL10
     /tmp/ccBtmnCe.s:6182   .debug_str:00000000000000ff .LASF239
     /tmp/ccBtmnCe.s:112    .text:0000000000000044 .LFB52
     /tmp/ccBtmnCe.s:147    .text:000000000000007c .LFE52
     /tmp/ccBtmnCe.s:6069   .debug_loc:00000000000005cc .LLST1
     /tmp/ccBtmnCe.s:135    .text:000000000000006c .LVL7
     /tmp/ccBtmnCe.s:6202   .debug_str:00000000000001ca .LASF240
     /tmp/ccBtmnCe.s:6234   .debug_str:0000000000000313 .LASF241
     /tmp/ccBtmnCe.s:445    .text:0000000000000194 .LFB49
     /tmp/ccBtmnCe.s:478    .text:00000000000001cc .LFE49
     /tmp/ccBtmnCe.s:6083   .debug_loc:0000000000000605 .LLST11
     /tmp/ccBtmnCe.s:6103   .debug_loc:0000000000000653 .LLST12
     /tmp/ccBtmnCe.s:466    .text:00000000000001bc .LVL34
     /tmp/ccBtmnCe.s:37     .text._ZN14PeriodicThread18periodicActivationEv:0000000000000000 .LFB47
     /tmp/ccBtmnCe.s:55     .text._ZN14PeriodicThread18periodicActivationEv:0000000000000018 .LFE47
     /tmp/ccBtmnCe.s:11     .text._ZN6Thread3runEv:0000000000000000 .LFB46
     /tmp/ccBtmnCe.s:30     .text._ZN6Thread3runEv:0000000000000018 .LFE46
     /tmp/ccBtmnCe.s:6370   .debug_str:0000000000000958 .LASF242
     /tmp/ccBtmnCe.s:6440   .debug_str:0000000000000b4f .LASF243
     /tmp/ccBtmnCe.s:6686   .debug_str:000000000000149d .LASF273
     /tmp/ccBtmnCe.s:6692   .debug_str:00000000000014c2 .LASF274
     /tmp/ccBtmnCe.s:6416   .debug_str:0000000000000a99 .LASF244
     /tmp/ccBtmnCe.s:6554   .debug_str:0000000000000f4b .LASF245
     /tmp/ccBtmnCe.s:6196   .debug_str:0000000000000175 .LASF246
     /tmp/ccBtmnCe.s:6268   .debug_str:00000000000004d8 .LASF247
     /tmp/ccBtmnCe.s:6402   .debug_str:0000000000000a4d .LASF248
     /tmp/ccBtmnCe.s:6304   .debug_str:00000000000006ab .LASF249
     /tmp/ccBtmnCe.s:6702   .debug_str:0000000000001517 .LASF250
     /tmp/ccBtmnCe.s:6412   .debug_str:0000000000000a7d .LASF251
     /tmp/ccBtmnCe.s:6644   .debug_str:00000000000012b2 .LASF252
     /tmp/ccBtmnCe.s:6542   .debug_str:0000000000000ee0 .LASF253
     /tmp/ccBtmnCe.s:6322   .debug_str:000000000000077f .LASF254
     /tmp/ccBtmnCe.s:6360   .debug_str:00000000000008ec .LASF255
     /tmp/ccBtmnCe.s:6704   .debug_str:0000000000001525 .LASF256
     /tmp/ccBtmnCe.s:6366   .debug_str:0000000000000935 .LASF257
     /tmp/ccBtmnCe.s:6476   .debug_str:0000000000000cbe .LASF258
     /tmp/ccBtmnCe.s:6356   .debug_str:00000000000008b9 .LASF259
     /tmp/ccBtmnCe.s:6484   .debug_str:0000000000000cfb .LASF260
     /tmp/ccBtmnCe.s:89     .text:000000000000002c .LVL3
     /tmp/ccBtmnCe.s:99     .text:0000000000000040 .LVL4
     /tmp/ccBtmnCe.s:362    .text._ZN14PeriodicThreadD0Ev:0000000000000000 .LVL24
     /tmp/ccBtmnCe.s:394    .text._ZN14PeriodicThreadD0Ev:0000000000000044 .LVL28
     /tmp/ccBtmnCe.s:374    .text._ZN14PeriodicThreadD0Ev:0000000000000018 .LVL25
     /tmp/ccBtmnCe.s:325    .text._ZN14PeriodicThreadD2Ev:0000000000000000 .LVL22
     /tmp/ccBtmnCe.s:737    .text:0000000000000310 .LVL49
     /tmp/ccBtmnCe.s:749    .text:0000000000000328 .LVL50
     /tmp/ccBtmnCe.s:781    .text:000000000000035c .LVL53
     /tmp/ccBtmnCe.s:860    .text:00000000000003b4 .LVL57
     /tmp/ccBtmnCe.s:935    .text:0000000000000444 .LVL64
     /tmp/ccBtmnCe.s:942    .text:0000000000000450 .LVL66
     /tmp/ccBtmnCe.s:938    .text:0000000000000448 .LVL65
     /tmp/ccBtmnCe.s:956    .text:0000000000000468 .LVL68
     /tmp/ccBtmnCe.s:884    .text:00000000000003f0 .LVL59
     /tmp/ccBtmnCe.s:922    .text:0000000000000438 .LVL63
     /tmp/ccBtmnCe.s:905    .text:000000000000040c .LVL62
     /tmp/ccBtmnCe.s:953    .text:0000000000000464 .LVL67
GAS LISTING /tmp/ccBtmnCe.s 			page 42


     /tmp/ccBtmnCe.s:795    .text:0000000000000364 .LVL54
     /tmp/ccBtmnCe.s:705    .text:00000000000002e8 .LVL47
     /tmp/ccBtmnCe.s:409    .text:0000000000000160 .LVL29
     /tmp/ccBtmnCe.s:628    .text:000000000000027c .LVL43
     /tmp/ccBtmnCe.s:642    .text:0000000000000298 .LVL44
     /tmp/ccBtmnCe.s:285    .text:0000000000000120 .LVL18
     /tmp/ccBtmnCe.s:310    .text:0000000000000158 .LVL21
     /tmp/ccBtmnCe.s:207    .text:00000000000000bc .LVL12
     /tmp/ccBtmnCe.s:227    .text:00000000000000e4 .LVL13
     /tmp/ccBtmnCe.s:523    .text:00000000000001f8 .LVL38
     /tmp/ccBtmnCe.s:535    .text:000000000000020c .LVL39
     /tmp/ccBtmnCe.s:489    .text:00000000000001cc .LVL35
     /tmp/ccBtmnCe.s:501    .text:00000000000001e0 .LVL36
     /tmp/ccBtmnCe.s:166    .text:000000000000007c .LVL8
     /tmp/ccBtmnCe.s:191    .text:00000000000000b4 .LVL11
     /tmp/ccBtmnCe.s:117    .text:0000000000000044 .LVL5
     /tmp/ccBtmnCe.s:133    .text:0000000000000064 .LVL6
     /tmp/ccBtmnCe.s:448    .text:0000000000000194 .LVL32
     /tmp/ccBtmnCe.s:464    .text:00000000000001b4 .LVL33
     /tmp/ccBtmnCe.s:1099   .debug_info:0000000000000000 .Ldebug_info0
     /tmp/ccBtmnCe.s:5      .text:0000000000000000 .Ltext0
     /tmp/ccBtmnCe.s:1093   .text:00000000000004d4 .Letext0
     /tmp/ccBtmnCe.s:924    .text:0000000000000438 .LBE43
     /tmp/ccBtmnCe.s:946    .text:0000000000000450 .LBB50
     /tmp/ccBtmnCe.s:958    .text:0000000000000468 .LBE50
     /tmp/ccBtmnCe.s:150    .gcc_except_table:0000000000000000 .LLSDA52
     /tmp/ccBtmnCe.s:269    .gcc_except_table:0000000000000004 .LLSDA62
     /tmp/ccBtmnCe.s:972    .gcc_except_table:0000000000000008 .LLSDA74
                           .group:0000000000000000 _ZN14PeriodicThreadD5Ev

UNDEFINED SYMBOLS
_Z9sem_closeP10KSemaphore
__gxx_personality_v0
_ZdlPv
_ZN15MemoryAllocator8instanceEv
_ZN15MemoryAllocator9kmem_freeEPv
_Z11thread_exitv
_Z8sem_openPP10KSemaphorej
_Z8sem_waitP10KSemaphore
_Z10sem_signalP10KSemaphore
_Z15thread_dispatchv
_Z13thread_createPP3TCBPFvPvES2_
_Z10time_sleepm
_Z4putcc
_Z4getcv
_ZN15MemoryAllocator10kmem_allocEm
_Unwind_Resume
