GAS LISTING /tmp/ccyjzYLO.s 			page 1


   1              		.file	"syscall_c.cpp"
   2              		.option pic
   3              		.option norelax
   4              		.text
   5              	.Ltext0:
   6              		.align	2
   7              		.globl	_Z9mem_allocm
   9              	_Z9mem_allocm:
  10              	.LFB17:
  11              		.file 1 "src/syscall_c.cpp"
   1:src/syscall_c.cpp **** #include "../h/syscall_c.hpp"
   2:src/syscall_c.cpp **** #include "../lib/console.h"
   3:src/syscall_c.cpp **** 
   4:src/syscall_c.cpp **** /**
   5:src/syscall_c.cpp ****  * C API function for allocation on heap
   6:src/syscall_c.cpp ****  * @param size Size in bytes to be allocated
   7:src/syscall_c.cpp ****  * @return pointer to allocated heap space
   8:src/syscall_c.cpp ****  */
   9:src/syscall_c.cpp **** void* mem_alloc(size_t size) {
  12              		.loc 1 9 30
  13              		.cfi_startproc
  14              	.LVL0:
  15 0000 130101FF 		addi	sp,sp,-16
  16              		.cfi_def_cfa_offset 16
  17 0004 23348100 		sd	s0,8(sp)
  18              		.cfi_offset 8, -8
  19 0008 13040101 		addi	s0,sp,16
  20              		.cfi_def_cfa 8, 0
  10:src/syscall_c.cpp ****     size_t size_in_blocks = (size + MEM_BLOCK_SIZE - 1) / MEM_BLOCK_SIZE;
  21              		.loc 1 10 5
  22              		.loc 1 10 52 is_stmt 0
  23 000c 1305F503 		addi	a0,a0,63
  24              	.LVL1:
  25              		.loc 1 10 12
  26 0010 13556500 		srli	a0,a0,6
  27              	.LVL2:
  11:src/syscall_c.cpp ****     
  12:src/syscall_c.cpp ****     __asm__ volatile("mv a1, %0" : : "r"(size_in_blocks)); //send size as argument for ecall
  28              		.loc 1 12 5 is_stmt 1
  29              		.loc 1 12 58 is_stmt 0
  30              	#APP
  31              	# 12 "src/syscall_c.cpp" 1
  13              	    __asm__ volatile("li a0, 0x01"); //send opcode as second argument (0x01 - mem_alloc)
  32              		mv a1, a0
  33              	# 0 "" 2
  34              		.loc 1 13 5 is_stmt 1
  35              		.loc 1 13 36 is_stmt 0
  36              	# 13 "src/syscall_c.cpp" 1
  14              	    __asm__ volatile("ecall");
  37              		li a0, 0x01
  38              	# 0 "" 2
  39              		.loc 1 14 5 is_stmt 1
  40              		.loc 1 14 30 is_stmt 0
  41              	# 14 "src/syscall_c.cpp" 1
  15              	
  16:src/syscall_c.cpp ****     void* ret;
  42              		ecall
GAS LISTING /tmp/ccyjzYLO.s 			page 2


  43              	# 0 "" 2
  44              		.loc 1 16 5 is_stmt 1
  17:src/syscall_c.cpp ****     __asm__ volatile("mv %0, a0" : "=r"(ret));
  45              		.loc 1 17 5
  46              		.loc 1 17 46 is_stmt 0
  47              	# 17 "src/syscall_c.cpp" 1
  18              	    return ret;
  48              		mv a0, a0
  49              	# 0 "" 2
  50              	.LVL3:
  51              		.loc 1 18 5 is_stmt 1
  19:src/syscall_c.cpp **** }
  52              		.loc 1 19 1 is_stmt 0
  53              	#NO_APP
  54 0024 03348100 		ld	s0,8(sp)
  55              		.cfi_restore 8
  56              		.cfi_def_cfa 2, 16
  57 0028 13010101 		addi	sp,sp,16
  58              		.cfi_def_cfa_offset 0
  59 002c 67800000 		jr	ra
  60              		.cfi_endproc
  61              	.LFE17:
  63              		.align	2
  64              		.globl	_Z8mem_freePv
  66              	_Z8mem_freePv:
  67              	.LFB18:
  20:src/syscall_c.cpp **** 
  21:src/syscall_c.cpp **** /**
  22:src/syscall_c.cpp ****  * C API function to free allocated space
  23:src/syscall_c.cpp ****  * @param ptr pointer to heap space allocated by mem_alloc
  24:src/syscall_c.cpp ****  * @return negative error code or 0 for successfull free
  25:src/syscall_c.cpp ****  */
  26:src/syscall_c.cpp **** int mem_free (void* ptr) {
  68              		.loc 1 26 26 is_stmt 1
  69              		.cfi_startproc
  70              	.LVL4:
  71 0030 130101FF 		addi	sp,sp,-16
  72              		.cfi_def_cfa_offset 16
  73 0034 23348100 		sd	s0,8(sp)
  74              		.cfi_offset 8, -8
  75 0038 13040101 		addi	s0,sp,16
  76              		.cfi_def_cfa 8, 0
  27:src/syscall_c.cpp ****     __asm__ volatile("mv a1, %0" : : "r"(ptr)); //send pointer as argument for ecall
  77              		.loc 1 27 5
  78              		.loc 1 27 47 is_stmt 0
  79              	#APP
  80              	# 27 "src/syscall_c.cpp" 1
  28              	    __asm__ volatile("li a0, 0x02"); //send opcode as second argument (0x02 - mem_free)
  81              		mv a1, a0
  82              	# 0 "" 2
  83              		.loc 1 28 5 is_stmt 1
  84              		.loc 1 28 36 is_stmt 0
  85              	# 28 "src/syscall_c.cpp" 1
  29              	    __asm__ volatile("ecall");
  86              		li a0, 0x02
  87              	# 0 "" 2
  88              		.loc 1 29 5 is_stmt 1
GAS LISTING /tmp/ccyjzYLO.s 			page 3


  89              		.loc 1 29 30 is_stmt 0
  90              	# 29 "src/syscall_c.cpp" 1
  30              	
  31:src/syscall_c.cpp ****     uint64 ret;
  91              		ecall
  92              	# 0 "" 2
  93              		.loc 1 31 5 is_stmt 1
  32:src/syscall_c.cpp ****     __asm__ volatile("mv %0, a0" : "=r"(ret));
  94              		.loc 1 32 5
  95              		.loc 1 32 46 is_stmt 0
  96              	# 32 "src/syscall_c.cpp" 1
  33              	    return (int)ret;
  97              		mv a0, a0
  98              	# 0 "" 2
  99              	.LVL5:
 100              		.loc 1 33 5 is_stmt 1
  34:src/syscall_c.cpp **** }
 101              		.loc 1 34 1 is_stmt 0
 102              	#NO_APP
 103 004c 1B050500 		sext.w	a0,a0
 104              	.LVL6:
 105 0050 03348100 		ld	s0,8(sp)
 106              		.cfi_restore 8
 107              		.cfi_def_cfa 2, 16
 108 0054 13010101 		addi	sp,sp,16
 109              		.cfi_def_cfa_offset 0
 110 0058 67800000 		jr	ra
 111              		.cfi_endproc
 112              	.LFE18:
 114              		.align	2
 115              		.globl	_Z13thread_createPP3TCBPFvPvES2_
 117              	_Z13thread_createPP3TCBPFvPvES2_:
 118              	.LFB19:
  35:src/syscall_c.cpp **** 
  36:src/syscall_c.cpp **** int thread_create(thread_t* handle, void (*start_routine)(void*), void* arg) {
 119              		.loc 1 36 78 is_stmt 1
 120              		.cfi_startproc
 121              	.LVL7:
 122 005c 130101FF 		addi	sp,sp,-16
 123              		.cfi_def_cfa_offset 16
 124 0060 23348100 		sd	s0,8(sp)
 125              		.cfi_offset 8, -8
 126 0064 13040101 		addi	s0,sp,16
 127              		.cfi_def_cfa 8, 0
  37:src/syscall_c.cpp **** 
  38:src/syscall_c.cpp ****     __asm__ volatile("mv a7, %0" : : "r"(arg));
 128              		.loc 1 38 5
 129              		.loc 1 38 47 is_stmt 0
 130              	#APP
 131              	# 38 "src/syscall_c.cpp" 1
  39              	    __asm__ volatile("mv a2, %0" : : "r"(start_routine));
 132              		mv a7, a2
 133              	# 0 "" 2
 134              		.loc 1 39 5 is_stmt 1
 135              		.loc 1 39 57 is_stmt 0
 136              	# 39 "src/syscall_c.cpp" 1
  40              	    __asm__ volatile("mv a1, %0" : : "r"(handle));
GAS LISTING /tmp/ccyjzYLO.s 			page 4


 137              		mv a2, a1
 138              	# 0 "" 2
 139              		.loc 1 40 5 is_stmt 1
 140              		.loc 1 40 50 is_stmt 0
 141              	# 40 "src/syscall_c.cpp" 1
  41              	    __asm__ volatile("li a0, 0x11");
 142              		mv a1, a0
 143              	# 0 "" 2
 144              		.loc 1 41 5 is_stmt 1
 145              		.loc 1 41 36 is_stmt 0
 146              	# 41 "src/syscall_c.cpp" 1
  42              	    __asm__ volatile("ecall");
 147              		li a0, 0x11
 148              	# 0 "" 2
 149              		.loc 1 42 5 is_stmt 1
 150              		.loc 1 42 30 is_stmt 0
 151              	# 42 "src/syscall_c.cpp" 1
  43              	
  44:src/syscall_c.cpp ****     uint64 returnValue;
 152              		ecall
 153              	# 0 "" 2
 154              		.loc 1 44 5 is_stmt 1
  45:src/syscall_c.cpp ****     __asm__ volatile("mv %0, a0" : "=r"(returnValue));
 155              		.loc 1 45 5
 156              		.loc 1 45 54 is_stmt 0
 157              	# 45 "src/syscall_c.cpp" 1
  46              	    return (int)returnValue;
 158              		mv a0, a0
 159              	# 0 "" 2
 160              	.LVL8:
 161              		.loc 1 46 5 is_stmt 1
  47:src/syscall_c.cpp **** }...
 162              		.loc 1 47 1 is_stmt 0
 163              	#NO_APP
 164 0080 1B050500 		sext.w	a0,a0
 165              	.LVL9:
 166 0084 03348100 		ld	s0,8(sp)
 167              		.cfi_restore 8
 168              		.cfi_def_cfa 2, 16
 169 0088 13010101 		addi	sp,sp,16
 170              		.cfi_def_cfa_offset 0
 171 008c 67800000 		jr	ra
 172              		.cfi_endproc
 173              	.LFE19:
 175              	.Letext0:
 176              		.file 2 "src/../h/../lib/hw.h"
 177              		.file 3 "src/../h/tcb.hpp"
 178              		.file 4 "src/../h/syscall_c.hpp"
GAS LISTING /tmp/ccyjzYLO.s 			page 5


DEFINED SYMBOLS
                            *ABS*:0000000000000000 syscall_c.cpp
     /tmp/ccyjzYLO.s:9      .text:0000000000000000 _Z9mem_allocm
     /tmp/ccyjzYLO.s:13     .text:0000000000000000 .L0 
     /tmp/ccyjzYLO.s:15     .text:0000000000000000 .L0 
     /tmp/ccyjzYLO.s:16     .text:0000000000000004 .L0 
     /tmp/ccyjzYLO.s:18     .text:0000000000000008 .L0 
     /tmp/ccyjzYLO.s:20     .text:000000000000000c .L0 
     /tmp/ccyjzYLO.s:22     .text:000000000000000c .L0 
     /tmp/ccyjzYLO.s:23     .text:000000000000000c .L0 
     /tmp/ccyjzYLO.s:26     .text:0000000000000010 .L0 
     /tmp/ccyjzYLO.s:29     .text:0000000000000014 .L0 
   src/syscall_c.cpp:12     .text:0000000000000014 .L0 
     /tmp/ccyjzYLO.s:35     .text:0000000000000018 .L0 
   src/syscall_c.cpp:13     .text:0000000000000018 .L0 
     /tmp/ccyjzYLO.s:40     .text:000000000000001c .L0 
   src/syscall_c.cpp:14     .text:000000000000001c .L0 
     /tmp/ccyjzYLO.s:45     .text:0000000000000020 .L0 
     /tmp/ccyjzYLO.s:46     .text:0000000000000020 .L0 
   src/syscall_c.cpp:17     .text:0000000000000020 .L0 
     /tmp/ccyjzYLO.s:52     .text:0000000000000024 .L0 
     /tmp/ccyjzYLO.s:54     .text:0000000000000024 .L0 
     /tmp/ccyjzYLO.s:55     .text:0000000000000028 .L0 
     /tmp/ccyjzYLO.s:56     .text:0000000000000028 .L0 
     /tmp/ccyjzYLO.s:58     .text:000000000000002c .L0 
     /tmp/ccyjzYLO.s:60     .text:0000000000000030 .L0 
     /tmp/ccyjzYLO.s:66     .text:0000000000000030 _Z8mem_freePv
     /tmp/ccyjzYLO.s:69     .text:0000000000000030 .L0 
     /tmp/ccyjzYLO.s:71     .text:0000000000000030 .L0 
     /tmp/ccyjzYLO.s:72     .text:0000000000000034 .L0 
     /tmp/ccyjzYLO.s:74     .text:0000000000000038 .L0 
     /tmp/ccyjzYLO.s:76     .text:000000000000003c .L0 
     /tmp/ccyjzYLO.s:78     .text:000000000000003c .L0 
   src/syscall_c.cpp:27     .text:000000000000003c .L0 
     /tmp/ccyjzYLO.s:84     .text:0000000000000040 .L0 
   src/syscall_c.cpp:28     .text:0000000000000040 .L0 
     /tmp/ccyjzYLO.s:89     .text:0000000000000044 .L0 
   src/syscall_c.cpp:29     .text:0000000000000044 .L0 
     /tmp/ccyjzYLO.s:94     .text:0000000000000048 .L0 
     /tmp/ccyjzYLO.s:95     .text:0000000000000048 .L0 
   src/syscall_c.cpp:32     .text:0000000000000048 .L0 
     /tmp/ccyjzYLO.s:101    .text:000000000000004c .L0 
     /tmp/ccyjzYLO.s:103    .text:000000000000004c .L0 
     /tmp/ccyjzYLO.s:106    .text:0000000000000054 .L0 
     /tmp/ccyjzYLO.s:107    .text:0000000000000054 .L0 
     /tmp/ccyjzYLO.s:109    .text:0000000000000058 .L0 
     /tmp/ccyjzYLO.s:111    .text:000000000000005c .L0 
     /tmp/ccyjzYLO.s:117    .text:000000000000005c _Z13thread_createPP3TCBPFvPvES2_
     /tmp/ccyjzYLO.s:120    .text:000000000000005c .L0 
     /tmp/ccyjzYLO.s:122    .text:000000000000005c .L0 
     /tmp/ccyjzYLO.s:123    .text:0000000000000060 .L0 
     /tmp/ccyjzYLO.s:125    .text:0000000000000064 .L0 
     /tmp/ccyjzYLO.s:127    .text:0000000000000068 .L0 
     /tmp/ccyjzYLO.s:129    .text:0000000000000068 .L0 
   src/syscall_c.cpp:38     .text:0000000000000068 .L0 
     /tmp/ccyjzYLO.s:135    .text:000000000000006c .L0 
   src/syscall_c.cpp:39     .text:000000000000006c .L0 
GAS LISTING /tmp/ccyjzYLO.s 			page 6


     /tmp/ccyjzYLO.s:140    .text:0000000000000070 .L0 
   src/syscall_c.cpp:40     .text:0000000000000070 .L0 
     /tmp/ccyjzYLO.s:145    .text:0000000000000074 .L0 
   src/syscall_c.cpp:41     .text:0000000000000074 .L0 
     /tmp/ccyjzYLO.s:150    .text:0000000000000078 .L0 
   src/syscall_c.cpp:42     .text:0000000000000078 .L0 
     /tmp/ccyjzYLO.s:155    .text:000000000000007c .L0 
     /tmp/ccyjzYLO.s:156    .text:000000000000007c .L0 
   src/syscall_c.cpp:45     .text:000000000000007c .L0 
     /tmp/ccyjzYLO.s:162    .text:0000000000000080 .L0 
     /tmp/ccyjzYLO.s:164    .text:0000000000000080 .L0 
     /tmp/ccyjzYLO.s:167    .text:0000000000000088 .L0 
     /tmp/ccyjzYLO.s:168    .text:0000000000000088 .L0 
     /tmp/ccyjzYLO.s:170    .text:000000000000008c .L0 
     /tmp/ccyjzYLO.s:172    .text:0000000000000090 .L0 
     /tmp/ccyjzYLO.s:179    .text:0000000000000090 .L0 
     /tmp/ccyjzYLO.s:679    .debug_abbrev:0000000000000000 .Ldebug_abbrev0
     /tmp/ccyjzYLO.s:1533   .debug_str:00000000000001c1 .LASF53
     /tmp/ccyjzYLO.s:1595   .debug_str:0000000000000458 .LASF54
     /tmp/ccyjzYLO.s:1591   .debug_str:0000000000000412 .LASF55
     /tmp/ccyjzYLO.s:5      .text:0000000000000000 .Ltext0
     /tmp/ccyjzYLO.s:175    .text:0000000000000090 .Letext0
     /tmp/ccyjzYLO.s:1467   .debug_line:0000000000000000 .Ldebug_line0
     /tmp/ccyjzYLO.s:1543   .debug_str:00000000000002b0 .LASF0
     /tmp/ccyjzYLO.s:1517   .debug_str:0000000000000158 .LASF1
     /tmp/ccyjzYLO.s:1509   .debug_str:0000000000000121 .LASF2
     /tmp/ccyjzYLO.s:1485   .debug_str:000000000000005e .LASF4
     /tmp/ccyjzYLO.s:1515   .debug_str:0000000000000146 .LASF3
     /tmp/ccyjzYLO.s:1477   .debug_str:0000000000000039 .LASF5
     /tmp/ccyjzYLO.s:1473   .debug_str:000000000000001c .LASF6
     /tmp/ccyjzYLO.s:1501   .debug_str:00000000000000dd .LASF7
     /tmp/ccyjzYLO.s:1555   .debug_str:00000000000002f4 .LASF8
     /tmp/ccyjzYLO.s:1483   .debug_str:0000000000000050 .LASF9
     /tmp/ccyjzYLO.s:1597   .debug_str:000000000000046a .LASF10
     /tmp/ccyjzYLO.s:1505   .debug_str:00000000000000fb .LASF11
     /tmp/ccyjzYLO.s:1585   .debug_str:00000000000003f0 .LASF12
     /tmp/ccyjzYLO.s:1565   .debug_str:0000000000000338 .LASF13
     /tmp/ccyjzYLO.s:1523   .debug_str:000000000000018d .LASF14
     /tmp/ccyjzYLO.s:1493   .debug_str:0000000000000081 .LASF15
     /tmp/ccyjzYLO.s:1559   .debug_str:0000000000000311 .LASF16
     /tmp/ccyjzYLO.s:1587   .debug_str:0000000000000400 .LASF56
     /tmp/ccyjzYLO.s:1479   .debug_str:0000000000000040 .LASF17
     /tmp/ccyjzYLO.s:1553   .debug_str:00000000000002e8 .LASF19
     /tmp/ccyjzYLO.s:1503   .debug_str:00000000000000f0 .LASF21
     /tmp/ccyjzYLO.s:1575   .debug_str:000000000000039e .LASF23
     /tmp/ccyjzYLO.s:1547   .debug_str:00000000000002c5 .LASF18
     /tmp/ccyjzYLO.s:1507   .debug_str:000000000000010a .LASF20
     /tmp/ccyjzYLO.s:1539   .debug_str:000000000000029d .LASF22
     /tmp/ccyjzYLO.s:1519   .debug_str:000000000000016b .LASF24
     /tmp/ccyjzYLO.s:1557   .debug_str:0000000000000304 .LASF25
     /tmp/ccyjzYLO.s:1569   .debug_str:0000000000000351 .LASF26
     /tmp/ccyjzYLO.s:1487   .debug_str:0000000000000065 .LASF57
     /tmp/ccyjzYLO.s:1541   .debug_str:00000000000002aa .LASF58
     /tmp/ccyjzYLO.s:1573   .debug_str:000000000000038e .LASF59
     /tmp/ccyjzYLO.s:1545   .debug_str:00000000000002bd .LASF60
     /tmp/ccyjzYLO.s:1499   .debug_str:00000000000000cc .LASF61
     /tmp/ccyjzYLO.s:1529   .debug_str:00000000000001ae .LASF27
GAS LISTING /tmp/ccyjzYLO.s 			page 7


     /tmp/ccyjzYLO.s:1489   .debug_str:000000000000006a .LASF28
     /tmp/ccyjzYLO.s:1563   .debug_str:0000000000000330 .LASF29
     /tmp/ccyjzYLO.s:1475   .debug_str:000000000000002f .LASF30
     /tmp/ccyjzYLO.s:1521   .debug_str:0000000000000184 .LASF31
     /tmp/ccyjzYLO.s:1471   .debug_str:000000000000000e .LASF32
     /tmp/ccyjzYLO.s:1577   .debug_str:00000000000003b5 .LASF34
     /tmp/ccyjzYLO.s:1527   .debug_str:00000000000001a0 .LASF62
     /tmp/ccyjzYLO.s:1497   .debug_str:00000000000000a4 .LASF63
     /tmp/ccyjzYLO.s:1549   .debug_str:00000000000002d1 .LASF33
     /tmp/ccyjzYLO.s:1535   .debug_str:0000000000000285 .LASF35
     /tmp/ccyjzYLO.s:1491   .debug_str:0000000000000070 .LASF64
     /tmp/ccyjzYLO.s:1481   .debug_str:0000000000000045 .LASF36
     /tmp/ccyjzYLO.s:1513   .debug_str:000000000000013b .LASF37
     /tmp/ccyjzYLO.s:1583   .debug_str:00000000000003eb .LASF38
     /tmp/ccyjzYLO.s:1561   .debug_str:0000000000000327 .LASF39
     /tmp/ccyjzYLO.s:1551   .debug_str:00000000000002da .LASF40
     /tmp/ccyjzYLO.s:1495   .debug_str:0000000000000097 .LASF41
     /tmp/ccyjzYLO.s:1581   .debug_str:00000000000003dd .LASF45
     /tmp/ccyjzYLO.s:1571   .debug_str:000000000000036d .LASF47
     /tmp/ccyjzYLO.s:118    .text:000000000000005c .LFB19
     /tmp/ccyjzYLO.s:173    .text:0000000000000090 .LFE19
     /tmp/ccyjzYLO.s:1525   .debug_str:0000000000000199 .LASF42
     /tmp/ccyjzYLO.s:1374   .debug_loc:0000000000000000 .LLST4
     /tmp/ccyjzYLO.s:1531   .debug_str:00000000000001b3 .LASF43
     /tmp/ccyjzYLO.s:1511   .debug_str:000000000000012f .LASF44
     /tmp/ccyjzYLO.s:1388   .debug_loc:0000000000000039 .LLST5
     /tmp/ccyjzYLO.s:1567   .debug_str:0000000000000348 .LASF46
     /tmp/ccyjzYLO.s:1469   .debug_str:0000000000000000 .LASF48
     /tmp/ccyjzYLO.s:67     .text:0000000000000030 .LFB18
     /tmp/ccyjzYLO.s:112    .text:000000000000005c .LFE18
     /tmp/ccyjzYLO.s:1395   .debug_loc:000000000000005c .LLST2
     /tmp/ccyjzYLO.s:1409   .debug_loc:0000000000000095 .LLST3
     /tmp/ccyjzYLO.s:1589   .debug_str:0000000000000408 .LASF49
     /tmp/ccyjzYLO.s:1593   .debug_str:000000000000044a .LASF50
     /tmp/ccyjzYLO.s:10     .text:0000000000000000 .LFB17
     /tmp/ccyjzYLO.s:61     .text:0000000000000030 .LFE17
     /tmp/ccyjzYLO.s:1537   .debug_str:0000000000000298 .LASF51
     /tmp/ccyjzYLO.s:1416   .debug_loc:00000000000000b8 .LLST0
     /tmp/ccyjzYLO.s:1579   .debug_str:00000000000003ce .LASF52
     /tmp/ccyjzYLO.s:1436   .debug_loc:0000000000000106 .LLST1
     /tmp/ccyjzYLO.s:121    .text:000000000000005c .LVL7
     /tmp/ccyjzYLO.s:160    .text:0000000000000080 .LVL8
     /tmp/ccyjzYLO.s:165    .text:0000000000000084 .LVL9
     /tmp/ccyjzYLO.s:70     .text:0000000000000030 .LVL4
     /tmp/ccyjzYLO.s:99     .text:000000000000004c .LVL5
     /tmp/ccyjzYLO.s:104    .text:0000000000000050 .LVL6
     /tmp/ccyjzYLO.s:14     .text:0000000000000000 .LVL0
     /tmp/ccyjzYLO.s:24     .text:0000000000000010 .LVL1
     /tmp/ccyjzYLO.s:27     .text:0000000000000014 .LVL2
     /tmp/ccyjzYLO.s:50     .text:0000000000000024 .LVL3
     /tmp/ccyjzYLO.s:180    .debug_info:0000000000000000 .Ldebug_info0

NO UNDEFINED SYMBOLS
