GAS LISTING /tmp/cciWlNkH.s 			page 1


   1              		.file	"syscall_c.cpp"
   2              		.option pic
   3              		.option norelax
   4              		.text
   5              	.Ltext0:
   6              		.align	2
   7              		.globl	_Z9mem_allocm
   9              	_Z9mem_allocm:
  10              	.LFB27:
  11              		.file 1 "src/syscall_c.cpp"
   1:src/syscall_c.cpp **** #include "../h/syscall_c.hpp"
   2:src/syscall_c.cpp **** #include "../lib/console.h"
   3:src/syscall_c.cpp **** 
   4:src/syscall_c.cpp **** /**
   5:src/syscall_c.cpp ****  * C API function for allocation on heap
   6:src/syscall_c.cpp ****  * @param size Size in bytes to be allocated
   7:src/syscall_c.cpp ****  * @return pointer to allocated heap space
   8:src/syscall_c.cpp ****  */
   9:src/syscall_c.cpp **** void* mem_alloc(size_t size) {
  12              		.loc 1 9 30
  13              		.cfi_startproc
  14              	.LVL0:
  15 0000 130101FF 		addi	sp,sp,-16
  16              		.cfi_def_cfa_offset 16
  17 0004 23348100 		sd	s0,8(sp)
  18              		.cfi_offset 8, -8
  19 0008 13040101 		addi	s0,sp,16
  20              		.cfi_def_cfa 8, 0
  10:src/syscall_c.cpp ****     size_t size_in_blocks = (size + MEM_BLOCK_SIZE - 1) / MEM_BLOCK_SIZE;
  21              		.loc 1 10 5
  22              		.loc 1 10 52 is_stmt 0
  23 000c 1305F503 		addi	a0,a0,63
  24              	.LVL1:
  25              		.loc 1 10 12
  26 0010 13556500 		srli	a0,a0,6
  27              	.LVL2:
  11:src/syscall_c.cpp ****     
  12:src/syscall_c.cpp ****     __asm__ volatile("mv a1, %0" : : "r"(size_in_blocks)); //send size as argument for ecall
  28              		.loc 1 12 5 is_stmt 1
  29              		.loc 1 12 58 is_stmt 0
  30              	#APP
  31              	# 12 "src/syscall_c.cpp" 1
  13              	    __asm__ volatile("li a0, 0x01"); //send opcode as second argument (0x01 - mem_alloc)
  32              		mv a1, a0
  33              	# 0 "" 2
  34              		.loc 1 13 5 is_stmt 1
  35              		.loc 1 13 36 is_stmt 0
  36              	# 13 "src/syscall_c.cpp" 1
  14              	    __asm__ volatile("ecall");
  37              		li a0, 0x01
  38              	# 0 "" 2
  39              		.loc 1 14 5 is_stmt 1
  40              		.loc 1 14 30 is_stmt 0
  41              	# 14 "src/syscall_c.cpp" 1
  15              	
  16:src/syscall_c.cpp ****     void* ret;
  42              		ecall
GAS LISTING /tmp/cciWlNkH.s 			page 2


  43              	# 0 "" 2
  44              		.loc 1 16 5 is_stmt 1
  17:src/syscall_c.cpp ****     __asm__ volatile("mv %0, a0" : "=r"(ret));
  45              		.loc 1 17 5
  46              		.loc 1 17 46 is_stmt 0
  47              	# 17 "src/syscall_c.cpp" 1
  18              	    return ret;
  48              		mv a0, a0
  49              	# 0 "" 2
  50              	.LVL3:
  51              		.loc 1 18 5 is_stmt 1
  19:src/syscall_c.cpp **** }
  52              		.loc 1 19 1 is_stmt 0
  53              	#NO_APP
  54 0024 03348100 		ld	s0,8(sp)
  55              		.cfi_restore 8
  56              		.cfi_def_cfa 2, 16
  57 0028 13010101 		addi	sp,sp,16
  58              		.cfi_def_cfa_offset 0
  59 002c 67800000 		jr	ra
  60              		.cfi_endproc
  61              	.LFE27:
  63              		.align	2
  64              		.globl	_Z8mem_freePv
  66              	_Z8mem_freePv:
  67              	.LFB28:
  20:src/syscall_c.cpp **** 
  21:src/syscall_c.cpp **** /**
  22:src/syscall_c.cpp ****  * C API function to free allocated space
  23:src/syscall_c.cpp ****  * @param ptr pointer to heap space allocated by mem_alloc
  24:src/syscall_c.cpp ****  * @return negative error code or 0 for successfull free
  25:src/syscall_c.cpp ****  */
  26:src/syscall_c.cpp **** int mem_free (void* ptr) {
  68              		.loc 1 26 26 is_stmt 1
  69              		.cfi_startproc
  70              	.LVL4:
  71 0030 130101FF 		addi	sp,sp,-16
  72              		.cfi_def_cfa_offset 16
  73 0034 23348100 		sd	s0,8(sp)
  74              		.cfi_offset 8, -8
  75 0038 13040101 		addi	s0,sp,16
  76              		.cfi_def_cfa 8, 0
  27:src/syscall_c.cpp ****     __asm__ volatile("mv a1, %0" : : "r"(ptr)); //send pointer as argument for ecall
  77              		.loc 1 27 5
  78              		.loc 1 27 47 is_stmt 0
  79              	#APP
  80              	# 27 "src/syscall_c.cpp" 1
  28              	    __asm__ volatile("li a0, 0x02"); //send opcode as second argument (0x02 - mem_free)
  81              		mv a1, a0
  82              	# 0 "" 2
  83              		.loc 1 28 5 is_stmt 1
  84              		.loc 1 28 36 is_stmt 0
  85              	# 28 "src/syscall_c.cpp" 1
  29              	    __asm__ volatile("ecall");
  86              		li a0, 0x02
  87              	# 0 "" 2
  88              		.loc 1 29 5 is_stmt 1
GAS LISTING /tmp/cciWlNkH.s 			page 3


  89              		.loc 1 29 30 is_stmt 0
  90              	# 29 "src/syscall_c.cpp" 1
  30              	
  31:src/syscall_c.cpp ****     uint64 ret;
  91              		ecall
  92              	# 0 "" 2
  93              		.loc 1 31 5 is_stmt 1
  32:src/syscall_c.cpp ****     __asm__ volatile("mv %0, a0" : "=r"(ret));
  94              		.loc 1 32 5
  95              		.loc 1 32 46 is_stmt 0
  96              	# 32 "src/syscall_c.cpp" 1
  33              	    return (int)ret;
  97              		mv a0, a0
  98              	# 0 "" 2
  99              	.LVL5:
 100              		.loc 1 33 5 is_stmt 1
  34:src/syscall_c.cpp **** }
 101              		.loc 1 34 1 is_stmt 0
 102              	#NO_APP
 103 004c 1B050500 		sext.w	a0,a0
 104              	.LVL6:
 105 0050 03348100 		ld	s0,8(sp)
 106              		.cfi_restore 8
 107              		.cfi_def_cfa 2, 16
 108 0054 13010101 		addi	sp,sp,16
 109              		.cfi_def_cfa_offset 0
 110 0058 67800000 		jr	ra
 111              		.cfi_endproc
 112              	.LFE28:
 114              		.align	2
 115              		.globl	_Z13thread_createPP3TCBPFvPvES2_
 117              	_Z13thread_createPP3TCBPFvPvES2_:
 118              	.LFB29:
  35:src/syscall_c.cpp **** 
  36:src/syscall_c.cpp **** /**
  37:src/syscall_c.cpp ****  * C API function to start thread on start_routine function
  38:src/syscall_c.cpp ****  * @param arg pointer to the function argument
  39:src/syscall_c.cpp ****  * @param handle if created successfully here is written the handle of new thread
  40:src/syscall_c.cpp ****  * @return negative error code or 0 for successfull free
  41:src/syscall_c.cpp ****  */
  42:src/syscall_c.cpp **** int thread_create(thread_t* handle, void (*start_routine)(void*), void* arg) {
 119              		.loc 1 42 78 is_stmt 1
 120              		.cfi_startproc
 121              	.LVL7:
 122 005c 130101FF 		addi	sp,sp,-16
 123              		.cfi_def_cfa_offset 16
 124 0060 23348100 		sd	s0,8(sp)
 125              		.cfi_offset 8, -8
 126 0064 13040101 		addi	s0,sp,16
 127              		.cfi_def_cfa 8, 0
  43:src/syscall_c.cpp **** 
  44:src/syscall_c.cpp ****     __asm__ volatile("mv a7, %0" : : "r"(arg));
 128              		.loc 1 44 5
 129              		.loc 1 44 47 is_stmt 0
 130              	#APP
 131              	# 44 "src/syscall_c.cpp" 1
  45              	    __asm__ volatile("mv a2, %0" : : "r"(start_routine));
GAS LISTING /tmp/cciWlNkH.s 			page 4


 132              		mv a7, a2
 133              	# 0 "" 2
 134              		.loc 1 45 5 is_stmt 1
 135              		.loc 1 45 57 is_stmt 0
 136              	# 45 "src/syscall_c.cpp" 1
  46              	    __asm__ volatile("mv a1, %0" : : "r"(handle));
 137              		mv a2, a1
 138              	# 0 "" 2
 139              		.loc 1 46 5 is_stmt 1
 140              		.loc 1 46 50 is_stmt 0
 141              	# 46 "src/syscall_c.cpp" 1
  47              	    __asm__ volatile("li a0, 0x11");
 142              		mv a1, a0
 143              	# 0 "" 2
 144              		.loc 1 47 5 is_stmt 1
 145              		.loc 1 47 36 is_stmt 0
 146              	# 47 "src/syscall_c.cpp" 1
  48              	    __asm__ volatile("ecall");
 147              		li a0, 0x11
 148              	# 0 "" 2
 149              		.loc 1 48 5 is_stmt 1
 150              		.loc 1 48 30 is_stmt 0
 151              	# 48 "src/syscall_c.cpp" 1
  49              	
  50:src/syscall_c.cpp ****     uint64 returnValue;
 152              		ecall
 153              	# 0 "" 2
 154              		.loc 1 50 5 is_stmt 1
  51:src/syscall_c.cpp ****     __asm__ volatile("mv %0, a0" : "=r"(returnValue));
 155              		.loc 1 51 5
 156              		.loc 1 51 54 is_stmt 0
 157              	# 51 "src/syscall_c.cpp" 1
  52              	    return (int)returnValue;
 158              		mv a0, a0
 159              	# 0 "" 2
 160              	.LVL8:
 161              		.loc 1 52 5 is_stmt 1
  53:src/syscall_c.cpp **** }
 162              		.loc 1 53 1 is_stmt 0
 163              	#NO_APP
 164 0080 1B050500 		sext.w	a0,a0
 165              	.LVL9:
 166 0084 03348100 		ld	s0,8(sp)
 167              		.cfi_restore 8
 168              		.cfi_def_cfa 2, 16
 169 0088 13010101 		addi	sp,sp,16
 170              		.cfi_def_cfa_offset 0
 171 008c 67800000 		jr	ra
 172              		.cfi_endproc
 173              	.LFE29:
 175              		.align	2
 176              		.globl	_Z11thread_exitv
 178              	_Z11thread_exitv:
 179              	.LFB30:
  54:src/syscall_c.cpp **** 
  55:src/syscall_c.cpp **** /**
  56:src/syscall_c.cpp ****  * C API function to terminate current thread
GAS LISTING /tmp/cciWlNkH.s 			page 5


  57:src/syscall_c.cpp ****  * @return negative error code or 0 for successfull free
  58:src/syscall_c.cpp ****  */
  59:src/syscall_c.cpp **** int thread_exit() {
 180              		.loc 1 59 19 is_stmt 1
 181              		.cfi_startproc
 182 0090 130101FF 		addi	sp,sp,-16
 183              		.cfi_def_cfa_offset 16
 184 0094 23348100 		sd	s0,8(sp)
 185              		.cfi_offset 8, -8
 186 0098 13040101 		addi	s0,sp,16
 187              		.cfi_def_cfa 8, 0
  60:src/syscall_c.cpp ****     __asm__ volatile("li a0, 0x12");
 188              		.loc 1 60 5
 189              		.loc 1 60 36 is_stmt 0
 190              	#APP
 191              	# 60 "src/syscall_c.cpp" 1
  61              	    __asm__ volatile("ecall");
 192              		li a0, 0x12
 193              	# 0 "" 2
 194              		.loc 1 61 5 is_stmt 1
 195              		.loc 1 61 30 is_stmt 0
 196              	# 61 "src/syscall_c.cpp" 1
  62              	
  63:src/syscall_c.cpp ****     uint64 returnValue;
 197              		ecall
 198              	# 0 "" 2
 199              		.loc 1 63 5 is_stmt 1
  64:src/syscall_c.cpp ****     __asm__ volatile("mv %0, a0" : "=r"(returnValue));
 200              		.loc 1 64 5
 201              		.loc 1 64 54 is_stmt 0
 202              	# 64 "src/syscall_c.cpp" 1
  65              	    return (int)returnValue;
 203              		mv a0, a0
 204              	# 0 "" 2
 205              	.LVL10:
 206              		.loc 1 65 5 is_stmt 1
  66:src/syscall_c.cpp **** }
 207              		.loc 1 66 1 is_stmt 0
 208              	#NO_APP
 209 00a8 1B050500 		sext.w	a0,a0
 210              	.LVL11:
 211 00ac 03348100 		ld	s0,8(sp)
 212              		.cfi_restore 8
 213              		.cfi_def_cfa 2, 16
 214 00b0 13010101 		addi	sp,sp,16
 215              		.cfi_def_cfa_offset 0
 216 00b4 67800000 		jr	ra
 217              		.cfi_endproc
 218              	.LFE30:
 220              		.align	2
 221              		.globl	_Z15thread_dispatchv
 223              	_Z15thread_dispatchv:
 224              	.LFB31:
  67:src/syscall_c.cpp **** 
  68:src/syscall_c.cpp **** /**
  69:src/syscall_c.cpp ****  * C API function to potentially switch to another thread
  70:src/syscall_c.cpp ****  */
GAS LISTING /tmp/cciWlNkH.s 			page 6


  71:src/syscall_c.cpp **** void thread_dispatch (){
 225              		.loc 1 71 24 is_stmt 1
 226              		.cfi_startproc
 227 00b8 130101FF 		addi	sp,sp,-16
 228              		.cfi_def_cfa_offset 16
 229 00bc 23348100 		sd	s0,8(sp)
 230              		.cfi_offset 8, -8
 231 00c0 13040101 		addi	s0,sp,16
 232              		.cfi_def_cfa 8, 0
  72:src/syscall_c.cpp ****     __asm__ volatile("li a0, 0x13");
 233              		.loc 1 72 5
 234              		.loc 1 72 36 is_stmt 0
 235              	#APP
 236              	# 72 "src/syscall_c.cpp" 1
  73              	    __asm__ volatile ("ecall");
 237              		li a0, 0x13
 238              	# 0 "" 2
 239              		.loc 1 73 5 is_stmt 1
 240              		.loc 1 73 31 is_stmt 0
 241              	# 73 "src/syscall_c.cpp" 1
  74              	}
 242              		ecall
 243              	# 0 "" 2
 244              		.loc 1 74 1
 245              	#NO_APP
 246 00cc 03348100 		ld	s0,8(sp)
 247              		.cfi_restore 8
 248              		.cfi_def_cfa 2, 16
 249 00d0 13010101 		addi	sp,sp,16
 250              		.cfi_def_cfa_offset 0
 251 00d4 67800000 		jr	ra
 252              		.cfi_endproc
 253              	.LFE31:
 255              		.align	2
 256              		.globl	_Z8sem_openPP9Semaphorej
 258              	_Z8sem_openPP9Semaphorej:
 259              	.LFB32:
  75:src/syscall_c.cpp **** 
  76:src/syscall_c.cpp **** /**
  77:src/syscall_c.cpp ****  * C API function to open a semaphore
  78:src/syscall_c.cpp ****  * @param handle pointer to semaphore handle
  79:src/syscall_c.cpp ****  * @param init initial value of semaphore
  80:src/syscall_c.cpp ****  * @return negative error code or 0 for successfull free
  81:src/syscall_c.cpp ****  */
  82:src/syscall_c.cpp **** int sem_open(sem_t* handle, unsigned init) {
 260              		.loc 1 82 44 is_stmt 1
 261              		.cfi_startproc
 262              	.LVL12:
 263 00d8 130101FF 		addi	sp,sp,-16
 264              		.cfi_def_cfa_offset 16
 265 00dc 23348100 		sd	s0,8(sp)
 266              		.cfi_offset 8, -8
 267 00e0 13040101 		addi	s0,sp,16
 268              		.cfi_def_cfa 8, 0
  83:src/syscall_c.cpp ****     __asm__ volatile ("mv a2, %0" : : "r" (init));
 269              		.loc 1 83 5
 270              		.loc 1 83 50 is_stmt 0
GAS LISTING /tmp/cciWlNkH.s 			page 7


 271              	#APP
 272              	# 83 "src/syscall_c.cpp" 1
  84              	    __asm__ volatile ("mv a1, %0" : : "r" (handle));
 273              		mv a2, a1
 274              	# 0 "" 2
 275              		.loc 1 84 5 is_stmt 1
 276              		.loc 1 84 52 is_stmt 0
 277              	# 84 "src/syscall_c.cpp" 1
  85              	    __asm__ volatile("li a0, 0x21");
 278              		mv a1, a0
 279              	# 0 "" 2
 280              		.loc 1 85 5 is_stmt 1
 281              		.loc 1 85 36 is_stmt 0
 282              	# 85 "src/syscall_c.cpp" 1
  86              	    __asm__ volatile ("ecall");
 283              		li a0, 0x21
 284              	# 0 "" 2
 285              		.loc 1 86 5 is_stmt 1
 286              		.loc 1 86 31 is_stmt 0
 287              	# 86 "src/syscall_c.cpp" 1
  87              	
  88:src/syscall_c.cpp ****     uint64 returnValue;
 288              		ecall
 289              	# 0 "" 2
 290              		.loc 1 88 5 is_stmt 1
  89:src/syscall_c.cpp ****     __asm__ volatile("mv %0, a0" : "=r"(returnValue));
 291              		.loc 1 89 5
 292              		.loc 1 89 54 is_stmt 0
 293              	# 89 "src/syscall_c.cpp" 1
  90              	    return (int)returnValue;
 294              		mv a0, a0
 295              	# 0 "" 2
 296              	.LVL13:
 297              		.loc 1 90 5 is_stmt 1
  91:src/syscall_c.cpp **** }...
 298              		.loc 1 91 1 is_stmt 0
 299              	#NO_APP
 300 00f8 1B050500 		sext.w	a0,a0
 301              	.LVL14:
 302 00fc 03348100 		ld	s0,8(sp)
 303              		.cfi_restore 8
 304              		.cfi_def_cfa 2, 16
 305 0100 13010101 		addi	sp,sp,16
 306              		.cfi_def_cfa_offset 0
 307 0104 67800000 		jr	ra
 308              		.cfi_endproc
 309              	.LFE32:
 311              	.Letext0:
 312              		.file 2 "src/../h/../lib/hw.h"
 313              		.file 3 "src/../h/list.hpp"
 314              		.file 4 "src/../h/tcb.hpp"
 315              		.file 5 "src/../h/semaphore.hpp"
 316              		.file 6 "src/../h/syscall_c.hpp"
GAS LISTING /tmp/cciWlNkH.s 			page 8


DEFINED SYMBOLS
                            *ABS*:0000000000000000 syscall_c.cpp
     /tmp/cciWlNkH.s:9      .text:0000000000000000 _Z9mem_allocm
     /tmp/cciWlNkH.s:13     .text:0000000000000000 .L0 
     /tmp/cciWlNkH.s:15     .text:0000000000000000 .L0 
     /tmp/cciWlNkH.s:16     .text:0000000000000004 .L0 
     /tmp/cciWlNkH.s:18     .text:0000000000000008 .L0 
     /tmp/cciWlNkH.s:20     .text:000000000000000c .L0 
     /tmp/cciWlNkH.s:22     .text:000000000000000c .L0 
     /tmp/cciWlNkH.s:23     .text:000000000000000c .L0 
     /tmp/cciWlNkH.s:26     .text:0000000000000010 .L0 
     /tmp/cciWlNkH.s:29     .text:0000000000000014 .L0 
   src/syscall_c.cpp:12     .text:0000000000000014 .L0 
     /tmp/cciWlNkH.s:35     .text:0000000000000018 .L0 
   src/syscall_c.cpp:13     .text:0000000000000018 .L0 
     /tmp/cciWlNkH.s:40     .text:000000000000001c .L0 
   src/syscall_c.cpp:14     .text:000000000000001c .L0 
     /tmp/cciWlNkH.s:45     .text:0000000000000020 .L0 
     /tmp/cciWlNkH.s:46     .text:0000000000000020 .L0 
   src/syscall_c.cpp:17     .text:0000000000000020 .L0 
     /tmp/cciWlNkH.s:52     .text:0000000000000024 .L0 
     /tmp/cciWlNkH.s:54     .text:0000000000000024 .L0 
     /tmp/cciWlNkH.s:55     .text:0000000000000028 .L0 
     /tmp/cciWlNkH.s:56     .text:0000000000000028 .L0 
     /tmp/cciWlNkH.s:58     .text:000000000000002c .L0 
     /tmp/cciWlNkH.s:60     .text:0000000000000030 .L0 
     /tmp/cciWlNkH.s:66     .text:0000000000000030 _Z8mem_freePv
     /tmp/cciWlNkH.s:69     .text:0000000000000030 .L0 
     /tmp/cciWlNkH.s:71     .text:0000000000000030 .L0 
     /tmp/cciWlNkH.s:72     .text:0000000000000034 .L0 
     /tmp/cciWlNkH.s:74     .text:0000000000000038 .L0 
     /tmp/cciWlNkH.s:76     .text:000000000000003c .L0 
     /tmp/cciWlNkH.s:78     .text:000000000000003c .L0 
   src/syscall_c.cpp:27     .text:000000000000003c .L0 
     /tmp/cciWlNkH.s:84     .text:0000000000000040 .L0 
   src/syscall_c.cpp:28     .text:0000000000000040 .L0 
     /tmp/cciWlNkH.s:89     .text:0000000000000044 .L0 
   src/syscall_c.cpp:29     .text:0000000000000044 .L0 
     /tmp/cciWlNkH.s:94     .text:0000000000000048 .L0 
     /tmp/cciWlNkH.s:95     .text:0000000000000048 .L0 
   src/syscall_c.cpp:32     .text:0000000000000048 .L0 
     /tmp/cciWlNkH.s:101    .text:000000000000004c .L0 
     /tmp/cciWlNkH.s:103    .text:000000000000004c .L0 
     /tmp/cciWlNkH.s:106    .text:0000000000000054 .L0 
     /tmp/cciWlNkH.s:107    .text:0000000000000054 .L0 
     /tmp/cciWlNkH.s:109    .text:0000000000000058 .L0 
     /tmp/cciWlNkH.s:111    .text:000000000000005c .L0 
     /tmp/cciWlNkH.s:117    .text:000000000000005c _Z13thread_createPP3TCBPFvPvES2_
     /tmp/cciWlNkH.s:120    .text:000000000000005c .L0 
     /tmp/cciWlNkH.s:122    .text:000000000000005c .L0 
     /tmp/cciWlNkH.s:123    .text:0000000000000060 .L0 
     /tmp/cciWlNkH.s:125    .text:0000000000000064 .L0 
     /tmp/cciWlNkH.s:127    .text:0000000000000068 .L0 
     /tmp/cciWlNkH.s:129    .text:0000000000000068 .L0 
   src/syscall_c.cpp:44     .text:0000000000000068 .L0 
     /tmp/cciWlNkH.s:135    .text:000000000000006c .L0 
   src/syscall_c.cpp:45     .text:000000000000006c .L0 
GAS LISTING /tmp/cciWlNkH.s 			page 9


     /tmp/cciWlNkH.s:140    .text:0000000000000070 .L0 
   src/syscall_c.cpp:46     .text:0000000000000070 .L0 
     /tmp/cciWlNkH.s:145    .text:0000000000000074 .L0 
   src/syscall_c.cpp:47     .text:0000000000000074 .L0 
     /tmp/cciWlNkH.s:150    .text:0000000000000078 .L0 
   src/syscall_c.cpp:48     .text:0000000000000078 .L0 
     /tmp/cciWlNkH.s:155    .text:000000000000007c .L0 
     /tmp/cciWlNkH.s:156    .text:000000000000007c .L0 
   src/syscall_c.cpp:51     .text:000000000000007c .L0 
     /tmp/cciWlNkH.s:162    .text:0000000000000080 .L0 
     /tmp/cciWlNkH.s:164    .text:0000000000000080 .L0 
     /tmp/cciWlNkH.s:167    .text:0000000000000088 .L0 
     /tmp/cciWlNkH.s:168    .text:0000000000000088 .L0 
     /tmp/cciWlNkH.s:170    .text:000000000000008c .L0 
     /tmp/cciWlNkH.s:172    .text:0000000000000090 .L0 
     /tmp/cciWlNkH.s:178    .text:0000000000000090 _Z11thread_exitv
     /tmp/cciWlNkH.s:181    .text:0000000000000090 .L0 
     /tmp/cciWlNkH.s:182    .text:0000000000000090 .L0 
     /tmp/cciWlNkH.s:183    .text:0000000000000094 .L0 
     /tmp/cciWlNkH.s:185    .text:0000000000000098 .L0 
     /tmp/cciWlNkH.s:187    .text:000000000000009c .L0 
     /tmp/cciWlNkH.s:189    .text:000000000000009c .L0 
   src/syscall_c.cpp:60     .text:000000000000009c .L0 
     /tmp/cciWlNkH.s:195    .text:00000000000000a0 .L0 
   src/syscall_c.cpp:61     .text:00000000000000a0 .L0 
     /tmp/cciWlNkH.s:200    .text:00000000000000a4 .L0 
     /tmp/cciWlNkH.s:201    .text:00000000000000a4 .L0 
   src/syscall_c.cpp:64     .text:00000000000000a4 .L0 
     /tmp/cciWlNkH.s:207    .text:00000000000000a8 .L0 
     /tmp/cciWlNkH.s:209    .text:00000000000000a8 .L0 
     /tmp/cciWlNkH.s:212    .text:00000000000000b0 .L0 
     /tmp/cciWlNkH.s:213    .text:00000000000000b0 .L0 
     /tmp/cciWlNkH.s:215    .text:00000000000000b4 .L0 
     /tmp/cciWlNkH.s:217    .text:00000000000000b8 .L0 
     /tmp/cciWlNkH.s:223    .text:00000000000000b8 _Z15thread_dispatchv
     /tmp/cciWlNkH.s:226    .text:00000000000000b8 .L0 
     /tmp/cciWlNkH.s:227    .text:00000000000000b8 .L0 
     /tmp/cciWlNkH.s:228    .text:00000000000000bc .L0 
     /tmp/cciWlNkH.s:230    .text:00000000000000c0 .L0 
     /tmp/cciWlNkH.s:232    .text:00000000000000c4 .L0 
     /tmp/cciWlNkH.s:234    .text:00000000000000c4 .L0 
   src/syscall_c.cpp:72     .text:00000000000000c4 .L0 
     /tmp/cciWlNkH.s:240    .text:00000000000000c8 .L0 
   src/syscall_c.cpp:73     .text:00000000000000c8 .L0 
     /tmp/cciWlNkH.s:246    .text:00000000000000cc .L0 
     /tmp/cciWlNkH.s:247    .text:00000000000000d0 .L0 
     /tmp/cciWlNkH.s:248    .text:00000000000000d0 .L0 
     /tmp/cciWlNkH.s:250    .text:00000000000000d4 .L0 
     /tmp/cciWlNkH.s:252    .text:00000000000000d8 .L0 
     /tmp/cciWlNkH.s:258    .text:00000000000000d8 _Z8sem_openPP9Semaphorej
     /tmp/cciWlNkH.s:261    .text:00000000000000d8 .L0 
     /tmp/cciWlNkH.s:263    .text:00000000000000d8 .L0 
     /tmp/cciWlNkH.s:264    .text:00000000000000dc .L0 
     /tmp/cciWlNkH.s:266    .text:00000000000000e0 .L0 
     /tmp/cciWlNkH.s:268    .text:00000000000000e4 .L0 
     /tmp/cciWlNkH.s:270    .text:00000000000000e4 .L0 
   src/syscall_c.cpp:83     .text:00000000000000e4 .L0 
GAS LISTING /tmp/cciWlNkH.s 			page 10


     /tmp/cciWlNkH.s:276    .text:00000000000000e8 .L0 
   src/syscall_c.cpp:84     .text:00000000000000e8 .L0 
     /tmp/cciWlNkH.s:281    .text:00000000000000ec .L0 
   src/syscall_c.cpp:85     .text:00000000000000ec .L0 
     /tmp/cciWlNkH.s:286    .text:00000000000000f0 .L0 
   src/syscall_c.cpp:86     .text:00000000000000f0 .L0 
     /tmp/cciWlNkH.s:291    .text:00000000000000f4 .L0 
     /tmp/cciWlNkH.s:292    .text:00000000000000f4 .L0 
   src/syscall_c.cpp:89     .text:00000000000000f4 .L0 
     /tmp/cciWlNkH.s:298    .text:00000000000000f8 .L0 
     /tmp/cciWlNkH.s:300    .text:00000000000000f8 .L0 
     /tmp/cciWlNkH.s:303    .text:0000000000000100 .L0 
     /tmp/cciWlNkH.s:304    .text:0000000000000100 .L0 
     /tmp/cciWlNkH.s:306    .text:0000000000000104 .L0 
     /tmp/cciWlNkH.s:308    .text:0000000000000108 .L0 
     /tmp/cciWlNkH.s:317    .text:0000000000000108 .L0 
     /tmp/cciWlNkH.s:1281   .debug_abbrev:0000000000000000 .Ldebug_abbrev0
     /tmp/cciWlNkH.s:2508   .debug_str:000000000000063c .LASF113
     /tmp/cciWlNkH.s:2400   .debug_str:0000000000000341 .LASF114
     /tmp/cciWlNkH.s:2452   .debug_str:0000000000000493 .LASF115
     /tmp/cciWlNkH.s:5      .text:0000000000000000 .Ltext0
     /tmp/cciWlNkH.s:311    .text:0000000000000108 .Letext0
     /tmp/cciWlNkH.s:2290   .debug_line:0000000000000000 .Ldebug_line0
     /tmp/cciWlNkH.s:2438   .debug_str:000000000000042f .LASF0
     /tmp/cciWlNkH.s:2450   .debug_str:0000000000000480 .LASF1
     /tmp/cciWlNkH.s:2428   .debug_str:00000000000003e8 .LASF2
     /tmp/cciWlNkH.s:2396   .debug_str:000000000000032f .LASF4
     /tmp/cciWlNkH.s:2492   .debug_str:00000000000005d6 .LASF3
     /tmp/cciWlNkH.s:2316   .debug_str:00000000000000cd .LASF5
     /tmp/cciWlNkH.s:2456   .debug_str:00000000000004be .LASF6
     /tmp/cciWlNkH.s:2436   .debug_str:000000000000041c .LASF7
     /tmp/cciWlNkH.s:2518   .debug_str:0000000000000743 .LASF8
     /tmp/cciWlNkH.s:2378   .debug_str:000000000000028e .LASF9
     /tmp/cciWlNkH.s:2466   .debug_str:0000000000000525 .LASF10
     /tmp/cciWlNkH.s:2512   .debug_str:000000000000070c .LASF11
     /tmp/cciWlNkH.s:2320   .debug_str:00000000000000df .LASF12
     /tmp/cciWlNkH.s:2302   .debug_str:000000000000005a .LASF13
     /tmp/cciWlNkH.s:2332   .debug_str:0000000000000124 .LASF14
     /tmp/cciWlNkH.s:2488   .debug_str:00000000000005ba .LASF15
     /tmp/cciWlNkH.s:2342   .debug_str:0000000000000178 .LASF16
     /tmp/cciWlNkH.s:2416   .debug_str:00000000000003b4 .LASF34
     /tmp/cciWlNkH.s:2418   .debug_str:00000000000003be .LASF116
     /tmp/cciWlNkH.s:2348   .debug_str:00000000000001ac .LASF17
     /tmp/cciWlNkH.s:2422   .debug_str:00000000000003d0 .LASF18
     /tmp/cciWlNkH.s:2394   .debug_str:000000000000032a .LASF19
     /tmp/cciWlNkH.s:2504   .debug_str:0000000000000620 .LASF21
     /tmp/cciWlNkH.s:2486   .debug_str:00000000000005a3 .LASF26
     /tmp/cciWlNkH.s:2434   .debug_str:0000000000000412 .LASF95
     /tmp/cciWlNkH.s:2384   .debug_str:00000000000002b4 .LASF97
     /tmp/cciWlNkH.s:2506   .debug_str:0000000000000633 .LASF20
     /tmp/cciWlNkH.s:2354   .debug_str:00000000000001e3 .LASF22
     /tmp/cciWlNkH.s:2376   .debug_str:0000000000000286 .LASF23
     /tmp/cciWlNkH.s:2350   .debug_str:00000000000001b1 .LASF24
     /tmp/cciWlNkH.s:2510   .debug_str:0000000000000700 .LASF25
     /tmp/cciWlNkH.s:2298   .debug_str:0000000000000023 .LASF27
     /tmp/cciWlNkH.s:2330   .debug_str:000000000000011a .LASF28
     /tmp/cciWlNkH.s:2408   .debug_str:000000000000036d .LASF29
GAS LISTING /tmp/cciWlNkH.s 			page 11


     /tmp/cciWlNkH.s:2444   .debug_str:000000000000044b .LASF30
     /tmp/cciWlNkH.s:2310   .debug_str:0000000000000088 .LASF31
     /tmp/cciWlNkH.s:2412   .debug_str:000000000000039d .LASF32
     /tmp/cciWlNkH.s:2534   .debug_str:0000000000000798 .LASF33
     /tmp/cciWlNkH.s:2306   .debug_str:0000000000000074 .LASF117
     /tmp/cciWlNkH.s:2356   .debug_str:0000000000000200 .LASF35
     /tmp/cciWlNkH.s:2474   .debug_str:0000000000000554 .LASF36
     /tmp/cciWlNkH.s:2458   .debug_str:00000000000004d1 .LASF37
     /tmp/cciWlNkH.s:2336   .debug_str:0000000000000140 .LASF38
     /tmp/cciWlNkH.s:2430   .debug_str:00000000000003f6 .LASF39
     /tmp/cciWlNkH.s:2390   .debug_str:00000000000002eb .LASF40
     /tmp/cciWlNkH.s:2304   .debug_str:000000000000006a .LASF41
     /tmp/cciWlNkH.s:2410   .debug_str:0000000000000388 .LASF42
     /tmp/cciWlNkH.s:2398   .debug_str:0000000000000336 .LASF43
     /tmp/cciWlNkH.s:2516   .debug_str:000000000000072d .LASF44
     /tmp/cciWlNkH.s:2420   .debug_str:00000000000003c3 .LASF45
     /tmp/cciWlNkH.s:2314   .debug_str:00000000000000b4 .LASF46
     /tmp/cciWlNkH.s:2406   .debug_str:0000000000000360 .LASF47
     /tmp/cciWlNkH.s:2448   .debug_str:0000000000000460 .LASF48
     /tmp/cciWlNkH.s:2478   .debug_str:000000000000056d .LASF118
     /tmp/cciWlNkH.s:2490   .debug_str:00000000000005d0 .LASF119
     /tmp/cciWlNkH.s:2432   .debug_str:0000000000000402 .LASF120
     /tmp/cciWlNkH.s:2360   .debug_str:000000000000020b .LASF121
     /tmp/cciWlNkH.s:2538   .debug_str:00000000000007c2 .LASF122
     /tmp/cciWlNkH.s:2402   .debug_str:0000000000000353 .LASF49
     /tmp/cciWlNkH.s:2442   .debug_str:0000000000000445 .LASF50
     /tmp/cciWlNkH.s:2404   .debug_str:0000000000000358 .LASF51
     /tmp/cciWlNkH.s:2446   .debug_str:0000000000000456 .LASF52
     /tmp/cciWlNkH.s:2498   .debug_str:00000000000005fe .LASF53
     /tmp/cciWlNkH.s:2294   .debug_str:0000000000000009 .LASF54
     /tmp/cciWlNkH.s:2388   .debug_str:00000000000002e4 .LASF55
     /tmp/cciWlNkH.s:2414   .debug_str:00000000000003a6 .LASF60
     /tmp/cciWlNkH.s:2386   .debug_str:00000000000002cb .LASF62
     /tmp/cciWlNkH.s:2528   .debug_str:0000000000000776 .LASF56
     /tmp/cciWlNkH.s:2392   .debug_str:0000000000000302 .LASF58
     /tmp/cciWlNkH.s:2496   .debug_str:00000000000005f9 .LASF57
     /tmp/cciWlNkH.s:2470   .debug_str:000000000000053a .LASF59
     /tmp/cciWlNkH.s:2440   .debug_str:000000000000043c .LASF61
     /tmp/cciWlNkH.s:2364   .debug_str:000000000000022d .LASF63
     /tmp/cciWlNkH.s:2324   .debug_str:00000000000000f4 .LASF64
     /tmp/cciWlNkH.s:2540   .debug_str:00000000000007d4 .LASF85
     /tmp/cciWlNkH.s:2494   .debug_str:00000000000005e8 .LASF123
     /tmp/cciWlNkH.s:2318   .debug_str:00000000000000d4 .LASF65
     /tmp/cciWlNkH.s:2530   .debug_str:0000000000000784 .LASF66
     /tmp/cciWlNkH.s:2366   .debug_str:0000000000000240 .LASF67
     /tmp/cciWlNkH.s:2524   .debug_str:0000000000000766 .LASF68
     /tmp/cciWlNkH.s:2514   .debug_str:000000000000071b .LASF69
     /tmp/cciWlNkH.s:2322   .debug_str:00000000000000ef .LASF70
     /tmp/cciWlNkH.s:2482   .debug_str:0000000000000577 .LASF71
     /tmp/cciWlNkH.s:2460   .debug_str:00000000000004dc .LASF72
     /tmp/cciWlNkH.s:2484   .debug_str:000000000000058c .LASF73
     /tmp/cciWlNkH.s:2536   .debug_str:00000000000007b2 .LASF74
     /tmp/cciWlNkH.s:2462   .debug_str:00000000000004e3 .LASF75
     /tmp/cciWlNkH.s:2532   .debug_str:000000000000078f .LASF76
     /tmp/cciWlNkH.s:2362   .debug_str:0000000000000213 .LASF77
     /tmp/cciWlNkH.s:2526   .debug_str:0000000000000770 .LASF78
     /tmp/cciWlNkH.s:2352   .debug_str:00000000000001cd .LASF79
GAS LISTING /tmp/cciWlNkH.s 			page 12


     /tmp/cciWlNkH.s:2326   .debug_str:00000000000000ff .LASF80
     /tmp/cciWlNkH.s:2296   .debug_str:0000000000000011 .LASF81
     /tmp/cciWlNkH.s:2374   .debug_str:0000000000000276 .LASF82
     /tmp/cciWlNkH.s:2500   .debug_str:0000000000000607 .LASF83
     /tmp/cciWlNkH.s:2344   .debug_str:000000000000018e .LASF84
     /tmp/cciWlNkH.s:2338   .debug_str:0000000000000157 .LASF86
     /tmp/cciWlNkH.s:2542   .debug_str:00000000000007ea .LASF87
     /tmp/cciWlNkH.s:2380   .debug_str:000000000000029c .LASF88
     /tmp/cciWlNkH.s:2426   .debug_str:00000000000003e1 .LASF89
     /tmp/cciWlNkH.s:2468   .debug_str:0000000000000534 .LASF90
     /tmp/cciWlNkH.s:2292   .debug_str:0000000000000000 .LASF91
     /tmp/cciWlNkH.s:2328   .debug_str:000000000000010c .LASF92
     /tmp/cciWlNkH.s:2476   .debug_str:0000000000000560 .LASF93
     /tmp/cciWlNkH.s:2358   .debug_str:0000000000000205 .LASF94
     /tmp/cciWlNkH.s:2522   .debug_str:000000000000075d .LASF96
     /tmp/cciWlNkH.s:2300   .debug_str:0000000000000041 .LASF98
     /tmp/cciWlNkH.s:259    .text:00000000000000d8 .LFB32
     /tmp/cciWlNkH.s:309    .text:0000000000000108 .LFE32
     /tmp/cciWlNkH.s:2502   .debug_str:0000000000000619 .LASF99
     /tmp/cciWlNkH.s:2169   .debug_loc:0000000000000000 .LLST7
     /tmp/cciWlNkH.s:2382   .debug_str:00000000000002af .LASF100
     /tmp/cciWlNkH.s:2424   .debug_str:00000000000003d5 .LASF101
     /tmp/cciWlNkH.s:2183   .debug_loc:0000000000000039 .LLST8
     /tmp/cciWlNkH.s:2334   .debug_str:0000000000000130 .LASF124
     /tmp/cciWlNkH.s:2368   .debug_str:0000000000000245 .LASF125
     /tmp/cciWlNkH.s:224    .text:00000000000000b8 .LFB31
     /tmp/cciWlNkH.s:253    .text:00000000000000d8 .LFE31
     /tmp/cciWlNkH.s:2308   .debug_str:000000000000007c .LASF102
     /tmp/cciWlNkH.s:2454   .debug_str:00000000000004ad .LASF103
     /tmp/cciWlNkH.s:179    .text:0000000000000090 .LFB30
     /tmp/cciWlNkH.s:218    .text:00000000000000b8 .LFE30
     /tmp/cciWlNkH.s:2190   .debug_loc:000000000000005c .LLST6
     /tmp/cciWlNkH.s:2346   .debug_str:000000000000019e .LASF104
     /tmp/cciWlNkH.s:2464   .debug_str:0000000000000504 .LASF105
     /tmp/cciWlNkH.s:118    .text:000000000000005c .LFB29
     /tmp/cciWlNkH.s:173    .text:0000000000000090 .LFE29
     /tmp/cciWlNkH.s:2197   .debug_loc:000000000000007f .LLST4
     /tmp/cciWlNkH.s:2372   .debug_str:0000000000000268 .LASF106
     /tmp/cciWlNkH.s:2211   .debug_loc:00000000000000b8 .LLST5
     /tmp/cciWlNkH.s:2472   .debug_str:000000000000054b .LASF107
     /tmp/cciWlNkH.s:2370   .debug_str:000000000000025a .LASF108
     /tmp/cciWlNkH.s:67     .text:0000000000000030 .LFB28
     /tmp/cciWlNkH.s:112    .text:000000000000005c .LFE28
     /tmp/cciWlNkH.s:2218   .debug_loc:00000000000000db .LLST2
     /tmp/cciWlNkH.s:2232   .debug_loc:0000000000000114 .LLST3
     /tmp/cciWlNkH.s:2520   .debug_str:0000000000000753 .LASF109
     /tmp/cciWlNkH.s:2340   .debug_str:000000000000016a .LASF110
     /tmp/cciWlNkH.s:10     .text:0000000000000000 .LFB27
     /tmp/cciWlNkH.s:61     .text:0000000000000030 .LFE27
     /tmp/cciWlNkH.s:2480   .debug_str:0000000000000572 .LASF111
     /tmp/cciWlNkH.s:2239   .debug_loc:0000000000000137 .LLST0
     /tmp/cciWlNkH.s:2312   .debug_str:00000000000000a5 .LASF112
     /tmp/cciWlNkH.s:2259   .debug_loc:0000000000000185 .LLST1
     /tmp/cciWlNkH.s:262    .text:00000000000000d8 .LVL12
     /tmp/cciWlNkH.s:296    .text:00000000000000f8 .LVL13
     /tmp/cciWlNkH.s:301    .text:00000000000000fc .LVL14
     /tmp/cciWlNkH.s:205    .text:00000000000000a8 .LVL10
GAS LISTING /tmp/cciWlNkH.s 			page 13


     /tmp/cciWlNkH.s:210    .text:00000000000000ac .LVL11
     /tmp/cciWlNkH.s:121    .text:000000000000005c .LVL7
     /tmp/cciWlNkH.s:160    .text:0000000000000080 .LVL8
     /tmp/cciWlNkH.s:165    .text:0000000000000084 .LVL9
     /tmp/cciWlNkH.s:70     .text:0000000000000030 .LVL4
     /tmp/cciWlNkH.s:99     .text:000000000000004c .LVL5
     /tmp/cciWlNkH.s:104    .text:0000000000000050 .LVL6
     /tmp/cciWlNkH.s:14     .text:0000000000000000 .LVL0
     /tmp/cciWlNkH.s:24     .text:0000000000000010 .LVL1
     /tmp/cciWlNkH.s:27     .text:0000000000000014 .LVL2
     /tmp/cciWlNkH.s:50     .text:0000000000000024 .LVL3
     /tmp/cciWlNkH.s:318    .debug_info:0000000000000000 .Ldebug_info0

NO UNDEFINED SYMBOLS
