GAS LISTING /tmp/ccRCzBZU.s 			page 1


   1              		.file	"tcb.cpp"
   2              		.option pic
   3              		.option norelax
   4              		.text
   5              	.Ltext0:
   6              		.align	2
   7              		.globl	_ZN3TCB12createThreadEPFvPvES0_
   9              	_ZN3TCB12createThreadEPFvPvES0_:
  10              	.LFB37:
  11              		.file 1 "src/tcb.cpp"
   1:src/tcb.cpp   **** #include "../h/tcb.hpp"
   2:src/tcb.cpp   **** #include "../h/kernel.hpp"
   3:src/tcb.cpp   **** #include "../h/syscall_c.hpp"
   4:src/tcb.cpp   **** 
   5:src/tcb.cpp   **** TCB *TCB::running = nullptr;
   6:src/tcb.cpp   **** 
   7:src/tcb.cpp   **** uint64 TCB::timeSliceCounter = 0;
   8:src/tcb.cpp   **** 
   9:src/tcb.cpp   **** TCB *TCB::createThread(Body body, void* arg)
  10:src/tcb.cpp   **** {
  12              		.loc 1 10 1
  13              		.cfi_startproc
  14              		.cfi_personality 0x9b,DW.ref.__gxx_personality_v0
  15              		.cfi_lsda 0x1b,.LLSDA37
  16              	.LVL0:
  17 0000 130101FE 		addi	sp,sp,-32
  18              		.cfi_def_cfa_offset 32
  19 0004 233C1100 		sd	ra,24(sp)
  20 0008 23388100 		sd	s0,16(sp)
  21 000c 23349100 		sd	s1,8(sp)
  22 0010 23302101 		sd	s2,0(sp)
  23              		.cfi_offset 1, -8
  24              		.cfi_offset 8, -16
  25              		.cfi_offset 9, -24
  26              		.cfi_offset 18, -32
  27 0014 13040102 		addi	s0,sp,32
  28              		.cfi_def_cfa 8, 0
  29 0018 13090500 		mv	s2,a0
  11:src/tcb.cpp   ****     return new TCB(body, TIME_SLICE);
  30              		.loc 1 11 5
  31              		.loc 1 11 36 is_stmt 0
  32 001c 13058004 		li	a0,72
  33              	.LVL1:
  34              	.LEHB0:
  35 0020 97000000 		call	_Znwm@plt
  35      E7800000 
  36              	.LVL2:
  37              	.LEHE0:
  38 0028 93040500 		mv	s1,a0
  39              	.LVL3:
  40              	.LBB41:
  41              	.LBB42:
  42              		.file 2 "src/../h/tcb.hpp"
   1:src/../h/tcb.hpp **** #ifndef OS1_VEZBE07_RISCV_CONTEXT_SWITCH_2_INTERRUPT_TCB_HPP
   2:src/../h/tcb.hpp **** #define OS1_VEZBE07_RISCV_CONTEXT_SWITCH_2_INTERRUPT_TCB_HPP
   3:src/../h/tcb.hpp **** 
   4:src/../h/tcb.hpp **** #include "../lib/hw.h"
GAS LISTING /tmp/ccRCzBZU.s 			page 2


   5:src/../h/tcb.hpp **** #include "scheduler.hpp"
   6:src/../h/tcb.hpp **** 
   7:src/../h/tcb.hpp **** // Thread Control Block
   8:src/../h/tcb.hpp **** class TCB
   9:src/../h/tcb.hpp **** {
  10:src/../h/tcb.hpp **** public:
  11:src/../h/tcb.hpp ****     ~TCB() { delete[] stack; }
  12:src/../h/tcb.hpp **** 
  13:src/../h/tcb.hpp ****     bool isFinished() const { return finished; }
  14:src/../h/tcb.hpp **** 
  15:src/../h/tcb.hpp ****     void setFinished(bool value) { finished = value; }
  16:src/../h/tcb.hpp **** 
  17:src/../h/tcb.hpp ****     bool isBlocked() const { return this->blocked; }
  18:src/../h/tcb.hpp **** 
  19:src/../h/tcb.hpp ****     void setBlocked(bool value) { this->blocked = value; }
  20:src/../h/tcb.hpp **** 
  21:src/../h/tcb.hpp ****     uint64 getTimeSlice() const { return timeSlice; }
  22:src/../h/tcb.hpp **** 
  23:src/../h/tcb.hpp ****     using Body = void (*)(void*); //Body = pointer to function that takes a void pointer as an argu
  24:src/../h/tcb.hpp **** 
  25:src/../h/tcb.hpp ****     static TCB *createThread(Body body, void* arg);
  26:src/../h/tcb.hpp **** 
  27:src/../h/tcb.hpp ****     static void yield();
  28:src/../h/tcb.hpp **** 
  29:src/../h/tcb.hpp ****     static TCB *running;
  30:src/../h/tcb.hpp **** 
  31:src/../h/tcb.hpp **** private:
  32:src/../h/tcb.hpp ****     TCB(Body body, uint64 timeSlice) :
  33:src/../h/tcb.hpp ****             body(body),
  34:src/../h/tcb.hpp ****             stack(body != nullptr ? new uint64[STACK_SIZE] : nullptr),
  35:src/../h/tcb.hpp ****             context({(uint64) &threadWrapper,
  36:src/../h/tcb.hpp ****                      stack != nullptr ? (uint64) &stack[STACK_SIZE] : 0
  37:src/../h/tcb.hpp ****                     }),
  38:src/../h/tcb.hpp ****             timeSlice(timeSlice),
  39:src/../h/tcb.hpp ****             finished(false)
  43              		.loc 2 39 27
  44 002c 23302501 		sd	s2,0(a0)
  34:src/../h/tcb.hpp ****             context({(uint64) &threadWrapper,
  45              		.loc 2 34 35
  46 0030 630A0900 		beqz	s2,.L6
  34:src/../h/tcb.hpp ****             context({(uint64) &threadWrapper,
  47              		.loc 2 34 58
  48 0034 37250000 		li	a0,8192
  49              	.LEHB1:
  50 0038 97000000 		call	_Znam@plt
  50      E7800000 
  51              	.LVL4:
  52 0040 6F008000 		j	.L2
  53              	.L6:
  34:src/../h/tcb.hpp ****             context({(uint64) &threadWrapper,
  54              		.loc 2 34 35
  55 0044 13050000 		li	a0,0
  56              	.L2:
  57              		.loc 2 39 27
  58 0048 23B4A400 		sd	a0,8(s1)
  59 004c 97070000 		lla	a5,_ZN3TCB13threadWrapperEv
  59      93870700 
GAS LISTING /tmp/ccRCzBZU.s 			page 3


  60 0054 23B8F400 		sd	a5,16(s1)
  36:src/../h/tcb.hpp ****                     }),
  61              		.loc 2 36 39
  62 0058 630C0502 		beqz	a0,.L7
  36:src/../h/tcb.hpp ****                     }),
  63              		.loc 2 36 50
  64 005c B7270000 		li	a5,8192
  65 0060 B307F500 		add	a5,a0,a5
  66              	.L3:
  67              		.loc 2 39 27
  68 0064 23BCF400 		sd	a5,24(s1)
  69 0068 93072000 		li	a5,2
  70 006c 23B0F402 		sd	a5,32(s1)
  71 0070 23840402 		sb	zero,40(s1)
  72              	.LVL5:
  73              	.LBB43:
  74              	.LBB44:
  75              		.file 3 "src/../h/list.hpp"
   1:src/../h/list.hpp **** #ifndef OS1_VEZBE07_RISCV_CONTEXT_SWITCH_2_INTERRUPT_LIST_HPP
   2:src/../h/list.hpp **** #define OS1_VEZBE07_RISCV_CONTEXT_SWITCH_2_INTERRUPT_LIST_HPP
   3:src/../h/list.hpp **** 
   4:src/../h/list.hpp **** template<typename T>
   5:src/../h/list.hpp **** class List
   6:src/../h/list.hpp **** {
   7:src/../h/list.hpp **** private:
   8:src/../h/list.hpp ****     struct Elem
   9:src/../h/list.hpp ****     {
  10:src/../h/list.hpp ****         T *data;
  11:src/../h/list.hpp ****         Elem *next;
  12:src/../h/list.hpp **** 
  13:src/../h/list.hpp ****         Elem(T *data, Elem *next) : data(data), next(next) {}
  14:src/../h/list.hpp ****     };
  15:src/../h/list.hpp **** 
  16:src/../h/list.hpp ****     Elem *head, *tail;
  17:src/../h/list.hpp **** 
  18:src/../h/list.hpp **** public:
  19:src/../h/list.hpp ****     List() : head(0), tail(0) {}
  76              		.loc 3 19 29
  77 0074 23BC0402 		sd	zero,56(s1)
  78 0078 23B00404 		sd	zero,64(s1)
  79              	.LVL6:
  80              	.LBE44:
  81              	.LBE43:
  40:src/../h/tcb.hpp ****     {
  41:src/../h/tcb.hpp ****         if (body != nullptr) { Scheduler::put(this); }
  82              		.loc 2 41 9 is_stmt 1
  83 007c 630C0902 		beqz	s2,.L1
  84              		.loc 2 41 32
  85              		.loc 2 41 46 is_stmt 0
  86 0080 13850400 		mv	a0,s1
  87 0084 97000000 		call	_ZN9Scheduler3putEP3TCB@plt
  87      E7800000 
  88              	.LVL7:
  89              	.LEHE1:
  90 008c 6F008002 		j	.L1
  91              	.L7:
  36:src/../h/tcb.hpp ****                     }),
GAS LISTING /tmp/ccRCzBZU.s 			page 4


  92              		.loc 2 36 39
  93 0090 93070000 		li	a5,0
  94 0094 6FF01FFD 		j	.L3
  95              	.L8:
  96 0098 13090500 		mv	s2,a0
  97              	.LVL8:
  98              	.LBE42:
  99              	.LBE41:
 100              		.loc 1 11 36
 101 009c 13850400 		mv	a0,s1
 102 00a0 97000000 		call	_ZdlPv@plt
 102      E7800000 
 103              	.LVL9:
 104 00a8 13050900 		mv	a0,s2
 105              	.LEHB2:
 106 00ac 97000000 		call	_Unwind_Resume@plt
 106      E7800000 
 107              	.LVL10:
 108              	.LEHE2:
 109              	.L1:
  12:src/tcb.cpp   **** }
 110              		.loc 1 12 1
 111 00b4 13850400 		mv	a0,s1
 112 00b8 83308101 		ld	ra,24(sp)
 113              		.cfi_restore 1
 114 00bc 03340101 		ld	s0,16(sp)
 115              		.cfi_restore 8
 116              		.cfi_def_cfa 2, 32
 117 00c0 83348100 		ld	s1,8(sp)
 118              		.cfi_restore 9
 119              	.LVL11:
 120 00c4 03390100 		ld	s2,0(sp)
 121              		.cfi_restore 18
 122              	.LVL12:
 123 00c8 13010102 		addi	sp,sp,32
 124              		.cfi_def_cfa_offset 0
 125 00cc 67800000 		jr	ra
 126              		.cfi_endproc
 127              	.LFE37:
 128              		.globl	__gxx_personality_v0
 129              		.section	.gcc_except_table,"a",@progbits
 130              	.LLSDA37:
 131 0000 FF       		.byte	0xff
 132 0001 FF       		.byte	0xff
 133 0002 03       		.byte	0x3
 134 0003 27       		.byte	0x27
 135 0004 00000000 		.4byte	.LEHB0-.LFB37
 136 0008 00000000 		.4byte	.LEHE0-.LEHB0
 137 000c 00000000 		.4byte	0
 138 0010 00       		.byte	0
 139 0011 00000000 		.4byte	.LEHB1-.LFB37
 140 0015 00000000 		.4byte	.LEHE1-.LEHB1
 141 0019 00000000 		.4byte	.L8-.LFB37
 142 001d 00       		.byte	0
 143 001e 00000000 		.4byte	.LEHB2-.LFB37
 144 0022 00000000 		.4byte	.LEHE2-.LEHB2
 145 0026 00000000 		.4byte	0
GAS LISTING /tmp/ccRCzBZU.s 			page 5


 146 002a 00       		.byte	0
 147              		.text
 149              		.align	2
 150              		.globl	_ZN3TCB5yieldEv
 152              	_ZN3TCB5yieldEv:
 153              	.LFB38:
  13:src/tcb.cpp   **** 
  14:src/tcb.cpp   **** void TCB::yield()
  15:src/tcb.cpp   **** {
 154              		.loc 1 15 1 is_stmt 1
 155              		.cfi_startproc
 156 00d0 130101FF 		addi	sp,sp,-16
 157              		.cfi_def_cfa_offset 16
 158 00d4 23348100 		sd	s0,8(sp)
 159              		.cfi_offset 8, -8
 160 00d8 13040101 		addi	s0,sp,16
 161              		.cfi_def_cfa 8, 0
  16:src/tcb.cpp   ****     __asm__ volatile ("ecall");
 162              		.loc 1 16 5
 163              		.loc 1 16 31 is_stmt 0
 164              	#APP
 165              	# 16 "src/tcb.cpp" 1
  17              	}
 166              		ecall
 167              	# 0 "" 2
 168              		.loc 1 17 1
 169              	#NO_APP
 170 00e0 03348100 		ld	s0,8(sp)
 171              		.cfi_restore 8
 172              		.cfi_def_cfa 2, 16
 173 00e4 13010101 		addi	sp,sp,16
 174              		.cfi_def_cfa_offset 0
 175 00e8 67800000 		jr	ra
 176              		.cfi_endproc
 177              	.LFE38:
 179              		.align	2
 180              		.globl	_ZN3TCB8dispatchEv
 182              	_ZN3TCB8dispatchEv:
 183              	.LFB39:
  18:src/tcb.cpp   **** 
  19:src/tcb.cpp   **** void TCB::dispatch()
  20:src/tcb.cpp   **** {
 184              		.loc 1 20 1 is_stmt 1
 185              		.cfi_startproc
 186 00ec 130101FE 		addi	sp,sp,-32
 187              		.cfi_def_cfa_offset 32
 188 00f0 233C1100 		sd	ra,24(sp)
 189 00f4 23388100 		sd	s0,16(sp)
 190 00f8 23349100 		sd	s1,8(sp)
 191              		.cfi_offset 1, -8
 192              		.cfi_offset 8, -16
 193              		.cfi_offset 9, -24
 194 00fc 13040102 		addi	s0,sp,32
 195              		.cfi_def_cfa 8, 0
  21:src/tcb.cpp   ****     TCB *old = running;
 196              		.loc 1 21 5
 197              		.loc 1 21 10 is_stmt 0
GAS LISTING /tmp/ccRCzBZU.s 			page 6


 198 0100 97040000 		ld	s1,.LANCHOR0
 198      83B40400 
 199              	.LVL13:
  22:src/tcb.cpp   ****     if (!old->isFinished()) { Scheduler::put(old); }
 200              		.loc 1 22 5 is_stmt 1
 201              	.LBB45:
 202              	.LBB46:
  13:src/../h/tcb.hpp **** 
 203              		.loc 2 13 31
  13:src/../h/tcb.hpp **** 
 204              		.loc 2 13 38 is_stmt 0
 205 0108 83C78402 		lbu	a5,40(s1)
 206              	.LVL14:
 207              	.LBE46:
 208              	.LBE45:
 209              		.loc 1 22 5
 210 010c 638C0702 		beqz	a5,.L15
 211              	.L13:
  23:src/tcb.cpp   ****     running = Scheduler::get();
 212              		.loc 1 23 5 is_stmt 1
 213              		.loc 1 23 29 is_stmt 0
 214 0110 97000000 		call	_ZN9Scheduler3getEv@plt
 214      E7800000 
 215              	.LVL15:
 216              		.loc 1 23 13
 217 0118 97070000 		sd	a0,.LANCHOR0,a5
 217      23B0A700 
  24:src/tcb.cpp   **** 
  25:src/tcb.cpp   ****     TCB::contextSwitch(&old->context, &running->context);
 218              		.loc 1 25 5 is_stmt 1
 219              		.loc 1 25 23 is_stmt 0
 220 0120 93050501 		addi	a1,a0,16
 221 0124 13850401 		addi	a0,s1,16
 222 0128 97000000 		call	_ZN3TCB13contextSwitchEPNS_7ContextES1_@plt
 222      E7800000 
 223              	.LVL16:
  26:src/tcb.cpp   **** }
 224              		.loc 1 26 1
 225 0130 83308101 		ld	ra,24(sp)
 226              		.cfi_remember_state
 227              		.cfi_restore 1
 228 0134 03340101 		ld	s0,16(sp)
 229              		.cfi_restore 8
 230              		.cfi_def_cfa 2, 32
 231 0138 83348100 		ld	s1,8(sp)
 232              		.cfi_restore 9
 233              	.LVL17:
 234 013c 13010102 		addi	sp,sp,32
 235              		.cfi_def_cfa_offset 0
 236 0140 67800000 		jr	ra
 237              	.LVL18:
 238              	.L15:
 239              		.cfi_restore_state
  22:src/tcb.cpp   ****     running = Scheduler::get();
 240              		.loc 1 22 31 is_stmt 1 discriminator 1
  22:src/tcb.cpp   ****     running = Scheduler::get();
 241              		.loc 1 22 45 is_stmt 0 discriminator 1
GAS LISTING /tmp/ccRCzBZU.s 			page 7


 242 0144 13850400 		mv	a0,s1
 243 0148 97000000 		call	_ZN9Scheduler3putEP3TCB@plt
 243      E7800000 
 244              	.LVL19:
 245 0150 6FF01FFC 		j	.L13
 246              		.cfi_endproc
 247              	.LFE39:
 249              		.align	2
 250              		.globl	_ZN3TCB10releaseAllEv
 252              	_ZN3TCB10releaseAllEv:
 253              	.LFB40:
  27:src/tcb.cpp   **** 
  28:src/tcb.cpp   **** void TCB::releaseAll() {
 254              		.loc 1 28 24 is_stmt 1
 255              		.cfi_startproc
 256              	.LVL20:
 257 0154 130101FE 		addi	sp,sp,-32
 258              		.cfi_def_cfa_offset 32
 259 0158 233C1100 		sd	ra,24(sp)
 260 015c 23388100 		sd	s0,16(sp)
 261 0160 23349100 		sd	s1,8(sp)
 262 0164 23302101 		sd	s2,0(sp)
 263              		.cfi_offset 1, -8
 264              		.cfi_offset 8, -16
 265              		.cfi_offset 9, -24
 266              		.cfi_offset 18, -32
 267 0168 13040102 		addi	s0,sp,32
 268              		.cfi_def_cfa 8, 0
 269 016c 13090500 		mv	s2,a0
 270 0170 6F004002 		j	.L19
 271              	.LVL21:
 272              	.L21:
 273              	.LBB47:
 274              	.LBB48:
 275              	.LBB49:
  20:src/../h/list.hpp **** 
  21:src/../h/list.hpp ****     List(const List<T> &) = delete;
  22:src/../h/list.hpp **** 
  23:src/../h/list.hpp ****     List<T> &operator=(const List<T> &) = delete;
  24:src/../h/list.hpp **** 
  25:src/../h/list.hpp ****     void addFirst(T *data)
  26:src/../h/list.hpp ****     {
  27:src/../h/list.hpp ****         Elem *elem = new Elem(data, head);
  28:src/../h/list.hpp ****         head = elem;
  29:src/../h/list.hpp ****         if (!tail) { tail = head; }
  30:src/../h/list.hpp ****     }
  31:src/../h/list.hpp **** 
  32:src/../h/list.hpp ****     void addLast(T *data)
  33:src/../h/list.hpp ****     {
  34:src/../h/list.hpp ****         Elem *elem = new Elem(data, 0);
  35:src/../h/list.hpp ****         if (tail)
  36:src/../h/list.hpp ****         {
  37:src/../h/list.hpp ****             tail->next = elem;
  38:src/../h/list.hpp ****             tail = elem;
  39:src/../h/list.hpp ****         } else
  40:src/../h/list.hpp ****         {
  41:src/../h/list.hpp ****             head = tail = elem;
GAS LISTING /tmp/ccRCzBZU.s 			page 8


  42:src/../h/list.hpp ****         }
  43:src/../h/list.hpp ****     }
  44:src/../h/list.hpp **** 
  45:src/../h/list.hpp ****     T *removeFirst()
  46:src/../h/list.hpp ****     {
  47:src/../h/list.hpp ****         if (!head) { return 0; }
  48:src/../h/list.hpp **** 
  49:src/../h/list.hpp ****         Elem *elem = head;
  50:src/../h/list.hpp ****         head = head->next;
  51:src/../h/list.hpp ****         if (!head) { tail = 0; }
 276              		.loc 3 51 22 is_stmt 0
 277 0174 23300904 		sd	zero,64(s2)
 278              	.L18:
  52:src/../h/list.hpp **** 
  53:src/../h/list.hpp ****         T *ret = elem->data;
 279              		.loc 3 53 12
 280 0178 83340500 		ld	s1,0(a0)
 281              	.LVL22:
  54:src/../h/list.hpp ****         delete elem;
 282              		.loc 3 54 9
 283 017c 97000000 		call	_ZdlPv@plt
 283      E7800000 
 284              	.LVL23:
 285              	.LBE49:
 286              	.LBE48:
  29:src/tcb.cpp   ****     while (this->joined.peekFirst()) {
  30:src/tcb.cpp   ****         TCB* tcb = this->joined.removeFirst();
  31:src/tcb.cpp   ****         tcb->setBlocked(false);
 287              		.loc 1 31 9 is_stmt 1
 288              	.LBB51:
 289              	.LBB52:
  19:src/../h/tcb.hpp **** 
 290              		.loc 2 19 35
  19:src/../h/tcb.hpp **** 
 291              		.loc 2 19 49 is_stmt 0
 292 0184 A3840402 		sb	zero,41(s1)
 293              	.LVL24:
 294              	.LBE52:
 295              	.LBE51:
  32:src/tcb.cpp   ****         Scheduler::put(tcb);
 296              		.loc 1 32 9 is_stmt 1
 297              		.loc 1 32 23 is_stmt 0
 298 0188 13850400 		mv	a0,s1
 299 018c 97000000 		call	_ZN9Scheduler3putEP3TCB@plt
 299      E7800000 
 300              	.LVL25:
 301              	.L19:
 302              	.LBE47:
  29:src/tcb.cpp   ****     while (this->joined.peekFirst()) {
 303              		.loc 1 29 5 is_stmt 1
  29:src/tcb.cpp   ****     while (this->joined.peekFirst()) {
 304              		.loc 1 29 35
 305              	.LBB54:
 306              	.LBB55:
  55:src/../h/list.hpp ****         return ret;
  56:src/../h/list.hpp ****     }
  57:src/../h/list.hpp **** 
GAS LISTING /tmp/ccRCzBZU.s 			page 9


  58:src/../h/list.hpp ****     T *peekFirst()
  59:src/../h/list.hpp ****     {
  60:src/../h/list.hpp ****         if (!head) { return 0; }
 307              		.loc 3 60 14 is_stmt 0
 308 0194 03358903 		ld	a0,56(s2)
 309              		.loc 3 60 9
 310 0198 630E0500 		beqz	a0,.L16
  61:src/../h/list.hpp ****         return head->data;
 311              		.loc 3 61 22
 312 019c 83370500 		ld	a5,0(a0)
 313              	.LVL26:
 314              	.LBE55:
 315              	.LBE54:
  29:src/tcb.cpp   ****         TCB* tcb = this->joined.removeFirst();
 316              		.loc 1 29 35
 317 01a0 638A0700 		beqz	a5,.L16
 318              	.LBB56:
  30:src/tcb.cpp   ****         tcb->setBlocked(false);
 319              		.loc 1 30 9 is_stmt 1
 320              	.LVL27:
 321              	.LBB53:
 322              	.LBB50:
  50:src/../h/list.hpp ****         if (!head) { tail = 0; }
 323              		.loc 3 50 22 is_stmt 0
 324 01a4 83378500 		ld	a5,8(a0)
  50:src/../h/list.hpp ****         if (!head) { tail = 0; }
 325              		.loc 3 50 9
 326 01a8 233CF902 		sd	a5,56(s2)
  51:src/../h/list.hpp **** 
 327              		.loc 3 51 9
 328 01ac E39607FC 		bnez	a5,.L18
 329 01b0 6FF05FFC 		j	.L21
 330              	.LVL28:
 331              	.L16:
 332              	.LBE50:
 333              	.LBE53:
 334              	.LBE56:
  33:src/tcb.cpp   ****     }
  34:src/tcb.cpp   **** }
 335              		.loc 1 34 1
 336 01b4 83308101 		ld	ra,24(sp)
 337              		.cfi_restore 1
 338 01b8 03340101 		ld	s0,16(sp)
 339              		.cfi_restore 8
 340              		.cfi_def_cfa 2, 32
 341 01bc 83348100 		ld	s1,8(sp)
 342              		.cfi_restore 9
 343 01c0 03390100 		ld	s2,0(sp)
 344              		.cfi_restore 18
 345              	.LVL29:
 346 01c4 13010102 		addi	sp,sp,32
 347              		.cfi_def_cfa_offset 0
 348 01c8 67800000 		jr	ra
 349              		.cfi_endproc
 350              	.LFE40:
 352              		.align	2
 353              		.globl	_ZN3TCB13threadWrapperEv
GAS LISTING /tmp/ccRCzBZU.s 			page 10


 355              	_ZN3TCB13threadWrapperEv:
 356              	.LFB42:
  35:src/tcb.cpp   **** 
  36:src/tcb.cpp   **** void TCB::join(TCB* handle) {
  37:src/tcb.cpp   ****     if(!handle->isFinished()) {
  38:src/tcb.cpp   ****         running->setBlocked(true);
  39:src/tcb.cpp   ****         handle->joined.addLast(running);
  40:src/tcb.cpp   ****     }
  41:src/tcb.cpp   **** }
  42:src/tcb.cpp   **** 
  43:src/tcb.cpp   **** void TCB::threadWrapper()
  44:src/tcb.cpp   **** {
 357              		.loc 1 44 1 is_stmt 1
 358              		.cfi_startproc
 359 01cc 130101FE 		addi	sp,sp,-32
 360              		.cfi_def_cfa_offset 32
 361 01d0 233C1100 		sd	ra,24(sp)
 362 01d4 23388100 		sd	s0,16(sp)
 363 01d8 23349100 		sd	s1,8(sp)
 364              		.cfi_offset 1, -8
 365              		.cfi_offset 8, -16
 366              		.cfi_offset 9, -24
 367 01dc 13040102 		addi	s0,sp,32
 368              		.cfi_def_cfa 8, 0
  45:src/tcb.cpp   ****     Kernel::popSppSpie();
 369              		.loc 1 45 5
 370              	.LBB57:
 371              	.LBB58:
 372              		.file 4 "src/../h/kernel.hpp"
   1:src/../h/kernel.hpp **** #ifndef KERNEL_HPP
   2:src/../h/kernel.hpp **** #define KERNEL_HPP
   3:src/../h/kernel.hpp **** 
   4:src/../h/kernel.hpp **** #include "../lib/hw.h"
   5:src/../h/kernel.hpp **** #include "../lib/console.h"
   6:src/../h/kernel.hpp **** class Kernel {
   7:src/../h/kernel.hpp **** public:
   8:src/../h/kernel.hpp ****     // entry point init
   9:src/../h/kernel.hpp ****     static void init();
  10:src/../h/kernel.hpp **** 
  11:src/../h/kernel.hpp ****     inline static void print_int(int xx, int base, int sgn)
  12:src/../h/kernel.hpp ****     {
  13:src/../h/kernel.hpp ****         char my_digits[] = "0123456789ABCDEF";
  14:src/../h/kernel.hpp ****         char buf[16];
  15:src/../h/kernel.hpp ****         int i, neg;
  16:src/../h/kernel.hpp ****         uint x;
  17:src/../h/kernel.hpp **** 
  18:src/../h/kernel.hpp ****         neg = 0;
  19:src/../h/kernel.hpp ****         if(sgn && xx < 0){
  20:src/../h/kernel.hpp ****             neg = 1;
  21:src/../h/kernel.hpp ****             x = -xx;
  22:src/../h/kernel.hpp ****         } else {
  23:src/../h/kernel.hpp ****             x = xx;
  24:src/../h/kernel.hpp ****         }
  25:src/../h/kernel.hpp **** 
  26:src/../h/kernel.hpp ****         i = 0;
  27:src/../h/kernel.hpp ****         do{
  28:src/../h/kernel.hpp ****             buf[i++] = my_digits[x % base];
GAS LISTING /tmp/ccRCzBZU.s 			page 11


  29:src/../h/kernel.hpp ****         }while((x /= base) != 0);
  30:src/../h/kernel.hpp ****         if(neg)
  31:src/../h/kernel.hpp ****             buf[i++] = '-';
  32:src/../h/kernel.hpp **** 
  33:src/../h/kernel.hpp ****         while(--i >= 0)
  34:src/../h/kernel.hpp ****             __putc(buf[i]);
  35:src/../h/kernel.hpp **** 
  36:src/../h/kernel.hpp ****     }
  37:src/../h/kernel.hpp **** 
  38:src/../h/kernel.hpp **** private:
  39:src/../h/kernel.hpp ****     static void supervisorTrapHandler();
  40:src/../h/kernel.hpp ****     static void supervisorTrap();
  41:src/../h/kernel.hpp **** public:
  42:src/../h/kernel.hpp ****     static inline uint64 r_scause() {
  43:src/../h/kernel.hpp ****         uint64 volatile x;
  44:src/../h/kernel.hpp ****         __asm__ volatile("csrr %0, scause" : "=r"(x));
  45:src/../h/kernel.hpp ****         return x;
  46:src/../h/kernel.hpp ****     }
  47:src/../h/kernel.hpp **** 
  48:src/../h/kernel.hpp ****     static inline uint64 r_a0() {
  49:src/../h/kernel.hpp ****         uint64 volatile x;
  50:src/../h/kernel.hpp ****         __asm__ volatile("mv %0, a0" : "=r"(x));
  51:src/../h/kernel.hpp ****         return x;
  52:src/../h/kernel.hpp ****     }
  53:src/../h/kernel.hpp **** 
  54:src/../h/kernel.hpp ****     static inline void w_scause(uint64 x) {
  55:src/../h/kernel.hpp ****         __asm__ volatile("csrw scause, %0" : : "r"(x));
  56:src/../h/kernel.hpp ****     }
  57:src/../h/kernel.hpp **** 
  58:src/../h/kernel.hpp ****     static inline uint64 r_sepc() {
  59:src/../h/kernel.hpp ****         uint64 volatile x;
  60:src/../h/kernel.hpp ****         __asm__ volatile("csrr %0, sepc" : "=r"(x));
  61:src/../h/kernel.hpp ****         return x;
  62:src/../h/kernel.hpp ****     }
  63:src/../h/kernel.hpp **** 
  64:src/../h/kernel.hpp ****     static inline void w_sepc(uint64 x) {
  65:src/../h/kernel.hpp ****         __asm__ volatile("csrw sepc, %0" : : "r"(x));
  66:src/../h/kernel.hpp ****     }
  67:src/../h/kernel.hpp **** 
  68:src/../h/kernel.hpp ****     static inline uint64 r_sstatus() {
  69:src/../h/kernel.hpp ****         uint64 volatile x;
  70:src/../h/kernel.hpp ****         __asm__ volatile("csrr %0, sstatus" : "=r"(x));
  71:src/../h/kernel.hpp ****         return x;
  72:src/../h/kernel.hpp ****     }
  73:src/../h/kernel.hpp **** 
  74:src/../h/kernel.hpp ****     static inline void w_sstatus(uint64 x) {
  75:src/../h/kernel.hpp ****         __asm__ volatile("csrw sstatus, %0" : : "r"(x));
  76:src/../h/kernel.hpp ****     }
  77:src/../h/kernel.hpp **** 
  78:src/../h/kernel.hpp ****     static inline void ms_sstatus(uint64 mask) {
  79:src/../h/kernel.hpp ****         __asm__ volatile("csrs sstatus, %0" : : "r"(mask));
  80:src/../h/kernel.hpp ****     }
  81:src/../h/kernel.hpp **** 
  82:src/../h/kernel.hpp ****     static inline void mc_sstatus(uint64 mask) {
  83:src/../h/kernel.hpp ****         __asm__ volatile("csrc sstatus, %0" : : "r"(mask));
  84:src/../h/kernel.hpp ****     }
  85:src/../h/kernel.hpp **** 
GAS LISTING /tmp/ccRCzBZU.s 			page 12


  86:src/../h/kernel.hpp ****     static inline uint64 r_sip() { //koji prekid postoji? bit 0 softver; bit 9 spoljasni hardverski
  87:src/../h/kernel.hpp ****         uint64 volatile x;
  88:src/../h/kernel.hpp ****         __asm__ volatile("csrr %0, sip" : "=r"(x));
  89:src/../h/kernel.hpp ****         return x;
  90:src/../h/kernel.hpp ****     }
  91:src/../h/kernel.hpp **** 
  92:src/../h/kernel.hpp ****     static inline void ms_sip(uint64 mask) {
  93:src/../h/kernel.hpp ****         __asm__ volatile("csrs sip, %0" : : "r"(mask));
  94:src/../h/kernel.hpp ****     }
  95:src/../h/kernel.hpp **** 
  96:src/../h/kernel.hpp ****     static inline void mc_sip(uint64 mask) {
  97:src/../h/kernel.hpp ****         __asm__ volatile("csrc sip, %0" : : "r"(mask));
  98:src/../h/kernel.hpp ****     }
  99:src/../h/kernel.hpp **** 
 100:src/../h/kernel.hpp ****     static inline uint64 r_stvec() {
 101:src/../h/kernel.hpp ****         uint64 volatile x;
 102:src/../h/kernel.hpp ****         __asm__ volatile("csrr %0, stvec" : "=r"(x));
 103:src/../h/kernel.hpp ****         return x;
 104:src/../h/kernel.hpp ****     }
 105:src/../h/kernel.hpp **** 
 106:src/../h/kernel.hpp ****     static inline void w_stvec(uint64 x) {
 107:src/../h/kernel.hpp ****         __asm__ volatile("csrw stvec, %0" : : "r"(x));
 108:src/../h/kernel.hpp ****     }
 109:src/../h/kernel.hpp **** 
 110:src/../h/kernel.hpp ****     static inline uint64 r_stval() {
 111:src/../h/kernel.hpp ****         uint64 volatile x;
 112:src/../h/kernel.hpp ****         __asm__ volatile("csrr %0, stval" : "=r"(x));
 113:src/../h/kernel.hpp ****         return x;
 114:src/../h/kernel.hpp ****     }
 115:src/../h/kernel.hpp **** 
 116:src/../h/kernel.hpp ****     static inline void w_stval(uint64 x) {
 117:src/../h/kernel.hpp ****         __asm__ volatile("csrw stval, %0" : : "r"(x));
 118:src/../h/kernel.hpp ****     }
 119:src/../h/kernel.hpp **** 
 120:src/../h/kernel.hpp ****     static inline void popSppSpie() { //Kada se vratiš iz trap-a, vrati se u User mode. (spp je pr
 121:src/../h/kernel.hpp ****         mc_sstatus(SSTATUS_SPP);
 373              		.loc 4 121 9
 374              	.LVL30:
 375              	.LBB59:
 376              	.LBB60:
  83:src/../h/kernel.hpp ****     }
 377              		.loc 4 83 9
  83:src/../h/kernel.hpp ****     }
 378              		.loc 4 83 59 is_stmt 0
 379 01e0 93070010 		li	a5,256
 380              	#APP
 381              	# 83 "src/../h/kernel.hpp" 1
 382              		csrc sstatus, a5
 383              	# 0 "" 2
 384              	.LVL31:
 385              	#NO_APP
 386              	.LBE60:
 387              	.LBE59:
 122:src/../h/kernel.hpp ****         __asm__ volatile("sret"); //vrati se iz trap-a
 388              		.loc 4 122 9 is_stmt 1
 389              		.loc 4 122 33 is_stmt 0
 390              	#APP
GAS LISTING /tmp/ccRCzBZU.s 			page 13


 391              	# 122 "src/../h/kernel.hpp" 1
 123              	    }
 392              		sret
 393              	# 0 "" 2
 394              	#NO_APP
 395              	.LBE58:
 396              	.LBE57:
  46:src/tcb.cpp   ****     running->body(running->arg);
 397              		.loc 1 46 5 is_stmt 1
 398              		.loc 1 46 14 is_stmt 0
 399 01ec 97040000 		lla	s1,.LANCHOR0
 399      93840400 
 400 01f4 83B70400 		ld	a5,0(s1)
 401 01f8 03B70700 		ld	a4,0(a5)
 402              		.loc 1 46 18
 403 01fc 03B50703 		ld	a0,48(a5)
 404 0200 E7000700 		jalr	a4
 405              	.LVL32:
  47:src/tcb.cpp   ****     running->setFinished(true);
 406              		.loc 1 47 5 is_stmt 1
 407              		.loc 1 47 25 is_stmt 0
 408 0204 03B50400 		ld	a0,0(s1)
 409              	.LVL33:
 410              	.LBB61:
 411              	.LBB62:
  15:src/../h/tcb.hpp **** 
 412              		.loc 2 15 36 is_stmt 1
  15:src/../h/tcb.hpp **** 
 413              		.loc 2 15 45 is_stmt 0
 414 0208 93071000 		li	a5,1
 415 020c 2304F502 		sb	a5,40(a0)
 416              	.LVL34:
 417              	.LBE62:
 418              	.LBE61:
  48:src/tcb.cpp   ****     running->releaseAll();
 419              		.loc 1 48 5 is_stmt 1
 420              		.loc 1 48 24 is_stmt 0
 421 0210 97000000 		call	_ZN3TCB10releaseAllEv
 421      E7800000 
 422              	.LVL35:
  49:src/tcb.cpp   ****     thread_dispatch();
 423              		.loc 1 49 5 is_stmt 1
 424              		.loc 1 49 20 is_stmt 0
 425 0218 97000000 		call	_Z15thread_dispatchv@plt
 425      E7800000 
 426              	.LVL36:
  50:src/tcb.cpp   **** }
 427              		.loc 1 50 1
 428 0220 83308101 		ld	ra,24(sp)
 429              		.cfi_restore 1
 430 0224 03340101 		ld	s0,16(sp)
 431              		.cfi_restore 8
 432              		.cfi_def_cfa 2, 32
 433 0228 83348100 		ld	s1,8(sp)
 434              		.cfi_restore 9
 435 022c 13010102 		addi	sp,sp,32
 436              		.cfi_def_cfa_offset 0
GAS LISTING /tmp/ccRCzBZU.s 			page 14


 437 0230 67800000 		jr	ra
 438              		.cfi_endproc
 439              	.LFE42:
 441              		.align	2
 442              		.globl	_ZN3TCB4joinEPS_
 444              	_ZN3TCB4joinEPS_:
 445              	.LFB41:
  36:src/tcb.cpp   ****     if(!handle->isFinished()) {
 446              		.loc 1 36 29 is_stmt 1
 447              		.cfi_startproc
 448              	.LVL37:
  37:src/tcb.cpp   ****         running->setBlocked(true);
 449              		.loc 1 37 5
 450              	.LBB63:
 451              	.LBB64:
  13:src/../h/tcb.hpp **** 
 452              		.loc 2 13 31
  13:src/../h/tcb.hpp **** 
 453              		.loc 2 13 38 is_stmt 0
 454 0234 83478502 		lbu	a5,40(a0)
 455              	.LVL38:
 456              	.LBE64:
 457              	.LBE63:
  37:src/tcb.cpp   ****         running->setBlocked(true);
 458              		.loc 1 37 5
 459 0238 63840700 		beqz	a5,.L31
 460 023c 67800000 		ret
 461              	.L31:
  36:src/tcb.cpp   ****     if(!handle->isFinished()) {
 462              		.loc 1 36 29
 463 0240 130101FE 		addi	sp,sp,-32
 464              		.cfi_def_cfa_offset 32
 465 0244 233C1100 		sd	ra,24(sp)
 466 0248 23388100 		sd	s0,16(sp)
 467 024c 23349100 		sd	s1,8(sp)
 468 0250 23302101 		sd	s2,0(sp)
 469              		.cfi_offset 1, -8
 470              		.cfi_offset 8, -16
 471              		.cfi_offset 9, -24
 472              		.cfi_offset 18, -32
 473 0254 13040102 		addi	s0,sp,32
 474              		.cfi_def_cfa 8, 0
 475 0258 93040500 		mv	s1,a0
  38:src/tcb.cpp   ****         handle->joined.addLast(running);
 476              		.loc 1 38 9 is_stmt 1
  38:src/tcb.cpp   ****         handle->joined.addLast(running);
 477              		.loc 1 38 28 is_stmt 0
 478 025c 17090000 		ld	s2,.LANCHOR0
 478      03390900 
 479              	.LVL39:
 480              	.LBB65:
 481              	.LBB66:
  19:src/../h/tcb.hpp **** 
 482              		.loc 2 19 35 is_stmt 1
  19:src/../h/tcb.hpp **** 
 483              		.loc 2 19 49 is_stmt 0
 484 0264 93071000 		li	a5,1
GAS LISTING /tmp/ccRCzBZU.s 			page 15


 485 0268 A304F902 		sb	a5,41(s2)
 486              	.LVL40:
 487              	.LBE66:
 488              	.LBE65:
  39:src/tcb.cpp   ****     }
 489              		.loc 1 39 9 is_stmt 1
 490              	.LBB67:
 491              	.LBB68:
  34:src/../h/list.hpp ****         if (tail)
 492              		.loc 3 34 22 is_stmt 0
 493 026c 13050001 		li	a0,16
 494              	.LVL41:
 495 0270 97000000 		call	_Znwm@plt
 495      E7800000 
 496              	.LVL42:
 497              	.LBB69:
 498              	.LBB70:
  13:src/../h/list.hpp ****     };
 499              		.loc 3 13 58
 500 0278 23302501 		sd	s2,0(a0)
 501 027c 23340500 		sd	zero,8(a0)
 502              	.LVL43:
 503              	.LBE70:
 504              	.LBE69:
  35:src/../h/list.hpp ****         {
 505              		.loc 3 35 13
 506 0280 83B70404 		ld	a5,64(s1)
  35:src/../h/list.hpp ****         {
 507              		.loc 3 35 9
 508 0284 63820702 		beqz	a5,.L26
  37:src/../h/list.hpp ****             tail = elem;
 509              		.loc 3 37 13
 510 0288 23B4A700 		sd	a0,8(a5)
  38:src/../h/list.hpp ****         } else
 511              		.loc 3 38 13
 512 028c 23B0A404 		sd	a0,64(s1)
 513              	.LVL44:
 514              	.L24:
 515              	.LBE68:
 516              	.LBE67:
  41:src/tcb.cpp   **** 
 517              		.loc 1 41 1
 518 0290 83308101 		ld	ra,24(sp)
 519              		.cfi_remember_state
 520              		.cfi_restore 1
 521 0294 03340101 		ld	s0,16(sp)
 522              		.cfi_restore 8
 523              		.cfi_def_cfa 2, 32
 524 0298 83348100 		ld	s1,8(sp)
 525              		.cfi_restore 9
 526              	.LVL45:
 527 029c 03390100 		ld	s2,0(sp)
 528              		.cfi_restore 18
 529 02a0 13010102 		addi	sp,sp,32
 530              		.cfi_def_cfa_offset 0
 531 02a4 67800000 		jr	ra
 532              	.LVL46:
GAS LISTING /tmp/ccRCzBZU.s 			page 16


 533              	.L26:
 534              		.cfi_restore_state
 535              	.LBB72:
 536              	.LBB71:
  41:src/../h/list.hpp ****         }
 537              		.loc 3 41 13
 538 02a8 23B0A404 		sd	a0,64(s1)
 539 02ac 23BCA402 		sd	a0,56(s1)
 540              	.LVL47:
 541              	.LBE71:
 542              	.LBE72:
  41:src/tcb.cpp   **** 
 543              		.loc 1 41 1
 544 02b0 6FF01FFE 		j	.L24
 545              		.cfi_endproc
 546              	.LFE41:
 548              		.globl	_ZN3TCB16timeSliceCounterE
 549              		.globl	_ZN3TCB7runningE
 550              		.bss
 551              		.align	3
 552              		.set	.LANCHOR0,. + 0
 555              	_ZN3TCB7runningE:
 556 0000 00000000 		.zero	8
 556      00000000 
 559              	_ZN3TCB16timeSliceCounterE:
 560 0008 00000000 		.zero	8
 560      00000000 
 561              		.text
 562              	.Letext0:
 563              		.file 5 "src/../h/../lib/hw.h"
 564              		.file 6 "src/../h/scheduler.hpp"
 565              		.file 7 "src/../h/syscall_c.hpp"
 4021              		.align	3
 4024              	DW.ref.__gxx_personality_v0:
 4025 0000 00000000 		.dword	__gxx_personality_v0
 4025      00000000 
 4026              		.ident	"GCC: (Ubuntu 9.4.0-1ubuntu1~20.04) 9.4.0"
 4027              		.section	.note.GNU-stack,"",@progbits
GAS LISTING /tmp/ccRCzBZU.s 			page 17


DEFINED SYMBOLS
                            *ABS*:0000000000000000 tcb.cpp
     /tmp/ccRCzBZU.s:9      .text:0000000000000000 _ZN3TCB12createThreadEPFvPvES0_
     /tmp/ccRCzBZU.s:13     .text:0000000000000000 .L0 
     /tmp/ccRCzBZU.s:4024   .data.rel.local.DW.ref.__gxx_personality_v0:0000000000000000 DW.ref.__gxx_personality_v0
     /tmp/ccRCzBZU.s:17     .text:0000000000000000 .L0 
     /tmp/ccRCzBZU.s:18     .text:0000000000000004 .L0 
     /tmp/ccRCzBZU.s:23     .text:0000000000000014 .L0 
     /tmp/ccRCzBZU.s:24     .text:0000000000000014 .L0 
     /tmp/ccRCzBZU.s:25     .text:0000000000000014 .L0 
     /tmp/ccRCzBZU.s:26     .text:0000000000000014 .L0 
     /tmp/ccRCzBZU.s:28     .text:0000000000000018 .L0 
     /tmp/ccRCzBZU.s:31     .text:000000000000001c .L0 
     /tmp/ccRCzBZU.s:32     .text:000000000000001c .L0 
     /tmp/ccRCzBZU.s:44     .text:000000000000002c .L0 
     /tmp/ccRCzBZU.s:46     .text:0000000000000030 .L0 
     /tmp/ccRCzBZU.s:48     .text:0000000000000034 .L0 
     /tmp/ccRCzBZU.s:55     .text:0000000000000044 .L0 
     /tmp/ccRCzBZU.s:58     .text:0000000000000048 .L0 
     /tmp/ccRCzBZU.s:355    .text:00000000000001cc _ZN3TCB13threadWrapperEv
     /tmp/ccRCzBZU.s:62     .text:0000000000000058 .L0 
     /tmp/ccRCzBZU.s:64     .text:000000000000005c .L0 
     /tmp/ccRCzBZU.s:68     .text:0000000000000064 .L0 
     /tmp/ccRCzBZU.s:77     .text:0000000000000074 .L0 
     /tmp/ccRCzBZU.s:83     .text:000000000000007c .L0 
     /tmp/ccRCzBZU.s:85     .text:0000000000000080 .L0 
     /tmp/ccRCzBZU.s:86     .text:0000000000000080 .L0 
     /tmp/ccRCzBZU.s:93     .text:0000000000000090 .L0 
     /tmp/ccRCzBZU.s:101    .text:000000000000009c .L0 
     /tmp/ccRCzBZU.s:111    .text:00000000000000b4 .L0 
     /tmp/ccRCzBZU.s:113    .text:00000000000000bc .L0 
     /tmp/ccRCzBZU.s:115    .text:00000000000000c0 .L0 
     /tmp/ccRCzBZU.s:116    .text:00000000000000c0 .L0 
     /tmp/ccRCzBZU.s:118    .text:00000000000000c4 .L0 
     /tmp/ccRCzBZU.s:121    .text:00000000000000c8 .L0 
     /tmp/ccRCzBZU.s:124    .text:00000000000000cc .L0 
     /tmp/ccRCzBZU.s:126    .text:00000000000000d0 .L0 
     /tmp/ccRCzBZU.s:152    .text:00000000000000d0 _ZN3TCB5yieldEv
     /tmp/ccRCzBZU.s:155    .text:00000000000000d0 .L0 
     /tmp/ccRCzBZU.s:156    .text:00000000000000d0 .L0 
     /tmp/ccRCzBZU.s:157    .text:00000000000000d4 .L0 
     /tmp/ccRCzBZU.s:159    .text:00000000000000d8 .L0 
     /tmp/ccRCzBZU.s:161    .text:00000000000000dc .L0 
     /tmp/ccRCzBZU.s:163    .text:00000000000000dc .L0 
         src/tcb.cpp:16     .text:00000000000000dc .L0 
     /tmp/ccRCzBZU.s:170    .text:00000000000000e0 .L0 
     /tmp/ccRCzBZU.s:171    .text:00000000000000e4 .L0 
     /tmp/ccRCzBZU.s:172    .text:00000000000000e4 .L0 
     /tmp/ccRCzBZU.s:174    .text:00000000000000e8 .L0 
     /tmp/ccRCzBZU.s:176    .text:00000000000000ec .L0 
     /tmp/ccRCzBZU.s:182    .text:00000000000000ec _ZN3TCB8dispatchEv
     /tmp/ccRCzBZU.s:185    .text:00000000000000ec .L0 
     /tmp/ccRCzBZU.s:186    .text:00000000000000ec .L0 
     /tmp/ccRCzBZU.s:187    .text:00000000000000f0 .L0 
     /tmp/ccRCzBZU.s:191    .text:00000000000000fc .L0 
     /tmp/ccRCzBZU.s:192    .text:00000000000000fc .L0 
     /tmp/ccRCzBZU.s:193    .text:00000000000000fc .L0 
GAS LISTING /tmp/ccRCzBZU.s 			page 18


     /tmp/ccRCzBZU.s:195    .text:0000000000000100 .L0 
     /tmp/ccRCzBZU.s:197    .text:0000000000000100 .L0 
     /tmp/ccRCzBZU.s:198    .text:0000000000000100 .L0 
     /tmp/ccRCzBZU.s:203    .text:0000000000000108 .L0 
     /tmp/ccRCzBZU.s:204    .text:0000000000000108 .L0 
     /tmp/ccRCzBZU.s:205    .text:0000000000000108 .L0 
     /tmp/ccRCzBZU.s:210    .text:000000000000010c .L0 
     /tmp/ccRCzBZU.s:213    .text:0000000000000110 .L0 
     /tmp/ccRCzBZU.s:214    .text:0000000000000110 .L0 
     /tmp/ccRCzBZU.s:217    .text:0000000000000118 .L0 
     /tmp/ccRCzBZU.s:219    .text:0000000000000120 .L0 
     /tmp/ccRCzBZU.s:220    .text:0000000000000120 .L0 
     /tmp/ccRCzBZU.s:225    .text:0000000000000130 .L0 
     /tmp/ccRCzBZU.s:226    .text:0000000000000134 .L0 
     /tmp/ccRCzBZU.s:227    .text:0000000000000134 .L0 
     /tmp/ccRCzBZU.s:229    .text:0000000000000138 .L0 
     /tmp/ccRCzBZU.s:230    .text:0000000000000138 .L0 
     /tmp/ccRCzBZU.s:232    .text:000000000000013c .L0 
     /tmp/ccRCzBZU.s:235    .text:0000000000000140 .L0 
     /tmp/ccRCzBZU.s:239    .text:0000000000000144 .L0 
     /tmp/ccRCzBZU.s:241    .text:0000000000000144 .L0 
     /tmp/ccRCzBZU.s:242    .text:0000000000000144 .L0 
     /tmp/ccRCzBZU.s:246    .text:0000000000000154 .L0 
     /tmp/ccRCzBZU.s:252    .text:0000000000000154 _ZN3TCB10releaseAllEv
     /tmp/ccRCzBZU.s:255    .text:0000000000000154 .L0 
     /tmp/ccRCzBZU.s:257    .text:0000000000000154 .L0 
     /tmp/ccRCzBZU.s:258    .text:0000000000000158 .L0 
     /tmp/ccRCzBZU.s:263    .text:0000000000000168 .L0 
     /tmp/ccRCzBZU.s:264    .text:0000000000000168 .L0 
     /tmp/ccRCzBZU.s:265    .text:0000000000000168 .L0 
     /tmp/ccRCzBZU.s:266    .text:0000000000000168 .L0 
     /tmp/ccRCzBZU.s:268    .text:000000000000016c .L0 
     /tmp/ccRCzBZU.s:277    .text:0000000000000174 .L0 
     /tmp/ccRCzBZU.s:280    .text:0000000000000178 .L0 
     /tmp/ccRCzBZU.s:283    .text:000000000000017c .L0 
     /tmp/ccRCzBZU.s:290    .text:0000000000000184 .L0 
     /tmp/ccRCzBZU.s:291    .text:0000000000000184 .L0 
     /tmp/ccRCzBZU.s:292    .text:0000000000000184 .L0 
     /tmp/ccRCzBZU.s:297    .text:0000000000000188 .L0 
     /tmp/ccRCzBZU.s:298    .text:0000000000000188 .L0 
     /tmp/ccRCzBZU.s:304    .text:0000000000000194 .L0 
     /tmp/ccRCzBZU.s:307    .text:0000000000000194 .L0 
     /tmp/ccRCzBZU.s:308    .text:0000000000000194 .L0 
     /tmp/ccRCzBZU.s:310    .text:0000000000000198 .L0 
     /tmp/ccRCzBZU.s:312    .text:000000000000019c .L0 
     /tmp/ccRCzBZU.s:317    .text:00000000000001a0 .L0 
     /tmp/ccRCzBZU.s:323    .text:00000000000001a4 .L0 
     /tmp/ccRCzBZU.s:324    .text:00000000000001a4 .L0 
     /tmp/ccRCzBZU.s:326    .text:00000000000001a8 .L0 
     /tmp/ccRCzBZU.s:328    .text:00000000000001ac .L0 
     /tmp/ccRCzBZU.s:336    .text:00000000000001b4 .L0 
     /tmp/ccRCzBZU.s:337    .text:00000000000001b8 .L0 
     /tmp/ccRCzBZU.s:339    .text:00000000000001bc .L0 
     /tmp/ccRCzBZU.s:340    .text:00000000000001bc .L0 
     /tmp/ccRCzBZU.s:342    .text:00000000000001c0 .L0 
     /tmp/ccRCzBZU.s:344    .text:00000000000001c4 .L0 
     /tmp/ccRCzBZU.s:347    .text:00000000000001c8 .L0 
GAS LISTING /tmp/ccRCzBZU.s 			page 19


     /tmp/ccRCzBZU.s:349    .text:00000000000001cc .L0 
     /tmp/ccRCzBZU.s:358    .text:00000000000001cc .L0 
     /tmp/ccRCzBZU.s:359    .text:00000000000001cc .L0 
     /tmp/ccRCzBZU.s:360    .text:00000000000001d0 .L0 
     /tmp/ccRCzBZU.s:364    .text:00000000000001dc .L0 
     /tmp/ccRCzBZU.s:365    .text:00000000000001dc .L0 
     /tmp/ccRCzBZU.s:366    .text:00000000000001dc .L0 
     /tmp/ccRCzBZU.s:368    .text:00000000000001e0 .L0 
     /tmp/ccRCzBZU.s:373    .text:00000000000001e0 .L0 
     /tmp/ccRCzBZU.s:377    .text:00000000000001e0 .L0 
     /tmp/ccRCzBZU.s:378    .text:00000000000001e0 .L0 
     /tmp/ccRCzBZU.s:379    .text:00000000000001e0 .L0 
     /tmp/ccRCzBZU.s:389    .text:00000000000001e8 .L0 
 src/../h/kernel.hpp:122    .text:00000000000001e8 .L0 
     /tmp/ccRCzBZU.s:398    .text:00000000000001ec .L0 
     /tmp/ccRCzBZU.s:399    .text:00000000000001ec .L0 
     /tmp/ccRCzBZU.s:403    .text:00000000000001fc .L0 
     /tmp/ccRCzBZU.s:407    .text:0000000000000204 .L0 
     /tmp/ccRCzBZU.s:408    .text:0000000000000204 .L0 
     /tmp/ccRCzBZU.s:413    .text:0000000000000208 .L0 
     /tmp/ccRCzBZU.s:414    .text:0000000000000208 .L0 
     /tmp/ccRCzBZU.s:420    .text:0000000000000210 .L0 
     /tmp/ccRCzBZU.s:421    .text:0000000000000210 .L0 
     /tmp/ccRCzBZU.s:424    .text:0000000000000218 .L0 
     /tmp/ccRCzBZU.s:425    .text:0000000000000218 .L0 
     /tmp/ccRCzBZU.s:428    .text:0000000000000220 .L0 
     /tmp/ccRCzBZU.s:429    .text:0000000000000224 .L0 
     /tmp/ccRCzBZU.s:431    .text:0000000000000228 .L0 
     /tmp/ccRCzBZU.s:432    .text:0000000000000228 .L0 
     /tmp/ccRCzBZU.s:434    .text:000000000000022c .L0 
     /tmp/ccRCzBZU.s:436    .text:0000000000000230 .L0 
     /tmp/ccRCzBZU.s:438    .text:0000000000000234 .L0 
     /tmp/ccRCzBZU.s:444    .text:0000000000000234 _ZN3TCB4joinEPS_
     /tmp/ccRCzBZU.s:447    .text:0000000000000234 .L0 
     /tmp/ccRCzBZU.s:449    .text:0000000000000234 .L0 
     /tmp/ccRCzBZU.s:452    .text:0000000000000234 .L0 
     /tmp/ccRCzBZU.s:453    .text:0000000000000234 .L0 
     /tmp/ccRCzBZU.s:454    .text:0000000000000234 .L0 
     /tmp/ccRCzBZU.s:459    .text:0000000000000238 .L0 
     /tmp/ccRCzBZU.s:463    .text:0000000000000240 .L0 
     /tmp/ccRCzBZU.s:464    .text:0000000000000244 .L0 
     /tmp/ccRCzBZU.s:469    .text:0000000000000254 .L0 
     /tmp/ccRCzBZU.s:470    .text:0000000000000254 .L0 
     /tmp/ccRCzBZU.s:471    .text:0000000000000254 .L0 
     /tmp/ccRCzBZU.s:472    .text:0000000000000254 .L0 
     /tmp/ccRCzBZU.s:474    .text:0000000000000258 .L0 
     /tmp/ccRCzBZU.s:477    .text:000000000000025c .L0 
     /tmp/ccRCzBZU.s:478    .text:000000000000025c .L0 
     /tmp/ccRCzBZU.s:483    .text:0000000000000264 .L0 
     /tmp/ccRCzBZU.s:484    .text:0000000000000264 .L0 
     /tmp/ccRCzBZU.s:492    .text:000000000000026c .L0 
     /tmp/ccRCzBZU.s:493    .text:000000000000026c .L0 
     /tmp/ccRCzBZU.s:500    .text:0000000000000278 .L0 
     /tmp/ccRCzBZU.s:506    .text:0000000000000280 .L0 
     /tmp/ccRCzBZU.s:508    .text:0000000000000284 .L0 
     /tmp/ccRCzBZU.s:510    .text:0000000000000288 .L0 
     /tmp/ccRCzBZU.s:512    .text:000000000000028c .L0 
GAS LISTING /tmp/ccRCzBZU.s 			page 20


     /tmp/ccRCzBZU.s:518    .text:0000000000000290 .L0 
     /tmp/ccRCzBZU.s:519    .text:0000000000000294 .L0 
     /tmp/ccRCzBZU.s:520    .text:0000000000000294 .L0 
     /tmp/ccRCzBZU.s:522    .text:0000000000000298 .L0 
     /tmp/ccRCzBZU.s:523    .text:0000000000000298 .L0 
     /tmp/ccRCzBZU.s:525    .text:000000000000029c .L0 
     /tmp/ccRCzBZU.s:528    .text:00000000000002a0 .L0 
     /tmp/ccRCzBZU.s:530    .text:00000000000002a4 .L0 
     /tmp/ccRCzBZU.s:534    .text:00000000000002a8 .L0 
     /tmp/ccRCzBZU.s:538    .text:00000000000002a8 .L0 
     /tmp/ccRCzBZU.s:544    .text:00000000000002b0 .L0 
     /tmp/ccRCzBZU.s:545    .text:00000000000002b4 .L0 
     /tmp/ccRCzBZU.s:559    .bss:0000000000000008 _ZN3TCB16timeSliceCounterE
     /tmp/ccRCzBZU.s:555    .bss:0000000000000000 _ZN3TCB7runningE
     /tmp/ccRCzBZU.s:552    .bss:0000000000000000 .LANCHOR0
     /tmp/ccRCzBZU.s:566    .text:00000000000002b4 .L0 
     /tmp/ccRCzBZU.s:59     .text:000000000000004c .L0 
     /tmp/ccRCzBZU.s:198    .text:0000000000000100 .L0 
     /tmp/ccRCzBZU.s:217    .text:0000000000000118 .L0 
     /tmp/ccRCzBZU.s:399    .text:00000000000001ec .L0 
     /tmp/ccRCzBZU.s:478    .text:000000000000025c .L0 
     /tmp/ccRCzBZU.s:53     .text:0000000000000044 .L6
     /tmp/ccRCzBZU.s:56     .text:0000000000000048 .L2
     /tmp/ccRCzBZU.s:91     .text:0000000000000090 .L7
     /tmp/ccRCzBZU.s:109    .text:00000000000000b4 .L1
     /tmp/ccRCzBZU.s:66     .text:0000000000000064 .L3
     /tmp/ccRCzBZU.s:238    .text:0000000000000144 .L15
     /tmp/ccRCzBZU.s:211    .text:0000000000000110 .L13
     /tmp/ccRCzBZU.s:301    .text:0000000000000194 .L19
     /tmp/ccRCzBZU.s:331    .text:00000000000001b4 .L16
     /tmp/ccRCzBZU.s:278    .text:0000000000000178 .L18
     /tmp/ccRCzBZU.s:272    .text:0000000000000174 .L21
     /tmp/ccRCzBZU.s:461    .text:0000000000000240 .L31
     /tmp/ccRCzBZU.s:533    .text:00000000000002a8 .L26
     /tmp/ccRCzBZU.s:514    .text:0000000000000290 .L24
     /tmp/ccRCzBZU.s:34     .text:0000000000000020 .LEHB0
     /tmp/ccRCzBZU.s:10     .text:0000000000000000 .LFB37
     /tmp/ccRCzBZU.s:37     .text:0000000000000028 .LEHE0
     /tmp/ccRCzBZU.s:49     .text:0000000000000038 .LEHB1
     /tmp/ccRCzBZU.s:89     .text:000000000000008c .LEHE1
     /tmp/ccRCzBZU.s:95     .text:0000000000000098 .L8
     /tmp/ccRCzBZU.s:105    .text:00000000000000ac .LEHB2
     /tmp/ccRCzBZU.s:108    .text:00000000000000b4 .LEHE2
     /tmp/ccRCzBZU.s:2106   .debug_abbrev:0000000000000000 .Ldebug_abbrev0
     /tmp/ccRCzBZU.s:3970   .debug_str:00000000000007c6 .LASF145
     /tmp/ccRCzBZU.s:3850   .debug_str:0000000000000469 .LASF146
     /tmp/ccRCzBZU.s:3898   .debug_str:00000000000005ee .LASF147
     /tmp/ccRCzBZU.s:5      .text:0000000000000000 .Ltext0
     /tmp/ccRCzBZU.s:562    .text:00000000000002b4 .Letext0
     /tmp/ccRCzBZU.s:3700   .debug_line:0000000000000000 .Ldebug_line0
     /tmp/ccRCzBZU.s:3876   .debug_str:0000000000000534 .LASF0
     /tmp/ccRCzBZU.s:3896   .debug_str:00000000000005db .LASF1
     /tmp/ccRCzBZU.s:3856   .debug_str:0000000000000497 .LASF2
     /tmp/ccRCzBZU.s:3820   .debug_str:00000000000003a2 .LASF4
     /tmp/ccRCzBZU.s:3942   .debug_str:000000000000072b .LASF3
     /tmp/ccRCzBZU.s:3734   .debug_str:000000000000011e .LASF5
     /tmp/ccRCzBZU.s:3900   .debug_str:0000000000000608 .LASF6
GAS LISTING /tmp/ccRCzBZU.s 			page 21


     /tmp/ccRCzBZU.s:3874   .debug_str:0000000000000521 .LASF7
     /tmp/ccRCzBZU.s:3986   .debug_str:00000000000008f9 .LASF8
     /tmp/ccRCzBZU.s:3804   .debug_str:0000000000000307 .LASF9
     /tmp/ccRCzBZU.s:3910   .debug_str:000000000000064e .LASF10
     /tmp/ccRCzBZU.s:3976   .debug_str:00000000000008a6 .LASF11
     /tmp/ccRCzBZU.s:3740   .debug_str:000000000000013c .LASF12
     /tmp/ccRCzBZU.s:3710   .debug_str:0000000000000038 .LASF13
     /tmp/ccRCzBZU.s:3754   .debug_str:000000000000019e .LASF14
     /tmp/ccRCzBZU.s:3930   .debug_str:00000000000006e7 .LASF15
     /tmp/ccRCzBZU.s:3770   .debug_str:0000000000000223 .LASF16
     /tmp/ccRCzBZU.s:3906   .debug_str:000000000000062b .LASF17
     /tmp/ccRCzBZU.s:3796   .debug_str:00000000000002e0 .LASF71
     /tmp/ccRCzBZU.s:3814   .debug_str:0000000000000361 .LASF148
     /tmp/ccRCzBZU.s:3750   .debug_str:000000000000017c .LASF149
     /tmp/ccRCzBZU.s:3844   .debug_str:000000000000043d .LASF18
     /tmp/ccRCzBZU.s:3978   .debug_str:00000000000008b5 .LASF21
     /tmp/ccRCzBZU.s:3926   .debug_str:00000000000006cb .LASF19
     /tmp/ccRCzBZU.s:4010   .debug_str:00000000000009b5 .LASF20
     /tmp/ccRCzBZU.s:3866   .debug_str:00000000000004cd .LASF62
     /tmp/ccRCzBZU.s:3778   .debug_str:000000000000026c .LASF22
     /tmp/ccRCzBZU.s:3860   .debug_str:00000000000004b1 .LASF23
     /tmp/ccRCzBZU.s:3818   .debug_str:000000000000039d .LASF24
     /tmp/ccRCzBZU.s:3962   .debug_str:00000000000007a0 .LASF26
     /tmp/ccRCzBZU.s:3928   .debug_str:00000000000006d0 .LASF31
     /tmp/ccRCzBZU.s:3868   .debug_str:00000000000004ec .LASF150
     /tmp/ccRCzBZU.s:3806   .debug_str:0000000000000315 .LASF151
     /tmp/ccRCzBZU.s:3968   .debug_str:00000000000007bd .LASF25
     /tmp/ccRCzBZU.s:3782   .debug_str:000000000000028d .LASF27
     /tmp/ccRCzBZU.s:3802   .debug_str:00000000000002ff .LASF28
     /tmp/ccRCzBZU.s:3780   .debug_str:0000000000000271 .LASF29
     /tmp/ccRCzBZU.s:3972   .debug_str:000000000000088a .LASF30
     /tmp/ccRCzBZU.s:3708   .debug_str:000000000000001a .LASF32
     /tmp/ccRCzBZU.s:3748   .debug_str:0000000000000172 .LASF33
     /tmp/ccRCzBZU.s:3836   .debug_str:00000000000003f6 .LASF34
     /tmp/ccRCzBZU.s:3884   .debug_str:0000000000000568 .LASF35
     /tmp/ccRCzBZU.s:3724   .debug_str:00000000000000b0 .LASF36
     /tmp/ccRCzBZU.s:3840   .debug_str:0000000000000426 .LASF37
     /tmp/ccRCzBZU.s:4002   .debug_str:0000000000000974 .LASF38
     /tmp/ccRCzBZU.s:3718   .debug_str:0000000000000082 .LASF39
     /tmp/ccRCzBZU.s:3784   .debug_str:00000000000002aa .LASF40
     /tmp/ccRCzBZU.s:3920   .debug_str:00000000000006ad .LASF41
     /tmp/ccRCzBZU.s:3902   .debug_str:000000000000061b .LASF42
     /tmp/ccRCzBZU.s:3762   .debug_str:00000000000001e5 .LASF43
     /tmp/ccRCzBZU.s:3858   .debug_str:00000000000004a5 .LASF44
     /tmp/ccRCzBZU.s:4012   .debug_str:00000000000009ba .LASF45
     /tmp/ccRCzBZU.s:3716   .debug_str:0000000000000078 .LASF46
     /tmp/ccRCzBZU.s:3838   .debug_str:0000000000000411 .LASF47
     /tmp/ccRCzBZU.s:3822   .debug_str:00000000000003a9 .LASF48
     /tmp/ccRCzBZU.s:3982   .debug_str:00000000000008cf .LASF49
     /tmp/ccRCzBZU.s:3846   .debug_str:0000000000000447 .LASF50
     /tmp/ccRCzBZU.s:3732   .debug_str:0000000000000105 .LASF51
     /tmp/ccRCzBZU.s:3834   .debug_str:00000000000003e9 .LASF52
     /tmp/ccRCzBZU.s:3894   .debug_str:00000000000005bb .LASF53
     /tmp/ccRCzBZU.s:3924   .debug_str:00000000000006c6 .LASF152
     /tmp/ccRCzBZU.s:3932   .debug_str:00000000000006fd .LASF80
     /tmp/ccRCzBZU.s:3864   .debug_str:00000000000004bd .LASF82
     /tmp/ccRCzBZU.s:3788   .debug_str:00000000000002b8 .LASF153
GAS LISTING /tmp/ccRCzBZU.s 			page 22


     /tmp/ccRCzBZU.s:4006   .debug_str:0000000000000998 .LASF154
     /tmp/ccRCzBZU.s:3826   .debug_str:00000000000003bd .LASF54
     /tmp/ccRCzBZU.s:3880   .debug_str:000000000000054a .LASF55
     /tmp/ccRCzBZU.s:3830   .debug_str:00000000000003cd .LASF56
     /tmp/ccRCzBZU.s:3890   .debug_str:00000000000005a0 .LASF57
     /tmp/ccRCzBZU.s:3824   .debug_str:00000000000003b4 .LASF58
     /tmp/ccRCzBZU.s:3702   .debug_str:0000000000000000 .LASF59
     /tmp/ccRCzBZU.s:3810   .debug_str:0000000000000345 .LASF60
     /tmp/ccRCzBZU.s:3842   .debug_str:000000000000042f .LASF66
     /tmp/ccRCzBZU.s:3808   .debug_str:000000000000032c .LASF68
     /tmp/ccRCzBZU.s:3992   .debug_str:000000000000092e .LASF61
     /tmp/ccRCzBZU.s:3816   .debug_str:0000000000000375 .LASF63
     /tmp/ccRCzBZU.s:3946   .debug_str:000000000000074e .LASF64
     /tmp/ccRCzBZU.s:3912   .debug_str:000000000000065d .LASF65
     /tmp/ccRCzBZU.s:3878   .debug_str:0000000000000541 .LASF67
     /tmp/ccRCzBZU.s:3792   .debug_str:00000000000002c8 .LASF69
     /tmp/ccRCzBZU.s:3742   .debug_str:000000000000014c .LASF70
     /tmp/ccRCzBZU.s:3730   .debug_str:00000000000000ef .LASF85
     /tmp/ccRCzBZU.s:3944   .debug_str:000000000000073d .LASF72
     /tmp/ccRCzBZU.s:3738   .debug_str:0000000000000131 .LASF73
     /tmp/ccRCzBZU.s:3994   .debug_str:000000000000093c .LASF74
     /tmp/ccRCzBZU.s:3794   .debug_str:00000000000002db .LASF75
     /tmp/ccRCzBZU.s:3998   .debug_str:0000000000000960 .LASF76
     /tmp/ccRCzBZU.s:3756   .debug_str:00000000000001aa .LASF155
     /tmp/ccRCzBZU.s:3764   .debug_str:00000000000001fc .LASF77
     /tmp/ccRCzBZU.s:4000   .debug_str:0000000000000967 .LASF78
     /tmp/ccRCzBZU.s:3736   .debug_str:0000000000000125 .LASF79
     /tmp/ccRCzBZU.s:3904   .debug_str:0000000000000626 .LASF81
     /tmp/ccRCzBZU.s:3722   .debug_str:000000000000009e .LASF83
     /tmp/ccRCzBZU.s:3704   .debug_str:0000000000000008 .LASF84
     /tmp/ccRCzBZU.s:3872   .debug_str:0000000000000508 .LASF86
     /tmp/ccRCzBZU.s:3886   .debug_str:0000000000000573 .LASF87
     /tmp/ccRCzBZU.s:3914   .debug_str:000000000000066e .LASF88
     /tmp/ccRCzBZU.s:3950   .debug_str:000000000000075e .LASF89
     /tmp/ccRCzBZU.s:3712   .debug_str:0000000000000048 .LASF90
     /tmp/ccRCzBZU.s:3854   .debug_str:000000000000048e .LASF91
     /tmp/ccRCzBZU.s:3776   .debug_str:0000000000000256 .LASF93
     /tmp/ccRCzBZU.s:3964   .debug_str:00000000000007b3 .LASF92
     /tmp/ccRCzBZU.s:3870   .debug_str:00000000000004f6 .LASF94
     /tmp/ccRCzBZU.s:3786   .debug_str:00000000000002af .LASF95
     /tmp/ccRCzBZU.s:3766   .debug_str:0000000000000208 .LASF96
     /tmp/ccRCzBZU.s:3862   .debug_str:00000000000004b6 .LASF97
     /tmp/ccRCzBZU.s:3832   .debug_str:00000000000003d5 .LASF98
     /tmp/ccRCzBZU.s:3956   .debug_str:0000000000000783 .LASF99
     /tmp/ccRCzBZU.s:3720   .debug_str:000000000000008a .LASF100
     /tmp/ccRCzBZU.s:3752   .debug_str:0000000000000194 .LASF101
     /tmp/ccRCzBZU.s:3774   .debug_str:000000000000023f .LASF102
     /tmp/ccRCzBZU.s:4004   .debug_str:000000000000098e .LASF103
     /tmp/ccRCzBZU.s:3888   .debug_str:0000000000000589 .LASF104
     /tmp/ccRCzBZU.s:4008   .debug_str:00000000000009aa .LASF105
     /tmp/ccRCzBZU.s:3852   .debug_str:0000000000000475 .LASF106
     /tmp/ccRCzBZU.s:3828   .debug_str:00000000000003c2 .LASF107
     /tmp/ccRCzBZU.s:3996   .debug_str:0000000000000947 .LASF108
     /tmp/ccRCzBZU.s:3800   .debug_str:00000000000002f9 .LASF109
     /tmp/ccRCzBZU.s:3714   .debug_str:0000000000000065 .LASF110
     /tmp/ccRCzBZU.s:3916   .debug_str:0000000000000692 .LASF111
     /tmp/ccRCzBZU.s:3984   .debug_str:00000000000008e5 .LASF112
GAS LISTING /tmp/ccRCzBZU.s 			page 23


     /tmp/ccRCzBZU.s:3726   .debug_str:00000000000000cd .LASF113
     /tmp/ccRCzBZU.s:3918   .debug_str:0000000000000699 .LASF114
     /tmp/ccRCzBZU.s:3798   .debug_str:00000000000002f1 .LASF115
     /tmp/ccRCzBZU.s:3812   .debug_str:000000000000034c .LASF116
     /tmp/ccRCzBZU.s:3706   .debug_str:0000000000000012 .LASF117
     /tmp/ccRCzBZU.s:3848   .debug_str:0000000000000454 .LASF118
     /tmp/ccRCzBZU.s:3790   .debug_str:00000000000002c0 .LASF119
     /tmp/ccRCzBZU.s:4014   .debug_str:00000000000009d1 .LASF120
     /tmp/ccRCzBZU.s:3934   .debug_str:0000000000000703 .LASF121
     /tmp/ccRCzBZU.s:3940   .debug_str:0000000000000716 .LASF122
     /tmp/ccRCzBZU.s:3948   .debug_str:0000000000000753 .LASF123
     /tmp/ccRCzBZU.s:3908   .debug_str:0000000000000635 .LASF124
     /tmp/ccRCzBZU.s:3746   .debug_str:0000000000000164 .LASF125
     /tmp/ccRCzBZU.s:3922   .debug_str:00000000000006b9 .LASF126
     /tmp/ccRCzBZU.s:3892   .debug_str:00000000000005aa .LASF127
     /tmp/ccRCzBZU.s:3728   .debug_str:00000000000000d4 .LASF128
     /tmp/ccRCzBZU.s:3768   .debug_str:000000000000021e .LASF129
     /tmp/ccRCzBZU.s:3760   .debug_str:00000000000001c6 .LASF131
     /tmp/ccRCzBZU.s:3936   .debug_str:000000000000070b .LASF130
     /tmp/ccRCzBZU.s:3988   .debug_str:0000000000000909 .LASF132
     /tmp/ccRCzBZU.s:356    .text:00000000000001cc .LFB42
     /tmp/ccRCzBZU.s:439    .text:0000000000000234 .LFE42
     /tmp/ccRCzBZU.s:370    .text:00000000000001e0 .LBB57
     /tmp/ccRCzBZU.s:396    .text:00000000000001ec .LBE57
     /tmp/ccRCzBZU.s:375    .text:00000000000001e0 .LBB59
     /tmp/ccRCzBZU.s:387    .text:00000000000001e8 .LBE59
     /tmp/ccRCzBZU.s:3363   .debug_loc:0000000000000000 .LLST15
     /tmp/ccRCzBZU.s:410    .text:0000000000000208 .LBB61
     /tmp/ccRCzBZU.s:418    .text:0000000000000210 .LBE61
     /tmp/ccRCzBZU.s:3372   .debug_loc:0000000000000026 .LLST16
     /tmp/ccRCzBZU.s:3380   .debug_loc:000000000000004a .LLST17
     /tmp/ccRCzBZU.s:422    .text:0000000000000218 .LVL35
     /tmp/ccRCzBZU.s:426    .text:0000000000000220 .LVL36
     /tmp/ccRCzBZU.s:445    .text:0000000000000234 .LFB41
     /tmp/ccRCzBZU.s:546    .text:00000000000002b4 .LFE41
     /tmp/ccRCzBZU.s:3960   .debug_str:0000000000000799 .LASF133
     /tmp/ccRCzBZU.s:3387   .debug_loc:000000000000006d .LLST18
     /tmp/ccRCzBZU.s:450    .text:0000000000000234 .LBB63
     /tmp/ccRCzBZU.s:457    .text:0000000000000238 .LBE63
     /tmp/ccRCzBZU.s:3409   .debug_loc:00000000000000cc .LLST19
     /tmp/ccRCzBZU.s:480    .text:0000000000000264 .LBB65
     /tmp/ccRCzBZU.s:488    .text:000000000000026c .LBE65
     /tmp/ccRCzBZU.s:3416   .debug_loc:00000000000000ef .LLST20
     /tmp/ccRCzBZU.s:3424   .debug_loc:0000000000000113 .LLST21
     /tmp/ccRCzBZU.s:490    .text:000000000000026c .LBB67
     /tmp/ccRCzBZU.s:3680   .debug_ranges:0000000000000000 .Ldebug_ranges0
     /tmp/ccRCzBZU.s:3431   .debug_loc:0000000000000136 .LLST22
     /tmp/ccRCzBZU.s:3442   .debug_loc:000000000000016c .LLST23
     /tmp/ccRCzBZU.s:497    .text:0000000000000278 .LBB69
     /tmp/ccRCzBZU.s:504    .text:0000000000000280 .LBE69
     /tmp/ccRCzBZU.s:3457   .debug_loc:00000000000001a6 .LLST24
     /tmp/ccRCzBZU.s:3465   .debug_loc:00000000000001ca .LLST25
     /tmp/ccRCzBZU.s:3472   .debug_loc:00000000000001ed .LLST26
     /tmp/ccRCzBZU.s:496    .text:0000000000000278 .LVL42
     /tmp/ccRCzBZU.s:253    .text:0000000000000154 .LFB40
     /tmp/ccRCzBZU.s:350    .text:00000000000001cc .LFE40
     /tmp/ccRCzBZU.s:3479   .debug_loc:0000000000000210 .LLST7
GAS LISTING /tmp/ccRCzBZU.s 			page 24


     /tmp/ccRCzBZU.s:3497   .debug_loc:000000000000025c .LLST8
     /tmp/ccRCzBZU.s:274    .text:0000000000000174 .LBB48
     /tmp/ccRCzBZU.s:3504   .debug_loc:000000000000027f .LLST9
     /tmp/ccRCzBZU.s:3519   .debug_loc:00000000000002b9 .LLST10
     /tmp/ccRCzBZU.s:3530   .debug_loc:00000000000002ef .LLST11
     /tmp/ccRCzBZU.s:284    .text:0000000000000184 .LVL23
     /tmp/ccRCzBZU.s:288    .text:0000000000000184 .LBB51
     /tmp/ccRCzBZU.s:295    .text:0000000000000188 .LBE51
     /tmp/ccRCzBZU.s:3537   .debug_loc:0000000000000312 .LLST12
     /tmp/ccRCzBZU.s:3545   .debug_loc:0000000000000336 .LLST13
     /tmp/ccRCzBZU.s:300    .text:0000000000000194 .LVL25
     /tmp/ccRCzBZU.s:305    .text:0000000000000194 .LBB54
     /tmp/ccRCzBZU.s:315    .text:00000000000001a0 .LBE54
     /tmp/ccRCzBZU.s:3552   .debug_loc:0000000000000359 .LLST14
     /tmp/ccRCzBZU.s:183    .text:00000000000000ec .LFB39
     /tmp/ccRCzBZU.s:247    .text:0000000000000154 .LFE39
     /tmp/ccRCzBZU.s:3561   .debug_loc:000000000000037e .LLST5
     /tmp/ccRCzBZU.s:201    .text:0000000000000108 .LBB45
     /tmp/ccRCzBZU.s:208    .text:000000000000010c .LBE45
     /tmp/ccRCzBZU.s:3572   .debug_loc:00000000000003b4 .LLST6
     /tmp/ccRCzBZU.s:215    .text:0000000000000118 .LVL15
     /tmp/ccRCzBZU.s:223    .text:0000000000000130 .LVL16
     /tmp/ccRCzBZU.s:244    .text:0000000000000150 .LVL19
     /tmp/ccRCzBZU.s:153    .text:00000000000000d0 .LFB38
     /tmp/ccRCzBZU.s:177    .text:00000000000000ec .LFE38
     /tmp/ccRCzBZU.s:127    .text:00000000000000d0 .LFE37
     /tmp/ccRCzBZU.s:3579   .debug_loc:00000000000003d7 .LLST0
     /tmp/ccRCzBZU.s:3608   .debug_loc:000000000000044c .LLST1
     /tmp/ccRCzBZU.s:40     .text:000000000000002c .LBB41
     /tmp/ccRCzBZU.s:99     .text:000000000000009c .LBE41
     /tmp/ccRCzBZU.s:3622   .debug_loc:0000000000000485 .LLST2
     /tmp/ccRCzBZU.s:3647   .debug_loc:00000000000004e7 .LLST3
     /tmp/ccRCzBZU.s:73     .text:0000000000000074 .LBB43
     /tmp/ccRCzBZU.s:81     .text:000000000000007c .LBE43
     /tmp/ccRCzBZU.s:3658   .debug_loc:000000000000051d .LLST4
     /tmp/ccRCzBZU.s:51     .text:0000000000000040 .LVL4
     /tmp/ccRCzBZU.s:88     .text:000000000000008c .LVL7
     /tmp/ccRCzBZU.s:36     .text:0000000000000028 .LVL2
     /tmp/ccRCzBZU.s:103    .text:00000000000000a8 .LVL9
     /tmp/ccRCzBZU.s:107    .text:00000000000000b4 .LVL10
     /tmp/ccRCzBZU.s:3966   .debug_str:00000000000007b8 .LASF134
     /tmp/ccRCzBZU.s:3990   .debug_str:000000000000091c .LASF135
     /tmp/ccRCzBZU.s:3772   .debug_str:0000000000000239 .LASF136
     /tmp/ccRCzBZU.s:3980   .debug_str:00000000000008ba .LASF156
     /tmp/ccRCzBZU.s:3758   .debug_str:00000000000001b6 .LASF157
     /tmp/ccRCzBZU.s:3938   .debug_str:0000000000000710 .LASF137
     /tmp/ccRCzBZU.s:3744   .debug_str:0000000000000157 .LASF139
     /tmp/ccRCzBZU.s:4016   .debug_str:00000000000009e6 .LASF138
     /tmp/ccRCzBZU.s:3952   .debug_str:000000000000076d .LASF140
     /tmp/ccRCzBZU.s:3954   .debug_str:000000000000077d .LASF141
     /tmp/ccRCzBZU.s:3974   .debug_str:0000000000000896 .LASF142
     /tmp/ccRCzBZU.s:3958   .debug_str:000000000000078a .LASF143
     /tmp/ccRCzBZU.s:3882   .debug_str:0000000000000550 .LASF144
     /tmp/ccRCzBZU.s:374    .text:00000000000001e0 .LVL30
     /tmp/ccRCzBZU.s:384    .text:00000000000001e8 .LVL31
     /tmp/ccRCzBZU.s:409    .text:0000000000000208 .LVL33
     /tmp/ccRCzBZU.s:416    .text:0000000000000210 .LVL34
GAS LISTING /tmp/ccRCzBZU.s 			page 25


     /tmp/ccRCzBZU.s:448    .text:0000000000000234 .LVL37
     /tmp/ccRCzBZU.s:494    .text:0000000000000270 .LVL41
     /tmp/ccRCzBZU.s:526    .text:000000000000029c .LVL45
     /tmp/ccRCzBZU.s:532    .text:00000000000002a8 .LVL46
     /tmp/ccRCzBZU.s:455    .text:0000000000000238 .LVL38
     /tmp/ccRCzBZU.s:479    .text:0000000000000264 .LVL39
     /tmp/ccRCzBZU.s:486    .text:000000000000026c .LVL40
     /tmp/ccRCzBZU.s:513    .text:0000000000000290 .LVL44
     /tmp/ccRCzBZU.s:540    .text:00000000000002b0 .LVL47
     /tmp/ccRCzBZU.s:502    .text:0000000000000280 .LVL43
     /tmp/ccRCzBZU.s:256    .text:0000000000000154 .LVL20
     /tmp/ccRCzBZU.s:271    .text:0000000000000174 .LVL21
     /tmp/ccRCzBZU.s:345    .text:00000000000001c4 .LVL29
     /tmp/ccRCzBZU.s:320    .text:00000000000001a4 .LVL27
     /tmp/ccRCzBZU.s:330    .text:00000000000001b4 .LVL28
     /tmp/ccRCzBZU.s:281    .text:000000000000017c .LVL22
     /tmp/ccRCzBZU.s:293    .text:0000000000000188 .LVL24
     /tmp/ccRCzBZU.s:313    .text:00000000000001a0 .LVL26
     /tmp/ccRCzBZU.s:199    .text:0000000000000108 .LVL13
     /tmp/ccRCzBZU.s:233    .text:000000000000013c .LVL17
     /tmp/ccRCzBZU.s:237    .text:0000000000000144 .LVL18
     /tmp/ccRCzBZU.s:206    .text:000000000000010c .LVL14
     /tmp/ccRCzBZU.s:16     .text:0000000000000000 .LVL0
     /tmp/ccRCzBZU.s:33     .text:0000000000000020 .LVL1
     /tmp/ccRCzBZU.s:97     .text:000000000000009c .LVL8
     /tmp/ccRCzBZU.s:122    .text:00000000000000c8 .LVL12
     /tmp/ccRCzBZU.s:39     .text:000000000000002c .LVL3
     /tmp/ccRCzBZU.s:119    .text:00000000000000c4 .LVL11
     /tmp/ccRCzBZU.s:72     .text:0000000000000074 .LVL5
     /tmp/ccRCzBZU.s:79     .text:000000000000007c .LVL6
     /tmp/ccRCzBZU.s:567    .debug_info:0000000000000000 .Ldebug_info0
     /tmp/ccRCzBZU.s:273    .text:0000000000000174 .LBB47
     /tmp/ccRCzBZU.s:302    .text:0000000000000194 .LBE47
     /tmp/ccRCzBZU.s:318    .text:00000000000001a4 .LBB56
     /tmp/ccRCzBZU.s:334    .text:00000000000001b4 .LBE56
     /tmp/ccRCzBZU.s:286    .text:0000000000000184 .LBE48
     /tmp/ccRCzBZU.s:321    .text:00000000000001a4 .LBB53
     /tmp/ccRCzBZU.s:333    .text:00000000000001b4 .LBE53
     /tmp/ccRCzBZU.s:516    .text:0000000000000290 .LBE67
     /tmp/ccRCzBZU.s:535    .text:00000000000002a8 .LBB72
     /tmp/ccRCzBZU.s:542    .text:00000000000002b0 .LBE72
     /tmp/ccRCzBZU.s:130    .gcc_except_table:0000000000000000 .LLSDA37

UNDEFINED SYMBOLS
_Znwm
_Znam
_ZN9Scheduler3putEP3TCB
_ZdlPv
_Unwind_Resume
__gxx_personality_v0
_ZN9Scheduler3getEv
_ZN3TCB13contextSwitchEPNS_7ContextES1_
_Z15thread_dispatchv
