GAS LISTING /tmp/ccWtlHL6.s 			page 1


   1              		.file	"user_main.cpp"
   2              		.option pic
   3              		.option norelax
   4              		.text
   5              	.Ltext0:
   6              		.align	2
   7              		.globl	_Z8userMainv
   9              	_Z8userMainv:
  10              	.LFB41:
  11              		.file 1 "src/user_main.cpp"
   1:src/user_main.cpp **** #include "../lib/console.h"
   2:src/user_main.cpp **** #include "../h/syscall_c.hpp"
   3:src/user_main.cpp **** 
   4:src/user_main.cpp **** void userMain()
   5:src/user_main.cpp **** {
  12              		.loc 1 5 1
  13              		.cfi_startproc
  14 0000 130101FF 		addi	sp,sp,-16
  15              		.cfi_def_cfa_offset 16
  16 0004 23341100 		sd	ra,8(sp)
  17 0008 23308100 		sd	s0,0(sp)
  18              		.cfi_offset 1, -8
  19              		.cfi_offset 8, -16
  20 000c 13040101 		addi	s0,sp,16
  21              		.cfi_def_cfa 8, 0
   6:src/user_main.cpp ****     putc('H');
  22              		.loc 1 6 5
  23              		.loc 1 6 9 is_stmt 0
  24 0010 13058004 		li	a0,72
  25 0014 97000000 		call	_Z4putcc@plt
  25      E7800000 
  26              	.LVL0:
   7:src/user_main.cpp ****     putc('e');
  27              		.loc 1 7 5 is_stmt 1
  28              		.loc 1 7 9 is_stmt 0
  29 001c 13055006 		li	a0,101
  30 0020 97000000 		call	_Z4putcc@plt
  30      E7800000 
  31              	.LVL1:
   8:src/user_main.cpp ****     putc('l');
  32              		.loc 1 8 5 is_stmt 1
  33              		.loc 1 8 9 is_stmt 0
  34 0028 1305C006 		li	a0,108
  35 002c 97000000 		call	_Z4putcc@plt
  35      E7800000 
  36              	.LVL2:
   9:src/user_main.cpp ****     putc('l');
  37              		.loc 1 9 5 is_stmt 1
  38              		.loc 1 9 9 is_stmt 0
  39 0034 1305C006 		li	a0,108
  40 0038 97000000 		call	_Z4putcc@plt
  40      E7800000 
  41              	.LVL3:
  10:src/user_main.cpp ****     putc('o'); 
  42              		.loc 1 10 5 is_stmt 1
  43              		.loc 1 10 9 is_stmt 0
  44 0040 1305F006 		li	a0,111
GAS LISTING /tmp/ccWtlHL6.s 			page 2


  45 0044 97000000 		call	_Z4putcc@plt
  45      E7800000 
  46              	.LVL4:
  11:src/user_main.cpp **** }
  47              		.loc 1 11 1
  48 004c 83308100 		ld	ra,8(sp)
  49              		.cfi_restore 1
  50 0050 03340100 		ld	s0,0(sp)
  51              		.cfi_restore 8
  52              		.cfi_def_cfa 2, 16
  53 0054 13010101 		addi	sp,sp,16
  54              		.cfi_def_cfa_offset 0
  55 0058 67800000 		jr	ra
  56              		.cfi_endproc
  57              	.LFE41:
  59              	.Letext0:
  60              		.file 2 "src/../h/../lib/hw.h"
  61              		.file 3 "src/../h/syscall_c.hpp"
GAS LISTING /tmp/ccWtlHL6.s 			page 3

