GAS LISTING /tmp/ccYLaPmx.s 			page 1


   1              		.file	"user_main.cpp"
   2              		.option pic
   3              		.option norelax
   4              		.text
   5              	.Ltext0:
   6              		.align	2
   7              		.globl	_Z8functionPv
   9              	_Z8functionPv:
  10              	.LFB43:
  11              		.file 1 "src/user_main.cpp"
   1:src/user_main.cpp **** #include "../h/syscall_cpp.hpp"
   2:src/user_main.cpp **** sem_t sem;
   3:src/user_main.cpp **** void function(void* arg) {
  12              		.loc 1 3 26
  13              		.cfi_startproc
  14              	.LVL0:
  15 0000 130101FE 		addi	sp,sp,-32
  16              		.cfi_def_cfa_offset 32
  17 0004 233C1100 		sd	ra,24(sp)
  18 0008 23388100 		sd	s0,16(sp)
  19 000c 23349100 		sd	s1,8(sp)
  20              		.cfi_offset 1, -8
  21              		.cfi_offset 8, -16
  22              		.cfi_offset 9, -24
  23 0010 13040102 		addi	s0,sp,32
  24              		.cfi_def_cfa 8, 0
   4:src/user_main.cpp ****     for (int i = 0; i < 5; i++) {
  25              		.loc 1 4 5
  26              	.LVL1:
  27              	.LBB17:
  28              		.loc 1 4 14 is_stmt 0
  29 0014 93040000 		li	s1,0
  30              	.LVL2:
  31              	.L3:
  32              		.loc 1 4 23 is_stmt 1 discriminator 3
  33 0018 93074000 		li	a5,4
  34 001c 63CA9702 		bgt	s1,a5,.L1
   5:src/user_main.cpp ****         Console::putc('a');
  35              		.loc 1 5 9 discriminator 2
  36              		.loc 1 5 22 is_stmt 0 discriminator 2
  37 0020 13051006 		li	a0,97
  38 0024 97000000 		call	_ZN7Console4putcEc@plt
  38      E7800000 
  39              	.LVL3:
   6:src/user_main.cpp ****         Thread::sleep(5);
  40              		.loc 1 6 9 is_stmt 1 discriminator 2
  41              		.loc 1 6 22 is_stmt 0 discriminator 2
  42 002c 13055000 		li	a0,5
  43 0030 97000000 		call	_ZN6Thread5sleepEm@plt
  43      E7800000 
  44              	.LVL4:
   7:src/user_main.cpp ****         sem_signal(sem);
  45              		.loc 1 7 9 is_stmt 1 discriminator 2
  46              		.loc 1 7 19 is_stmt 0 discriminator 2
  47 0038 17050000 		ld	a0,.LANCHOR0
  47      03350500 
  48 0040 97000000 		call	_Z10sem_signalP10KSemaphore@plt
GAS LISTING /tmp/ccYLaPmx.s 			page 2


  48      E7800000 
  49              	.LVL5:
   4:src/user_main.cpp ****         Console::putc('a');
  50              		.loc 1 4 5 is_stmt 1 discriminator 2
  51 0048 9B841400 		addiw	s1,s1,1
  52              	.LVL6:
  53 004c 6FF0DFFC 		j	.L3
  54              	.LVL7:
  55              	.L1:
  56              	.LBE17:
   8:src/user_main.cpp ****     }
   9:src/user_main.cpp **** }
  57              		.loc 1 9 1 is_stmt 0
  58 0050 83308101 		ld	ra,24(sp)
  59              		.cfi_restore 1
  60 0054 03340101 		ld	s0,16(sp)
  61              		.cfi_restore 8
  62              		.cfi_def_cfa 2, 32
  63 0058 83348100 		ld	s1,8(sp)
  64              		.cfi_restore 9
  65              	.LVL8:
  66 005c 13010102 		addi	sp,sp,32
  67              		.cfi_def_cfa_offset 0
  68 0060 67800000 		jr	ra
  69              		.cfi_endproc
  70              	.LFE43:
  72              		.section	.text._ZN16MyPeriodicThread18periodicActivationEv,"axG",@progbits,_ZN16MyPeriodicThread18
  73              		.align	2
  74              		.weak	_ZN16MyPeriodicThread18periodicActivationEv
  76              	_ZN16MyPeriodicThread18periodicActivationEv:
  77              	.LFB51:
  10:src/user_main.cpp **** 
  11:src/user_main.cpp **** class MyPeriodicThread : public PeriodicThread {
  12:src/user_main.cpp **** public:
  13:src/user_main.cpp ****     MyPeriodicThread(time_t period)
  14:src/user_main.cpp ****         : PeriodicThread(period)
  15:src/user_main.cpp ****     {
  16:src/user_main.cpp ****     }
  17:src/user_main.cpp **** 
  18:src/user_main.cpp **** protected:
  19:src/user_main.cpp ****     void periodicActivation() override {
  78              		.loc 1 19 10 is_stmt 1
  79              		.cfi_startproc
  80              	.LVL9:
  81 0000 130101FF 		addi	sp,sp,-16
  82              		.cfi_def_cfa_offset 16
  83 0004 23341100 		sd	ra,8(sp)
  84 0008 23308100 		sd	s0,0(sp)
  85              		.cfi_offset 1, -8
  86              		.cfi_offset 8, -16
  87 000c 13040101 		addi	s0,sp,16
  88              		.cfi_def_cfa 8, 0
  20:src/user_main.cpp ****         Console::putc('b');
  89              		.loc 1 20 9
  90              		.loc 1 20 22 is_stmt 0
  91 0010 13052006 		li	a0,98
  92              	.LVL10:
GAS LISTING /tmp/ccYLaPmx.s 			page 3


  93 0014 97000000 		call	_ZN7Console4putcEc@plt
  93      E7800000 
  94              	.LVL11:
  21:src/user_main.cpp ****         sem_signal(sem);
  95              		.loc 1 21 9 is_stmt 1
  96              		.loc 1 21 19 is_stmt 0
  97 001c 17050000 		ld	a0,.LANCHOR0
  97      03350500 
  98 0024 97000000 		call	_Z10sem_signalP10KSemaphore@plt
  98      E7800000 
  99              	.LVL12:
  22:src/user_main.cpp ****     }
 100              		.loc 1 22 5
 101 002c 83308100 		ld	ra,8(sp)
 102              		.cfi_restore 1
 103 0030 03340100 		ld	s0,0(sp)
 104              		.cfi_restore 8
 105              		.cfi_def_cfa 2, 16
 106 0034 13010101 		addi	sp,sp,16
 107              		.cfi_def_cfa_offset 0
 108 0038 67800000 		jr	ra
 109              		.cfi_endproc
 110              	.LFE51:
 112              		.section	.text._ZN16MyPeriodicThreadD2Ev,"axG",@progbits,_ZN16MyPeriodicThreadD5Ev,comdat
 113              		.align	2
 114              		.weak	_ZN16MyPeriodicThreadD2Ev
 116              	_ZN16MyPeriodicThreadD2Ev:
 117              	.LFB60:
  11:src/user_main.cpp **** public:
 118              		.loc 1 11 7 is_stmt 1
 119              		.cfi_startproc
 120              	.LVL13:
 121 0000 130101FF 		addi	sp,sp,-16
 122              		.cfi_def_cfa_offset 16
 123 0004 23341100 		sd	ra,8(sp)
 124 0008 23308100 		sd	s0,0(sp)
 125              		.cfi_offset 1, -8
 126              		.cfi_offset 8, -16
 127 000c 13040101 		addi	s0,sp,16
 128              		.cfi_def_cfa 8, 0
 129              	.LVL14:
 130              	.LBB18:
 131              	.LBB19:
 132              		.file 2 "src/../h/syscall_cpp.hpp"
   1:src/../h/syscall_cpp.hpp **** #ifndef _syscall_cpp 
   2:src/../h/syscall_cpp.hpp **** #define _syscall_cpp 
   3:src/../h/syscall_cpp.hpp ****  
   4:src/../h/syscall_cpp.hpp **** #include "syscall_c.hpp" 
   5:src/../h/syscall_cpp.hpp ****  
   6:src/../h/syscall_cpp.hpp **** void* operator new (size_t); 
   7:src/../h/syscall_cpp.hpp **** void  operator delete (void*); 
   8:src/../h/syscall_cpp.hpp ****  
   9:src/../h/syscall_cpp.hpp **** class Thread { 
  10:src/../h/syscall_cpp.hpp **** public: 
  11:src/../h/syscall_cpp.hpp ****   Thread (void (*body)(void*), void* arg); 
  12:src/../h/syscall_cpp.hpp ****   virtual ~Thread (); 
  13:src/../h/syscall_cpp.hpp ****  
GAS LISTING /tmp/ccYLaPmx.s 			page 4


  14:src/../h/syscall_cpp.hpp ****   int start (); 
  15:src/../h/syscall_cpp.hpp ****  
  16:src/../h/syscall_cpp.hpp ****   static void dispatch (); 
  17:src/../h/syscall_cpp.hpp ****   static int sleep (time_t); 
  18:src/../h/syscall_cpp.hpp ****   static void wrapper(void*);
  19:src/../h/syscall_cpp.hpp ****  
  20:src/../h/syscall_cpp.hpp **** protected: 
  21:src/../h/syscall_cpp.hpp ****   Thread (); 
  22:src/../h/syscall_cpp.hpp ****   virtual void run () {} 
  23:src/../h/syscall_cpp.hpp ****  
  24:src/../h/syscall_cpp.hpp **** private: 
  25:src/../h/syscall_cpp.hpp ****   thread_t myHandle; 
  26:src/../h/syscall_cpp.hpp ****   void (*body)(void*); void* arg; 
  27:src/../h/syscall_cpp.hpp **** }; 
  28:src/../h/syscall_cpp.hpp ****  
  29:src/../h/syscall_cpp.hpp ****  
  30:src/../h/syscall_cpp.hpp **** class Semaphore { 
  31:src/../h/syscall_cpp.hpp **** public: 
  32:src/../h/syscall_cpp.hpp ****  
  33:src/../h/syscall_cpp.hpp ****   Semaphore (unsigned init = 1); 
  34:src/../h/syscall_cpp.hpp ****   virtual ~Semaphore (); 
  35:src/../h/syscall_cpp.hpp ****  
  36:src/../h/syscall_cpp.hpp ****   int wait (); 
  37:src/../h/syscall_cpp.hpp ****   int signal (); 
  38:src/../h/syscall_cpp.hpp ****  
  39:src/../h/syscall_cpp.hpp **** private: 
  40:src/../h/syscall_cpp.hpp ****   sem_t myHandle; 
  41:src/../h/syscall_cpp.hpp ****  
  42:src/../h/syscall_cpp.hpp **** }; 
  43:src/../h/syscall_cpp.hpp ****  
  44:src/../h/syscall_cpp.hpp ****  
  45:src/../h/syscall_cpp.hpp **** class PeriodicThread : public Thread { 
 133              		.loc 2 45 7 is_stmt 0
 134 0010 97070000 		la	a5,_ZTV14PeriodicThread
 134      83B70700 
 135 0018 93870701 		addi	a5,a5,16
 136 001c 2330F500 		sd	a5,0(a0)
 137 0020 97000000 		call	_ZN6ThreadD2Ev@plt
 137      E7800000 
 138              	.LVL15:
 139              	.LBE19:
 140              	.LBE18:
  11:src/user_main.cpp **** public:
 141              		.loc 1 11 7
 142 0028 83308100 		ld	ra,8(sp)
 143              		.cfi_restore 1
 144 002c 03340100 		ld	s0,0(sp)
 145              		.cfi_restore 8
 146              		.cfi_def_cfa 2, 16
 147 0030 13010101 		addi	sp,sp,16
 148              		.cfi_def_cfa_offset 0
 149 0034 67800000 		jr	ra
 150              		.cfi_endproc
 151              	.LFE60:
 153              		.weak	_ZN16MyPeriodicThreadD1Ev
 154              		.set	_ZN16MyPeriodicThreadD1Ev,_ZN16MyPeriodicThreadD2Ev
 155              		.section	.text._ZN16MyPeriodicThreadD0Ev,"axG",@progbits,_ZN16MyPeriodicThreadD5Ev,comdat
GAS LISTING /tmp/ccYLaPmx.s 			page 5


 156              		.align	2
 157              		.weak	_ZN16MyPeriodicThreadD0Ev
 159              	_ZN16MyPeriodicThreadD0Ev:
 160              	.LFB62:
  11:src/user_main.cpp **** public:
 161              		.loc 1 11 7 is_stmt 1
 162              		.cfi_startproc
 163              	.LVL16:
 164 0000 130101FE 		addi	sp,sp,-32
 165              		.cfi_def_cfa_offset 32
 166 0004 233C1100 		sd	ra,24(sp)
 167 0008 23388100 		sd	s0,16(sp)
 168 000c 23349100 		sd	s1,8(sp)
 169              		.cfi_offset 1, -8
 170              		.cfi_offset 8, -16
 171              		.cfi_offset 9, -24
 172 0010 13040102 		addi	s0,sp,32
 173              		.cfi_def_cfa 8, 0
 174 0014 93040500 		mv	s1,a0
 175              	.LVL17:
 176              	.LBB20:
 177              	.LBB21:
 178              	.LBB22:
 179              		.loc 2 45 7 is_stmt 0
 180 0018 97070000 		la	a5,_ZTV14PeriodicThread
 180      83B70700 
 181 0020 93870701 		addi	a5,a5,16
 182 0024 2330F500 		sd	a5,0(a0)
 183 0028 97000000 		call	_ZN6ThreadD2Ev@plt
 183      E7800000 
 184              	.LVL18:
 185              	.LBE22:
 186              	.LBE21:
 187              	.LBE20:
  11:src/user_main.cpp **** public:
 188              		.loc 1 11 7
 189 0030 13850400 		mv	a0,s1
 190 0034 97000000 		call	_ZdlPv@plt
 190      E7800000 
 191              	.LVL19:
 192 003c 83308101 		ld	ra,24(sp)
 193              		.cfi_restore 1
 194 0040 03340101 		ld	s0,16(sp)
 195              		.cfi_restore 8
 196              		.cfi_def_cfa 2, 32
 197 0044 83348100 		ld	s1,8(sp)
 198              		.cfi_restore 9
 199              	.LVL20:
 200 0048 13010102 		addi	sp,sp,32
 201              		.cfi_def_cfa_offset 0
 202 004c 67800000 		jr	ra
 203              		.cfi_endproc
 204              	.LFE62:
 206              		.text
 207              		.align	2
 208              		.globl	_Z8userMainv
 210              	_Z8userMainv:
GAS LISTING /tmp/ccYLaPmx.s 			page 6


 211              	.LFB52:
  23:src/user_main.cpp **** };
  24:src/user_main.cpp **** 
  25:src/user_main.cpp **** void userMain()
  26:src/user_main.cpp **** {
 212              		.loc 1 26 1 is_stmt 1
 213              		.cfi_startproc
 214              		.cfi_personality 0x9b,DW.ref.__gxx_personality_v0
 215              		.cfi_lsda 0x1b,.LLSDA52
 216 0064 130101FE 		addi	sp,sp,-32
 217              		.cfi_def_cfa_offset 32
 218 0068 233C1100 		sd	ra,24(sp)
 219 006c 23388100 		sd	s0,16(sp)
 220 0070 23349100 		sd	s1,8(sp)
 221 0074 23302101 		sd	s2,0(sp)
 222              		.cfi_offset 1, -8
 223              		.cfi_offset 8, -16
 224              		.cfi_offset 9, -24
 225              		.cfi_offset 18, -32
 226 0078 13040102 		addi	s0,sp,32
 227              		.cfi_def_cfa 8, 0
  27:src/user_main.cpp ****     
  28:src/user_main.cpp ****     sem_open(&sem, 0);
 228              		.loc 1 28 5
 229              		.loc 1 28 13 is_stmt 0
 230 007c 93050000 		li	a1,0
 231 0080 17050000 		lla	a0,.LANCHOR0
 231      13050500 
 232              	.LEHB0:
 233 0088 97000000 		call	_Z8sem_openPP10KSemaphorej@plt
 233      E7800000 
 234              	.LVL21:
  29:src/user_main.cpp ****     Thread* t1 = new Thread(function, nullptr);
 235              		.loc 1 29 5 is_stmt 1
 236              		.loc 1 29 46 is_stmt 0
 237 0090 13050002 		li	a0,32
 238 0094 97000000 		call	_Znwm@plt
 238      E7800000 
 239              	.LVL22:
 240              	.LEHE0:
 241 009c 93040500 		mv	s1,a0
 242 00a0 13060000 		li	a2,0
 243 00a4 97050000 		lla	a1,_Z8functionPv
 243      93850500 
 244              	.LEHB1:
 245 00ac 97000000 		call	_ZN6ThreadC1EPFvPvES0_@plt
 245      E7800000 
 246              	.LVL23:
 247              	.LEHE1:
  30:src/user_main.cpp ****     t1->start();
 248              		.loc 1 30 5 is_stmt 1 discriminator 2
 249              		.loc 1 30 14 is_stmt 0 discriminator 2
 250 00b4 13850400 		mv	a0,s1
 251              	.LEHB2:
 252 00b8 97000000 		call	_ZN6Thread5startEv@plt
 252      E7800000 
 253              	.LVL24:
GAS LISTING /tmp/ccYLaPmx.s 			page 7


  31:src/user_main.cpp ****     MyPeriodicThread* pt = new MyPeriodicThread(10);
 254              		.loc 1 31 5 is_stmt 1 discriminator 2
 255              		.loc 1 31 51 is_stmt 0 discriminator 2
 256 00c0 13050003 		li	a0,48
 257 00c4 97000000 		call	_Znwm@plt
 257      E7800000 
 258              	.LVL25:
 259              	.LEHE2:
 260 00cc 93040500 		mv	s1,a0
 261              	.LVL26:
 262              	.LBB23:
 263              	.LBB24:
  14:src/user_main.cpp ****     {
 264              		.loc 1 14 32 discriminator 2
 265 00d0 9305A000 		li	a1,10
 266              	.LEHB3:
 267 00d4 97000000 		call	_ZN14PeriodicThreadC2Em@plt
 267      E7800000 
 268              	.LVL27:
 269              	.LEHE3:
  14:src/user_main.cpp ****     {
 270              		.loc 1 14 32
 271 00dc 97070000 		lla	a5,_ZTV16MyPeriodicThread+16
 271      93870700 
 272 00e4 23B0F400 		sd	a5,0(s1)
 273              	.LVL28:
 274              	.LBE24:
 275              	.LBE23:
  32:src/user_main.cpp ****     pt->start();
 276              		.loc 1 32 5 is_stmt 1
 277              		.loc 1 32 14 is_stmt 0
 278 00e8 13850400 		mv	a0,s1
 279              	.LEHB4:
 280 00ec 97000000 		call	_ZN6Thread5startEv@plt
 280      E7800000 
 281              	.LVL29:
  33:src/user_main.cpp ****     sem_wait_n(sem, 10);
 282              		.loc 1 33 5 is_stmt 1
 283              		.loc 1 33 15 is_stmt 0
 284 00f4 9305A000 		li	a1,10
 285 00f8 17050000 		ld	a0,.LANCHOR0
 285      03350500 
 286 0100 97000000 		call	_Z10sem_wait_nP10KSemaphorej@plt
 286      E7800000 
 287              	.LVL30:
 288              	.LEHE4:
  34:src/user_main.cpp **** }
 289              		.loc 1 34 1
 290 0108 83308101 		ld	ra,24(sp)
 291              		.cfi_remember_state
 292              		.cfi_restore 1
 293 010c 03340101 		ld	s0,16(sp)
 294              		.cfi_restore 8
 295              		.cfi_def_cfa 2, 32
 296 0110 83348100 		ld	s1,8(sp)
 297              		.cfi_restore 9
 298              	.LVL31:
GAS LISTING /tmp/ccYLaPmx.s 			page 8


 299 0114 03390100 		ld	s2,0(sp)
 300              		.cfi_restore 18
 301 0118 13010102 		addi	sp,sp,32
 302              		.cfi_def_cfa_offset 0
 303 011c 67800000 		jr	ra
 304              	.L14:
 305              		.cfi_restore_state
 306 0120 13090500 		mv	s2,a0
  29:src/user_main.cpp ****     t1->start();
 307              		.loc 1 29 46
 308 0124 13850400 		mv	a0,s1
 309 0128 97000000 		call	_ZdlPv@plt
 309      E7800000 
 310              	.LVL32:
 311 0130 13050900 		mv	a0,s2
 312              	.LEHB5:
 313 0134 97000000 		call	_Unwind_Resume@plt
 313      E7800000 
 314              	.LVL33:
 315              	.LEHE5:
 316              	.L15:
 317 013c 13090500 		mv	s2,a0
  31:src/user_main.cpp ****     pt->start();
 318              		.loc 1 31 51
 319 0140 13850400 		mv	a0,s1
 320 0144 97000000 		call	_ZdlPv@plt
 320      E7800000 
 321              	.LVL34:
 322 014c 13050900 		mv	a0,s2
 323              	.LEHB6:
 324 0150 97000000 		call	_Unwind_Resume@plt
 324      E7800000 
 325              	.LVL35:
 326              	.LEHE6:
 327              		.cfi_endproc
 328              	.LFE52:
 329              		.globl	__gxx_personality_v0
 330              		.section	.gcc_except_table,"a",@progbits
 331              	.LLSDA52:
 332 0000 FF       		.byte	0xff
 333 0001 FF       		.byte	0xff
 334 0002 03       		.byte	0x3
 335 0003 5B       		.byte	0x5b
 336 0004 00000000 		.4byte	.LEHB0-.LFB52
 337 0008 00000000 		.4byte	.LEHE0-.LEHB0
 338 000c 00000000 		.4byte	0
 339 0010 00       		.byte	0
 340 0011 00000000 		.4byte	.LEHB1-.LFB52
 341 0015 00000000 		.4byte	.LEHE1-.LEHB1
 342 0019 00000000 		.4byte	.L14-.LFB52
 343 001d 00       		.byte	0
 344 001e 00000000 		.4byte	.LEHB2-.LFB52
 345 0022 00000000 		.4byte	.LEHE2-.LEHB2
 346 0026 00000000 		.4byte	0
 347 002a 00       		.byte	0
 348 002b 00000000 		.4byte	.LEHB3-.LFB52
 349 002f 00000000 		.4byte	.LEHE3-.LEHB3
GAS LISTING /tmp/ccYLaPmx.s 			page 9


 350 0033 00000000 		.4byte	.L15-.LFB52
 351 0037 00       		.byte	0
 352 0038 00000000 		.4byte	.LEHB4-.LFB52
 353 003c 00000000 		.4byte	.LEHE4-.LEHB4
 354 0040 00000000 		.4byte	0
 355 0044 00       		.byte	0
 356 0045 00000000 		.4byte	.LEHB5-.LFB52
 357 0049 00000000 		.4byte	.LEHE5-.LEHB5
 358 004d 00000000 		.4byte	0
 359 0051 00       		.byte	0
 360 0052 00000000 		.4byte	.LEHB6-.LFB52
 361 0056 00000000 		.4byte	.LEHE6-.LEHB6
 362 005a 00000000 		.4byte	0
 363 005e 00       		.byte	0
 364              		.text
 366              		.weak	_ZTV16MyPeriodicThread
 367              		.section	.data.rel.ro._ZTV16MyPeriodicThread,"awG",@progbits,_ZTV16MyPeriodicThread,comdat
 368              		.align	3
 371              	_ZTV16MyPeriodicThread:
 372 0000 00000000 		.dword	0
 372      00000000 
 373 0008 00000000 		.dword	0
 373      00000000 
 374 0010 00000000 		.dword	_ZN16MyPeriodicThreadD1Ev
 374      00000000 
 375 0018 00000000 		.dword	_ZN16MyPeriodicThreadD0Ev
 375      00000000 
 376 0020 00000000 		.dword	_ZN14PeriodicThread3runEv
 376      00000000 
 377 0028 00000000 		.dword	_ZN16MyPeriodicThread18periodicActivationEv
 377      00000000 
 378              		.globl	sem
 379              		.bss
 380              		.align	3
 381              		.set	.LANCHOR0,. + 0
 384              	sem:
 385 0000 00000000 		.zero	8
 385      00000000 
 386              		.text
 387              	.Letext0:
 388              		.file 3 "src/../h/../lib/hw.h"
 389              		.file 4 "src/../h/list.hpp"
 390              		.file 5 "src/../h/tcb.hpp"
 391              		.file 6 "src/../h/semaphore.hpp"
 392              		.file 7 "src/../h/syscall_c.hpp"
 3983              		.align	3
 3986              	DW.ref.__gxx_personality_v0:
 3987 0000 00000000 		.dword	__gxx_personality_v0
 3987      00000000 
 3988              		.ident	"GCC: (Ubuntu 9.4.0-1ubuntu1~20.04) 9.4.0"
 3989              		.section	.note.GNU-stack,"",@progbits
GAS LISTING /tmp/ccYLaPmx.s 			page 10


DEFINED SYMBOLS
                            *ABS*:0000000000000000 user_main.cpp
     /tmp/ccYLaPmx.s:9      .text:0000000000000000 _Z8functionPv
     /tmp/ccYLaPmx.s:13     .text:0000000000000000 .L0 
     /tmp/ccYLaPmx.s:15     .text:0000000000000000 .L0 
     /tmp/ccYLaPmx.s:16     .text:0000000000000004 .L0 
     /tmp/ccYLaPmx.s:20     .text:0000000000000010 .L0 
     /tmp/ccYLaPmx.s:21     .text:0000000000000010 .L0 
     /tmp/ccYLaPmx.s:22     .text:0000000000000010 .L0 
     /tmp/ccYLaPmx.s:24     .text:0000000000000014 .L0 
     /tmp/ccYLaPmx.s:28     .text:0000000000000014 .L0 
     /tmp/ccYLaPmx.s:29     .text:0000000000000014 .L0 
     /tmp/ccYLaPmx.s:33     .text:0000000000000018 .L0 
     /tmp/ccYLaPmx.s:36     .text:0000000000000020 .L0 
     /tmp/ccYLaPmx.s:37     .text:0000000000000020 .L0 
     /tmp/ccYLaPmx.s:41     .text:000000000000002c .L0 
     /tmp/ccYLaPmx.s:42     .text:000000000000002c .L0 
     /tmp/ccYLaPmx.s:46     .text:0000000000000038 .L0 
     /tmp/ccYLaPmx.s:47     .text:0000000000000038 .L0 
     /tmp/ccYLaPmx.s:51     .text:0000000000000048 .L0 
     /tmp/ccYLaPmx.s:58     .text:0000000000000050 .L0 
     /tmp/ccYLaPmx.s:59     .text:0000000000000054 .L0 
     /tmp/ccYLaPmx.s:61     .text:0000000000000058 .L0 
     /tmp/ccYLaPmx.s:62     .text:0000000000000058 .L0 
     /tmp/ccYLaPmx.s:64     .text:000000000000005c .L0 
     /tmp/ccYLaPmx.s:67     .text:0000000000000060 .L0 
     /tmp/ccYLaPmx.s:69     .text:0000000000000064 .L0 
     /tmp/ccYLaPmx.s:76     .text._ZN16MyPeriodicThread18periodicActivationEv:0000000000000000 _ZN16MyPeriodicThread18periodicActivationEv
     /tmp/ccYLaPmx.s:79     .text._ZN16MyPeriodicThread18periodicActivationEv:0000000000000000 .L0 
     /tmp/ccYLaPmx.s:81     .text._ZN16MyPeriodicThread18periodicActivationEv:0000000000000000 .L0 
     /tmp/ccYLaPmx.s:82     .text._ZN16MyPeriodicThread18periodicActivationEv:0000000000000004 .L0 
     /tmp/ccYLaPmx.s:85     .text._ZN16MyPeriodicThread18periodicActivationEv:000000000000000c .L0 
     /tmp/ccYLaPmx.s:86     .text._ZN16MyPeriodicThread18periodicActivationEv:000000000000000c .L0 
     /tmp/ccYLaPmx.s:88     .text._ZN16MyPeriodicThread18periodicActivationEv:0000000000000010 .L0 
     /tmp/ccYLaPmx.s:90     .text._ZN16MyPeriodicThread18periodicActivationEv:0000000000000010 .L0 
     /tmp/ccYLaPmx.s:91     .text._ZN16MyPeriodicThread18periodicActivationEv:0000000000000010 .L0 
     /tmp/ccYLaPmx.s:96     .text._ZN16MyPeriodicThread18periodicActivationEv:000000000000001c .L0 
     /tmp/ccYLaPmx.s:97     .text._ZN16MyPeriodicThread18periodicActivationEv:000000000000001c .L0 
     /tmp/ccYLaPmx.s:101    .text._ZN16MyPeriodicThread18periodicActivationEv:000000000000002c .L0 
     /tmp/ccYLaPmx.s:102    .text._ZN16MyPeriodicThread18periodicActivationEv:0000000000000030 .L0 
     /tmp/ccYLaPmx.s:104    .text._ZN16MyPeriodicThread18periodicActivationEv:0000000000000034 .L0 
     /tmp/ccYLaPmx.s:105    .text._ZN16MyPeriodicThread18periodicActivationEv:0000000000000034 .L0 
     /tmp/ccYLaPmx.s:107    .text._ZN16MyPeriodicThread18periodicActivationEv:0000000000000038 .L0 
     /tmp/ccYLaPmx.s:109    .text._ZN16MyPeriodicThread18periodicActivationEv:000000000000003c .L0 
     /tmp/ccYLaPmx.s:116    .text._ZN16MyPeriodicThreadD2Ev:0000000000000000 _ZN16MyPeriodicThreadD2Ev
     /tmp/ccYLaPmx.s:119    .text._ZN16MyPeriodicThreadD2Ev:0000000000000000 .L0 
     /tmp/ccYLaPmx.s:121    .text._ZN16MyPeriodicThreadD2Ev:0000000000000000 .L0 
     /tmp/ccYLaPmx.s:122    .text._ZN16MyPeriodicThreadD2Ev:0000000000000004 .L0 
     /tmp/ccYLaPmx.s:125    .text._ZN16MyPeriodicThreadD2Ev:000000000000000c .L0 
     /tmp/ccYLaPmx.s:126    .text._ZN16MyPeriodicThreadD2Ev:000000000000000c .L0 
     /tmp/ccYLaPmx.s:128    .text._ZN16MyPeriodicThreadD2Ev:0000000000000010 .L0 
     /tmp/ccYLaPmx.s:134    .text._ZN16MyPeriodicThreadD2Ev:0000000000000010 .L0 
     /tmp/ccYLaPmx.s:142    .text._ZN16MyPeriodicThreadD2Ev:0000000000000028 .L0 
     /tmp/ccYLaPmx.s:143    .text._ZN16MyPeriodicThreadD2Ev:000000000000002c .L0 
     /tmp/ccYLaPmx.s:145    .text._ZN16MyPeriodicThreadD2Ev:0000000000000030 .L0 
     /tmp/ccYLaPmx.s:146    .text._ZN16MyPeriodicThreadD2Ev:0000000000000030 .L0 
     /tmp/ccYLaPmx.s:148    .text._ZN16MyPeriodicThreadD2Ev:0000000000000034 .L0 
GAS LISTING /tmp/ccYLaPmx.s 			page 11


     /tmp/ccYLaPmx.s:150    .text._ZN16MyPeriodicThreadD2Ev:0000000000000038 .L0 
     /tmp/ccYLaPmx.s:116    .text._ZN16MyPeriodicThreadD2Ev:0000000000000000 _ZN16MyPeriodicThreadD1Ev
     /tmp/ccYLaPmx.s:159    .text._ZN16MyPeriodicThreadD0Ev:0000000000000000 _ZN16MyPeriodicThreadD0Ev
     /tmp/ccYLaPmx.s:162    .text._ZN16MyPeriodicThreadD0Ev:0000000000000000 .L0 
     /tmp/ccYLaPmx.s:164    .text._ZN16MyPeriodicThreadD0Ev:0000000000000000 .L0 
     /tmp/ccYLaPmx.s:165    .text._ZN16MyPeriodicThreadD0Ev:0000000000000004 .L0 
     /tmp/ccYLaPmx.s:169    .text._ZN16MyPeriodicThreadD0Ev:0000000000000010 .L0 
     /tmp/ccYLaPmx.s:170    .text._ZN16MyPeriodicThreadD0Ev:0000000000000010 .L0 
     /tmp/ccYLaPmx.s:171    .text._ZN16MyPeriodicThreadD0Ev:0000000000000010 .L0 
     /tmp/ccYLaPmx.s:173    .text._ZN16MyPeriodicThreadD0Ev:0000000000000014 .L0 
     /tmp/ccYLaPmx.s:180    .text._ZN16MyPeriodicThreadD0Ev:0000000000000018 .L0 
     /tmp/ccYLaPmx.s:189    .text._ZN16MyPeriodicThreadD0Ev:0000000000000030 .L0 
     /tmp/ccYLaPmx.s:193    .text._ZN16MyPeriodicThreadD0Ev:0000000000000040 .L0 
     /tmp/ccYLaPmx.s:195    .text._ZN16MyPeriodicThreadD0Ev:0000000000000044 .L0 
     /tmp/ccYLaPmx.s:196    .text._ZN16MyPeriodicThreadD0Ev:0000000000000044 .L0 
     /tmp/ccYLaPmx.s:198    .text._ZN16MyPeriodicThreadD0Ev:0000000000000048 .L0 
     /tmp/ccYLaPmx.s:201    .text._ZN16MyPeriodicThreadD0Ev:000000000000004c .L0 
     /tmp/ccYLaPmx.s:203    .text._ZN16MyPeriodicThreadD0Ev:0000000000000050 .L0 
     /tmp/ccYLaPmx.s:210    .text:0000000000000064 _Z8userMainv
     /tmp/ccYLaPmx.s:213    .text:0000000000000064 .L0 
     /tmp/ccYLaPmx.s:3986   .data.rel.local.DW.ref.__gxx_personality_v0:0000000000000000 DW.ref.__gxx_personality_v0
     /tmp/ccYLaPmx.s:216    .text:0000000000000064 .L0 
     /tmp/ccYLaPmx.s:217    .text:0000000000000068 .L0 
     /tmp/ccYLaPmx.s:222    .text:0000000000000078 .L0 
     /tmp/ccYLaPmx.s:223    .text:0000000000000078 .L0 
     /tmp/ccYLaPmx.s:224    .text:0000000000000078 .L0 
     /tmp/ccYLaPmx.s:225    .text:0000000000000078 .L0 
     /tmp/ccYLaPmx.s:227    .text:000000000000007c .L0 
     /tmp/ccYLaPmx.s:229    .text:000000000000007c .L0 
     /tmp/ccYLaPmx.s:230    .text:000000000000007c .L0 
     /tmp/ccYLaPmx.s:236    .text:0000000000000090 .L0 
     /tmp/ccYLaPmx.s:237    .text:0000000000000090 .L0 
     /tmp/ccYLaPmx.s:249    .text:00000000000000b4 .L0 
     /tmp/ccYLaPmx.s:250    .text:00000000000000b4 .L0 
     /tmp/ccYLaPmx.s:255    .text:00000000000000c0 .L0 
     /tmp/ccYLaPmx.s:256    .text:00000000000000c0 .L0 
     /tmp/ccYLaPmx.s:265    .text:00000000000000d0 .L0 
     /tmp/ccYLaPmx.s:371    .data.rel.ro._ZTV16MyPeriodicThread:0000000000000000 _ZTV16MyPeriodicThread
     /tmp/ccYLaPmx.s:271    .text:00000000000000dc .L0 
     /tmp/ccYLaPmx.s:277    .text:00000000000000e8 .L0 
     /tmp/ccYLaPmx.s:278    .text:00000000000000e8 .L0 
     /tmp/ccYLaPmx.s:283    .text:00000000000000f4 .L0 
     /tmp/ccYLaPmx.s:284    .text:00000000000000f4 .L0 
     /tmp/ccYLaPmx.s:290    .text:0000000000000108 .L0 
     /tmp/ccYLaPmx.s:291    .text:000000000000010c .L0 
     /tmp/ccYLaPmx.s:292    .text:000000000000010c .L0 
     /tmp/ccYLaPmx.s:294    .text:0000000000000110 .L0 
     /tmp/ccYLaPmx.s:295    .text:0000000000000110 .L0 
     /tmp/ccYLaPmx.s:297    .text:0000000000000114 .L0 
     /tmp/ccYLaPmx.s:300    .text:0000000000000118 .L0 
     /tmp/ccYLaPmx.s:302    .text:000000000000011c .L0 
     /tmp/ccYLaPmx.s:305    .text:0000000000000120 .L0 
     /tmp/ccYLaPmx.s:308    .text:0000000000000124 .L0 
     /tmp/ccYLaPmx.s:319    .text:0000000000000140 .L0 
     /tmp/ccYLaPmx.s:327    .text:0000000000000158 .L0 
     /tmp/ccYLaPmx.s:384    .bss:0000000000000000 sem
     /tmp/ccYLaPmx.s:381    .bss:0000000000000000 .LANCHOR0
GAS LISTING /tmp/ccYLaPmx.s 			page 12


     /tmp/ccYLaPmx.s:393    .text:0000000000000158 .L0 
     /tmp/ccYLaPmx.s:112    .text._ZN16MyPeriodicThread18periodicActivationEv:000000000000003c .L0 
     /tmp/ccYLaPmx.s:155    .text._ZN16MyPeriodicThreadD2Ev:0000000000000038 .L0 
     /tmp/ccYLaPmx.s:206    .text._ZN16MyPeriodicThreadD0Ev:0000000000000050 .L0 
     /tmp/ccYLaPmx.s:47     .text:0000000000000038 .L0 
     /tmp/ccYLaPmx.s:231    .text:0000000000000080 .L0 
     /tmp/ccYLaPmx.s:243    .text:00000000000000a4 .L0 
     /tmp/ccYLaPmx.s:271    .text:00000000000000dc .L0 
     /tmp/ccYLaPmx.s:285    .text:00000000000000f8 .L0 
     /tmp/ccYLaPmx.s:55     .text:0000000000000050 .L1
     /tmp/ccYLaPmx.s:31     .text:0000000000000018 .L3
     /tmp/ccYLaPmx.s:97     .text._ZN16MyPeriodicThread18periodicActivationEv:000000000000001c .L0 
     /tmp/ccYLaPmx.s:134    .text._ZN16MyPeriodicThreadD2Ev:0000000000000010 .L0 
     /tmp/ccYLaPmx.s:180    .text._ZN16MyPeriodicThreadD0Ev:0000000000000018 .L0 
     /tmp/ccYLaPmx.s:232    .text:0000000000000088 .LEHB0
     /tmp/ccYLaPmx.s:211    .text:0000000000000064 .LFB52
     /tmp/ccYLaPmx.s:240    .text:000000000000009c .LEHE0
     /tmp/ccYLaPmx.s:244    .text:00000000000000ac .LEHB1
     /tmp/ccYLaPmx.s:247    .text:00000000000000b4 .LEHE1
     /tmp/ccYLaPmx.s:304    .text:0000000000000120 .L14
     /tmp/ccYLaPmx.s:251    .text:00000000000000b8 .LEHB2
     /tmp/ccYLaPmx.s:259    .text:00000000000000cc .LEHE2
     /tmp/ccYLaPmx.s:266    .text:00000000000000d4 .LEHB3
     /tmp/ccYLaPmx.s:269    .text:00000000000000dc .LEHE3
     /tmp/ccYLaPmx.s:316    .text:000000000000013c .L15
     /tmp/ccYLaPmx.s:279    .text:00000000000000ec .LEHB4
     /tmp/ccYLaPmx.s:288    .text:0000000000000108 .LEHE4
     /tmp/ccYLaPmx.s:312    .text:0000000000000134 .LEHB5
     /tmp/ccYLaPmx.s:315    .text:000000000000013c .LEHE5
     /tmp/ccYLaPmx.s:323    .text:0000000000000150 .LEHB6
     /tmp/ccYLaPmx.s:326    .text:0000000000000158 .LEHE6
     /tmp/ccYLaPmx.s:2169   .debug_abbrev:0000000000000000 .Ldebug_abbrev0
     /tmp/ccYLaPmx.s:3920   .debug_str:0000000000000b18 .LASF167
     /tmp/ccYLaPmx.s:3660   .debug_str:00000000000001c7 .LASF168
     /tmp/ccYLaPmx.s:3752   .debug_str:00000000000005ce .LASF169
     /tmp/ccYLaPmx.s:3602   .debug_ranges:0000000000000000 .Ldebug_ranges0
     /tmp/ccYLaPmx.s:3614   .debug_line:0000000000000000 .Ldebug_line0
     /tmp/ccYLaPmx.s:3748   .debug_str:00000000000005bc .LASF0
     /tmp/ccYLaPmx.s:3770   .debug_str:0000000000000679 .LASF1
     /tmp/ccYLaPmx.s:3858   .debug_str:0000000000000954 .LASF2
     /tmp/ccYLaPmx.s:3868   .debug_str:0000000000000998 .LASF4
     /tmp/ccYLaPmx.s:3756   .debug_str:0000000000000605 .LASF3
     /tmp/ccYLaPmx.s:3630   .debug_str:0000000000000097 .LASF5
     /tmp/ccYLaPmx.s:3834   .debug_str:00000000000008a1 .LASF6
     /tmp/ccYLaPmx.s:3826   .debug_str:000000000000080f .LASF7
     /tmp/ccYLaPmx.s:3764   .debug_str:0000000000000658 .LASF8
     /tmp/ccYLaPmx.s:3720   .debug_str:000000000000049f .LASF9
     /tmp/ccYLaPmx.s:3732   .debug_str:0000000000000518 .LASF10
     /tmp/ccYLaPmx.s:3664   .debug_str:00000000000001e9 .LASF11
     /tmp/ccYLaPmx.s:3710   .debug_str:000000000000042f .LASF12
     /tmp/ccYLaPmx.s:3676   .debug_str:000000000000028e .LASF13
     /tmp/ccYLaPmx.s:3662   .debug_str:00000000000001d9 .LASF14
     /tmp/ccYLaPmx.s:3902   .debug_str:0000000000000abe .LASF15
     /tmp/ccYLaPmx.s:3696   .debug_str:0000000000000374 .LASF16
     /tmp/ccYLaPmx.s:3892   .debug_str:0000000000000a7d .LASF17
     /tmp/ccYLaPmx.s:3788   .debug_str:0000000000000718 .LASF18
     /tmp/ccYLaPmx.s:3950   .debug_str:0000000000000cab .LASF39
GAS LISTING /tmp/ccYLaPmx.s 			page 13


     /tmp/ccYLaPmx.s:3942   .debug_str:0000000000000c60 .LASF116
     /tmp/ccYLaPmx.s:3898   .debug_str:0000000000000aac .LASF19
     /tmp/ccYLaPmx.s:3808   .debug_str:0000000000000799 .LASF20
     /tmp/ccYLaPmx.s:3768   .debug_str:0000000000000674 .LASF21
     /tmp/ccYLaPmx.s:3802   .debug_str:0000000000000772 .LASF22
     /tmp/ccYLaPmx.s:3894   .debug_str:0000000000000a93 .LASF24
     /tmp/ccYLaPmx.s:3704   .debug_str:00000000000003fa .LASF29
     /tmp/ccYLaPmx.s:3862   .debug_str:000000000000096f .LASF119
     /tmp/ccYLaPmx.s:3848   .debug_str:0000000000000903 .LASF120
     /tmp/ccYLaPmx.s:3766   .debug_str:000000000000066b .LASF23
     /tmp/ccYLaPmx.s:3654   .debug_str:000000000000015d .LASF25
     /tmp/ccYLaPmx.s:3784   .debug_str:00000000000006fa .LASF26
     /tmp/ccYLaPmx.s:3698   .debug_str:000000000000038a .LASF27
     /tmp/ccYLaPmx.s:3824   .debug_str:0000000000000803 .LASF28
     /tmp/ccYLaPmx.s:3952   .debug_str:0000000000000cb5 .LASF30
     /tmp/ccYLaPmx.s:3976   .debug_str:0000000000000d6e .LASF31
     /tmp/ccYLaPmx.s:3970   .debug_str:0000000000000d2c .LASF32
     /tmp/ccYLaPmx.s:3880   .debug_str:0000000000000a07 .LASF33
     /tmp/ccYLaPmx.s:3762   .debug_str:000000000000063b .LASF34
     /tmp/ccYLaPmx.s:3840   .debug_str:00000000000008ca .LASF35
     /tmp/ccYLaPmx.s:3622   .debug_str:000000000000003f .LASF36
     /tmp/ccYLaPmx.s:3874   .debug_str:00000000000009ba .LASF37
     /tmp/ccYLaPmx.s:3838   .debug_str:00000000000008b1 .LASF38
     /tmp/ccYLaPmx.s:3906   .debug_str:0000000000000ad3 .LASF170
     /tmp/ccYLaPmx.s:3870   .debug_str:000000000000099f .LASF40
     /tmp/ccYLaPmx.s:3626   .debug_str:0000000000000081 .LASF41
     /tmp/ccYLaPmx.s:3908   .debug_str:0000000000000adb .LASF42
     /tmp/ccYLaPmx.s:3806   .debug_str:0000000000000782 .LASF43
     /tmp/ccYLaPmx.s:3646   .debug_str:0000000000000124 .LASF44
     /tmp/ccYLaPmx.s:3938   .debug_str:0000000000000c41 .LASF45
     /tmp/ccYLaPmx.s:3956   .debug_str:0000000000000cda .LASF46
     /tmp/ccYLaPmx.s:3656   .debug_str:000000000000017a .LASF47
     /tmp/ccYLaPmx.s:3912   .debug_str:0000000000000afb .LASF48
     /tmp/ccYLaPmx.s:3672   .debug_str:000000000000023d .LASF49
     /tmp/ccYLaPmx.s:3934   .debug_str:0000000000000c2d .LASF50
     /tmp/ccYLaPmx.s:3822   .debug_str:00000000000007ec .LASF51
     /tmp/ccYLaPmx.s:3804   .debug_str:0000000000000777 .LASF52
     /tmp/ccYLaPmx.s:3786   .debug_str:0000000000000702 .LASF53
     /tmp/ccYLaPmx.s:3836   .debug_str:00000000000008a8 .LASF54
     /tmp/ccYLaPmx.s:3884   .debug_str:0000000000000a1b .LASF55
     /tmp/ccYLaPmx.s:3900   .debug_str:0000000000000ab1 .LASF56
     /tmp/ccYLaPmx.s:3946   .debug_str:0000000000000c7d .LASF57
     /tmp/ccYLaPmx.s:3820   .debug_str:00000000000007e7 .LASF171
     /tmp/ccYLaPmx.s:3772   .debug_str:000000000000068c .LASF60
     /tmp/ccYLaPmx.s:3926   .debug_str:0000000000000c03 .LASF62
     /tmp/ccYLaPmx.s:3850   .debug_str:000000000000091a .LASF58
     /tmp/ccYLaPmx.s:3872   .debug_str:00000000000009a4 .LASF59
     /tmp/ccYLaPmx.s:3800   .debug_str:0000000000000768 .LASF61
     /tmp/ccYLaPmx.s:3864   .debug_str:0000000000000979 .LASF63
     /tmp/ccYLaPmx.s:3918   .debug_str:0000000000000b10 .LASF64
     /tmp/ccYLaPmx.s:3968   .debug_str:0000000000000d1c .LASF65
     /tmp/ccYLaPmx.s:3974   .debug_str:0000000000000d61 .LASF66
     /tmp/ccYLaPmx.s:3726   .debug_str:00000000000004e5 .LASF67
     /tmp/ccYLaPmx.s:3794   .debug_str:0000000000000739 .LASF68
     /tmp/ccYLaPmx.s:3718   .debug_str:0000000000000493 .LASF69
     /tmp/ccYLaPmx.s:3620   .debug_str:000000000000002f .LASF70
     /tmp/ccYLaPmx.s:3814   .debug_str:00000000000007cb .LASF72
GAS LISTING /tmp/ccYLaPmx.s 			page 14


     /tmp/ccYLaPmx.s:3890   .debug_str:0000000000000a6a .LASF71
     /tmp/ccYLaPmx.s:3860   .debug_str:0000000000000962 .LASF73
     /tmp/ccYLaPmx.s:3922   .debug_str:0000000000000bdc .LASF172
     /tmp/ccYLaPmx.s:3618   .debug_str:000000000000002a .LASF74
     /tmp/ccYLaPmx.s:3886   .debug_str:0000000000000a2e .LASF75
     /tmp/ccYLaPmx.s:3936   .debug_str:0000000000000c39 .LASF76
     /tmp/ccYLaPmx.s:3904   .debug_str:0000000000000aca .LASF77
     /tmp/ccYLaPmx.s:3816   .debug_str:00000000000007d8 .LASF78
     /tmp/ccYLaPmx.s:3932   .debug_str:0000000000000c23 .LASF79
     /tmp/ccYLaPmx.s:3928   .debug_str:0000000000000c13 .LASF80
     /tmp/ccYLaPmx.s:3652   .debug_str:000000000000014f .LASF85
     /tmp/ccYLaPmx.s:3776   .debug_str:00000000000006a5 .LASF87
     /tmp/ccYLaPmx.s:3680   .debug_str:00000000000002a7 .LASF81
     /tmp/ccYLaPmx.s:3624   .debug_str:0000000000000059 .LASF83
     /tmp/ccYLaPmx.s:3916   .debug_str:0000000000000b0b .LASF82
     /tmp/ccYLaPmx.s:3714   .debug_str:0000000000000449 .LASF84
     /tmp/ccYLaPmx.s:3688   .debug_str:000000000000030c .LASF86
     /tmp/ccYLaPmx.s:3668   .debug_str:0000000000000207 .LASF88
     /tmp/ccYLaPmx.s:3640   .debug_str:00000000000000d8 .LASF89
     /tmp/ccYLaPmx.s:3780   .debug_str:00000000000006d0 .LASF90
     /tmp/ccYLaPmx.s:3876   .debug_str:00000000000009c2 .LASF173
     /tmp/ccYLaPmx.s:3866   .debug_str:000000000000098d .LASF91
     /tmp/ccYLaPmx.s:3958   .debug_str:0000000000000ce4 .LASF92
     /tmp/ccYLaPmx.s:3842   .debug_str:00000000000008d3 .LASF93
     /tmp/ccYLaPmx.s:3962   .debug_str:0000000000000cf5 .LASF94
     /tmp/ccYLaPmx.s:3852   .debug_str:0000000000000925 .LASF95
     /tmp/ccYLaPmx.s:3636   .debug_str:00000000000000c8 .LASF96
     /tmp/ccYLaPmx.s:3832   .debug_str:0000000000000875 .LASF97
     /tmp/ccYLaPmx.s:3730   .debug_str:0000000000000504 .LASF98
     /tmp/ccYLaPmx.s:3940   .debug_str:0000000000000c58 .LASF99
     /tmp/ccYLaPmx.s:3702   .debug_str:00000000000003e0 .LASF100
     /tmp/ccYLaPmx.s:3758   .debug_str:0000000000000617 .LASF101
     /tmp/ccYLaPmx.s:3690   .debug_str:0000000000000315 .LASF102
     /tmp/ccYLaPmx.s:3856   .debug_str:0000000000000944 .LASF103
     /tmp/ccYLaPmx.s:3670   .debug_str:000000000000021a .LASF104
     /tmp/ccYLaPmx.s:3930   .debug_str:0000000000000c1a .LASF105
     /tmp/ccYLaPmx.s:3828   .debug_str:0000000000000822 .LASF106
     /tmp/ccYLaPmx.s:3634   .debug_str:00000000000000c2 .LASF107
     /tmp/ccYLaPmx.s:3708   .debug_str:0000000000000417 .LASF108
     /tmp/ccYLaPmx.s:3792   .debug_str:0000000000000725 .LASF109
     /tmp/ccYLaPmx.s:3782   .debug_str:00000000000006e6 .LASF110
     /tmp/ccYLaPmx.s:3742   .debug_str:000000000000057d .LASF111
     /tmp/ccYLaPmx.s:3910   .debug_str:0000000000000ae6 .LASF112
     /tmp/ccYLaPmx.s:3954   .debug_str:0000000000000cd3 .LASF113
     /tmp/ccYLaPmx.s:3896   .debug_str:0000000000000aa6 .LASF114
     /tmp/ccYLaPmx.s:3632   .debug_str:000000000000009e .LASF115
     /tmp/ccYLaPmx.s:3692   .debug_str:0000000000000331 .LASF117
     /tmp/ccYLaPmx.s:3734   .debug_str:0000000000000526 .LASF118
     /tmp/ccYLaPmx.s:3878   .debug_str:00000000000009d3 .LASF121
     /tmp/ccYLaPmx.s:3700   .debug_str:00000000000003a6 .LASF122
     /tmp/ccYLaPmx.s:3716   .debug_str:000000000000045a .LASF123
     /tmp/ccYLaPmx.s:3674   .debug_str:0000000000000253 .LASF124
     /tmp/ccYLaPmx.s:3658   .debug_str:000000000000018f .LASF125
     /tmp/ccYLaPmx.s:3642   .debug_str:00000000000000e3 .LASF126
     /tmp/ccYLaPmx.s:3830   .debug_str:000000000000083e .LASF127
     /tmp/ccYLaPmx.s:3888   .debug_str:0000000000000a34 .LASF128
     /tmp/ccYLaPmx.s:3960   .debug_str:0000000000000cef .LASF129
GAS LISTING /tmp/ccYLaPmx.s 			page 15


     /tmp/ccYLaPmx.s:3790   .debug_str:000000000000071d .LASF130
     /tmp/ccYLaPmx.s:3750   .debug_str:00000000000005c9 .LASF174
     /tmp/ccYLaPmx.s:3682   .debug_str:00000000000002b5 .LASF175
     /tmp/ccYLaPmx.s:3796   .debug_str:0000000000000749 .LASF131
     /tmp/ccYLaPmx.s:3694   .debug_str:0000000000000361 .LASF132
     /tmp/ccYLaPmx.s:3914   .debug_str:0000000000000b06 .LASF133
     /tmp/ccYLaPmx.s:3740   .debug_str:000000000000056c .LASF134
     /tmp/ccYLaPmx.s:3844   .debug_str:00000000000008de .LASF135
     /tmp/ccYLaPmx.s:3810   .debug_str:000000000000079e .LASF136
     /tmp/ccYLaPmx.s:3798   .debug_str:000000000000074e .LASF137
     /tmp/ccYLaPmx.s:3728   .debug_str:00000000000004f1 .LASF140
     /tmp/ccYLaPmx.s:3686   .debug_str:00000000000002e0 .LASF176
     /tmp/ccYLaPmx.s:3778   .debug_str:00000000000006be .LASF138
     /tmp/ccYLaPmx.s:3760   .debug_str:0000000000000621 .LASF177
     /tmp/ccYLaPmx.s:3666   .debug_str:00000000000001f8 .LASF142
     /tmp/ccYLaPmx.s:3812   .debug_str:00000000000007bb .LASF139
     /tmp/ccYLaPmx.s:3944   .debug_str:0000000000000c65 .LASF178
     /tmp/ccYLaPmx.s:3616   .debug_str:0000000000000000 .LASF141
     /tmp/ccYLaPmx.s:3738   .debug_str:0000000000000565 .LASF143
     /tmp/ccYLaPmx.s:3774   .debug_str:0000000000000692 .LASF144
     /tmp/ccYLaPmx.s:3966   .debug_str:0000000000000d16 .LASF146
     /tmp/ccYLaPmx.s:3924   .debug_str:0000000000000bf0 .LASF145
     /tmp/ccYLaPmx.s:3638   .debug_str:00000000000000d2 .LASF147
     /tmp/ccYLaPmx.s:3650   .debug_str:000000000000014a .LASF148
     /tmp/ccYLaPmx.s:3628   .debug_str:000000000000008d .LASF149
     /tmp/ccYLaPmx.s:3648   .debug_str:0000000000000130 .LASF150
     /tmp/ccYLaPmx.s:160    .text._ZN16MyPeriodicThreadD0Ev:0000000000000000 .LFB62
     /tmp/ccYLaPmx.s:204    .text._ZN16MyPeriodicThreadD0Ev:0000000000000050 .LFE62
     /tmp/ccYLaPmx.s:3444   .debug_loc:0000000000000000 .LLST5
     /tmp/ccYLaPmx.s:176    .text._ZN16MyPeriodicThreadD0Ev:0000000000000018 .LBB20
     /tmp/ccYLaPmx.s:187    .text._ZN16MyPeriodicThreadD0Ev:0000000000000030 .LBE20
     /tmp/ccYLaPmx.s:3462   .debug_loc:000000000000004c .LLST6
     /tmp/ccYLaPmx.s:177    .text._ZN16MyPeriodicThreadD0Ev:0000000000000018 .LBB21
     /tmp/ccYLaPmx.s:186    .text._ZN16MyPeriodicThreadD0Ev:0000000000000030 .LBE21
     /tmp/ccYLaPmx.s:184    .text._ZN16MyPeriodicThreadD0Ev:0000000000000030 .LVL18
     /tmp/ccYLaPmx.s:191    .text._ZN16MyPeriodicThreadD0Ev:000000000000003c .LVL19
     /tmp/ccYLaPmx.s:3724   .debug_str:00000000000004cb .LASF151
     /tmp/ccYLaPmx.s:117    .text._ZN16MyPeriodicThreadD2Ev:0000000000000000 .LFB60
     /tmp/ccYLaPmx.s:151    .text._ZN16MyPeriodicThreadD2Ev:0000000000000038 .LFE60
     /tmp/ccYLaPmx.s:3473   .debug_loc:0000000000000082 .LLST3
     /tmp/ccYLaPmx.s:130    .text._ZN16MyPeriodicThreadD2Ev:0000000000000010 .LBB18
     /tmp/ccYLaPmx.s:140    .text._ZN16MyPeriodicThreadD2Ev:0000000000000028 .LBE18
     /tmp/ccYLaPmx.s:3487   .debug_loc:00000000000000bb .LLST4
     /tmp/ccYLaPmx.s:138    .text._ZN16MyPeriodicThreadD2Ev:0000000000000028 .LVL15
     /tmp/ccYLaPmx.s:3882   .debug_str:0000000000000a12 .LASF152
     /tmp/ccYLaPmx.s:3746   .debug_str:00000000000005af .LASF153
     /tmp/ccYLaPmx.s:328    .text:0000000000000158 .LFE52
     /tmp/ccYLaPmx.s:3501   .debug_loc:00000000000000f4 .LLST8
     /tmp/ccYLaPmx.s:3508   .debug_loc:0000000000000117 .LLST9
     /tmp/ccYLaPmx.s:262    .text:00000000000000d0 .LBB23
     /tmp/ccYLaPmx.s:275    .text:00000000000000e8 .LBE23
     /tmp/ccYLaPmx.s:3515   .debug_loc:000000000000013a .LLST10
     /tmp/ccYLaPmx.s:3528   .debug_loc:0000000000000172 .LLST11
     /tmp/ccYLaPmx.s:268    .text:00000000000000dc .LVL27
     /tmp/ccYLaPmx.s:234    .text:0000000000000090 .LVL21
     /tmp/ccYLaPmx.s:239    .text:000000000000009c .LVL22
     /tmp/ccYLaPmx.s:246    .text:00000000000000b4 .LVL23
GAS LISTING /tmp/ccYLaPmx.s 			page 16


     /tmp/ccYLaPmx.s:253    .text:00000000000000c0 .LVL24
     /tmp/ccYLaPmx.s:258    .text:00000000000000cc .LVL25
     /tmp/ccYLaPmx.s:281    .text:00000000000000f4 .LVL29
     /tmp/ccYLaPmx.s:287    .text:0000000000000108 .LVL30
     /tmp/ccYLaPmx.s:310    .text:0000000000000130 .LVL32
     /tmp/ccYLaPmx.s:314    .text:000000000000013c .LVL33
     /tmp/ccYLaPmx.s:321    .text:000000000000014c .LVL34
     /tmp/ccYLaPmx.s:325    .text:0000000000000158 .LVL35
     /tmp/ccYLaPmx.s:77     .text._ZN16MyPeriodicThread18periodicActivationEv:0000000000000000 .LFB51
     /tmp/ccYLaPmx.s:110    .text._ZN16MyPeriodicThread18periodicActivationEv:000000000000003c .LFE51
     /tmp/ccYLaPmx.s:3539   .debug_loc:00000000000001a8 .LLST2
     /tmp/ccYLaPmx.s:94     .text._ZN16MyPeriodicThread18periodicActivationEv:000000000000001c .LVL11
     /tmp/ccYLaPmx.s:99     .text._ZN16MyPeriodicThread18periodicActivationEv:000000000000002c .LVL12
     /tmp/ccYLaPmx.s:3644   .debug_str:000000000000011d .LASF179
     /tmp/ccYLaPmx.s:3972   .debug_str:0000000000000d47 .LASF154
     /tmp/ccYLaPmx.s:3978   .debug_str:0000000000000d78 .LASF155
     /tmp/ccYLaPmx.s:3854   .debug_str:000000000000092c .LASF156
     /tmp/ccYLaPmx.s:3678   .debug_str:000000000000029e .LASF157
     /tmp/ccYLaPmx.s:3948   .debug_str:0000000000000c9d .LASF158
     /tmp/ccYLaPmx.s:10     .text:0000000000000000 .LFB43
     /tmp/ccYLaPmx.s:70     .text:0000000000000064 .LFE43
     /tmp/ccYLaPmx.s:3553   .debug_loc:00000000000001e1 .LLST0
     /tmp/ccYLaPmx.s:27     .text:0000000000000014 .LBB17
     /tmp/ccYLaPmx.s:56     .text:0000000000000050 .LBE17
     /tmp/ccYLaPmx.s:3567   .debug_loc:000000000000021a .LLST1
     /tmp/ccYLaPmx.s:39     .text:000000000000002c .LVL3
     /tmp/ccYLaPmx.s:44     .text:0000000000000038 .LVL4
     /tmp/ccYLaPmx.s:49     .text:0000000000000048 .LVL5
     /tmp/ccYLaPmx.s:3818   .debug_str:00000000000007e0 .LASF159
     /tmp/ccYLaPmx.s:3754   .debug_str:00000000000005ea .LASF160
     /tmp/ccYLaPmx.s:3846   .debug_str:00000000000008fa .LASF161
     /tmp/ccYLaPmx.s:3706   .debug_str:0000000000000411 .LASF162
     /tmp/ccYLaPmx.s:3744   .debug_str:0000000000000592 .LASF163
     /tmp/ccYLaPmx.s:3712   .debug_str:000000000000043e .LASF164
     /tmp/ccYLaPmx.s:3964   .debug_str:0000000000000d07 .LASF180
     /tmp/ccYLaPmx.s:3684   .debug_str:00000000000002c8 .LASF181
     /tmp/ccYLaPmx.s:3722   .debug_str:00000000000004af .LASF165
     /tmp/ccYLaPmx.s:3736   .debug_str:000000000000055a .LASF166
     /tmp/ccYLaPmx.s:163    .text._ZN16MyPeriodicThreadD0Ev:0000000000000000 .LVL16
     /tmp/ccYLaPmx.s:199    .text._ZN16MyPeriodicThreadD0Ev:0000000000000048 .LVL20
     /tmp/ccYLaPmx.s:175    .text._ZN16MyPeriodicThreadD0Ev:0000000000000018 .LVL17
     /tmp/ccYLaPmx.s:120    .text._ZN16MyPeriodicThreadD2Ev:0000000000000000 .LVL13
     /tmp/ccYLaPmx.s:129    .text._ZN16MyPeriodicThreadD2Ev:0000000000000010 .LVL14
     /tmp/ccYLaPmx.s:261    .text:00000000000000d0 .LVL26
     /tmp/ccYLaPmx.s:273    .text:00000000000000e8 .LVL28
     /tmp/ccYLaPmx.s:298    .text:0000000000000114 .LVL31
     /tmp/ccYLaPmx.s:80     .text._ZN16MyPeriodicThread18periodicActivationEv:0000000000000000 .LVL9
     /tmp/ccYLaPmx.s:92     .text._ZN16MyPeriodicThread18periodicActivationEv:0000000000000014 .LVL10
     /tmp/ccYLaPmx.s:14     .text:0000000000000000 .LVL0
     /tmp/ccYLaPmx.s:30     .text:0000000000000018 .LVL2
     /tmp/ccYLaPmx.s:26     .text:0000000000000014 .LVL1
     /tmp/ccYLaPmx.s:52     .text:000000000000004c .LVL6
     /tmp/ccYLaPmx.s:54     .text:0000000000000050 .LVL7
     /tmp/ccYLaPmx.s:65     .text:000000000000005c .LVL8
     /tmp/ccYLaPmx.s:394    .debug_info:0000000000000000 .Ldebug_info0
     /tmp/ccYLaPmx.s:5      .text:0000000000000000 .Ltext0
     /tmp/ccYLaPmx.s:387    .text:0000000000000158 .Letext0
GAS LISTING /tmp/ccYLaPmx.s 			page 17


     /tmp/ccYLaPmx.s:331    .gcc_except_table:0000000000000000 .LLSDA52
                           .group:0000000000000000 _ZN16MyPeriodicThreadD5Ev

UNDEFINED SYMBOLS
_ZN7Console4putcEc
_ZN6Thread5sleepEm
_Z10sem_signalP10KSemaphore
_ZTV14PeriodicThread
_ZN6ThreadD2Ev
_ZdlPv
_Z8sem_openPP10KSemaphorej
_Znwm
_ZN6ThreadC1EPFvPvES0_
_ZN6Thread5startEv
_ZN14PeriodicThreadC2Em
_Z10sem_wait_nP10KSemaphorej
_Unwind_Resume
__gxx_personality_v0
_ZN14PeriodicThread3runEv
